
FreeRTOS.elf：     文件格式 elf32-littlearm


Disassembly of section .text:

87800000 <_start>:
87800000:	e59ff0ec 	ldr	pc, [pc, #236]	; 878000f4 <FIQ_Handler+0x8>
87800004:	e59ff0ec 	ldr	pc, [pc, #236]	; 878000f8 <FIQ_Handler+0xc>
87800008:	e59ff0ec 	ldr	pc, [pc, #236]	; 878000fc <FIQ_Handler+0x10>
8780000c:	e59ff0ec 	ldr	pc, [pc, #236]	; 87800100 <FIQ_Handler+0x14>
87800010:	e59ff0ec 	ldr	pc, [pc, #236]	; 87800104 <FIQ_Handler+0x18>
87800014:	e59ff0ec 	ldr	pc, [pc, #236]	; 87800108 <FIQ_Handler+0x1c>
87800018:	e59ff0ec 	ldr	pc, [pc, #236]	; 8780010c <FIQ_Handler+0x20>
8780001c:	e59ff0ec 	ldr	pc, [pc, #236]	; 87800110 <FIQ_Handler+0x24>

87800020 <_swi>:
87800020:	87800150 			; <UNDEFINED> instruction: 0x87800150

87800024 <_irq>:
87800024:	87800230 			; <UNDEFINED> instruction: 0x87800230

87800028 <Reset_Handler>:
87800028:	f10c0080 	cpsid	i
8780002c:	ee110f10 	mrc	15, 0, r0, cr1, cr0, {0}
87800030:	e3c00a01 	bic	r0, r0, #4096	; 0x1000
87800034:	e3c00b02 	bic	r0, r0, #2048	; 0x800
87800038:	e3c00004 	bic	r0, r0, #4
8780003c:	e3c00002 	bic	r0, r0, #2
87800040:	e3c00001 	bic	r0, r0, #1
87800044:	ee010f10 	mcr	15, 0, r0, cr1, cr0, {0}
87800048:	e59f00c4 	ldr	r0, [pc, #196]	; 87800114 <FIQ_Handler+0x28>
8780004c:	f57ff04f 	dsb	sy
87800050:	f57ff06f 	isb	sy
87800054:	ee0c0f10 	mcr	15, 0, r0, cr12, cr0, {0}
87800058:	f57ff04f 	dsb	sy
8780005c:	f57ff06f 	isb	sy

87800060 <_bss_start>:
87800060:	8780be00 	strhi	fp, [r0, r0, lsl #28]

87800064 <_bss_end>:
87800064:	8782421c 	usada8hi	r2, ip, r2, r4
87800068:	e51f0010 	ldr	r0, [pc, #-16]	; 87800060 <_bss_start>
8780006c:	e51f1010 	ldr	r1, [pc, #-16]	; 87800064 <_bss_end>
87800070:	e3a02000 	mov	r2, #0

87800074 <bss_loop>:
87800074:	e8a00004 	stmia	r0!, {r2}
87800078:	e1500001 	cmp	r0, r1
8780007c:	dafffffc 	ble	87800074 <bss_loop>
87800080:	e10f0000 	mrs	r0, CPSR
87800084:	e3c0001f 	bic	r0, r0, #31
87800088:	e3800012 	orr	r0, r0, #18
8780008c:	e129f000 	msr	CPSR_fc, r0
87800090:	e59fd080 	ldr	sp, [pc, #128]	; 87800118 <FIQ_Handler+0x2c>
87800094:	e10f0000 	mrs	r0, CPSR
87800098:	e3c0001f 	bic	r0, r0, #31
8780009c:	e380001f 	orr	r0, r0, #31
878000a0:	e129f000 	msr	CPSR_fc, r0
878000a4:	e59fd070 	ldr	sp, [pc, #112]	; 8780011c <FIQ_Handler+0x30>
878000a8:	e10f0000 	mrs	r0, CPSR
878000ac:	e3c0001f 	bic	r0, r0, #31
878000b0:	e3800013 	orr	r0, r0, #19
878000b4:	e129f000 	msr	CPSR_fc, r0
878000b8:	e59fd060 	ldr	sp, [pc, #96]	; 87800120 <FIQ_Handler+0x34>
878000bc:	f1080080 	cpsie	i
878000c0:	ea001cc4 	b	878073d8 <__main_from_arm>

878000c4 <Undefined_Handler>:
878000c4:	e59f002c 	ldr	r0, [pc, #44]	; 878000f8 <FIQ_Handler+0xc>
878000c8:	e12fff10 	bx	r0

878000cc <SVC_Handler>:
878000cc:	e51ff0b4 	ldr	pc, [pc, #-180]	; 87800020 <_swi>

878000d0 <PreAbort_Handler>:
878000d0:	e59f0028 	ldr	r0, [pc, #40]	; 87800100 <FIQ_Handler+0x14>
878000d4:	e12fff10 	bx	r0

878000d8 <DataAbort_Handler>:
878000d8:	e59f0024 	ldr	r0, [pc, #36]	; 87800104 <FIQ_Handler+0x18>
878000dc:	e12fff10 	bx	r0

878000e0 <NotUsed_Handler>:
878000e0:	e59f0020 	ldr	r0, [pc, #32]	; 87800108 <FIQ_Handler+0x1c>
878000e4:	e12fff10 	bx	r0

878000e8 <IRQ_Handler>:
878000e8:	e51ff0cc 	ldr	pc, [pc, #-204]	; 87800024 <_irq>

878000ec <FIQ_Handler>:
878000ec:	e59f001c 	ldr	r0, [pc, #28]	; 87800110 <FIQ_Handler+0x24>
878000f0:	e12fff10 	bx	r0
878000f4:	87800028 	strhi	r0, [r0, r8, lsr #32]
878000f8:	878000c4 	strhi	r0, [r0, r4, asr #1]
878000fc:	878000cc 	strhi	r0, [r0, ip, asr #1]
87800100:	878000d0 			; <UNDEFINED> instruction: 0x878000d0
87800104:	878000d8 			; <UNDEFINED> instruction: 0x878000d8
87800108:	878000e0 	strhi	r0, [r0, r0, ror #1]
8780010c:	878000e8 	strhi	r0, [r0, r8, ror #1]
87800110:	878000ec 	strhi	r0, [r0, ip, ror #1]
87800114:	87800000 	strhi	r0, [r0, r0]
87800118:	80600000 	rsbhi	r0, r0, r0
8780011c:	80400000 	subhi	r0, r0, r0
87800120:	80200000 	eorhi	r0, r0, r0
87800124:	00001e41 	andeq	r1, r0, r1, asr #28
87800128:	61656100 	cmnvs	r5, r0, lsl #2
8780012c:	01006962 	tsteq	r0, r2, ror #18
87800130:	00000014 	andeq	r0, r0, r4, lsl r0
87800134:	412d3705 	teqmi	sp, r5, lsl #14
87800138:	070a0600 	streq	r0, [sl, -r0, lsl #12]
8780013c:	09010841 	stmdbeq	r1, {r0, r6, fp}
87800140:	00040a02 	andeq	r0, r4, r2, lsl #20
	...

87800150 <FreeRTOS_SWI_Handler>:
87800150:	f96d051f 	srsdb	sp!, #31
87800154:	f102001f 	cps	#31
87800158:	e92d5fff 	push	{r0, r1, r2, r3, r4, r5, r6, r7, r8, r9, sl, fp, ip, lr}
8780015c:	e59f2220 	ldr	r2, [pc, #544]	; 87800384 <ulCriticalNestingConst>
87800160:	e5921000 	ldr	r1, [r2]
87800164:	e52d1004 	push	{r1}		; (str r1, [sp, #-4]!)
87800168:	e59f2218 	ldr	r2, [pc, #536]	; 87800388 <ulPortTaskHasFPUContextConst>
8780016c:	e5923000 	ldr	r3, [r2]
87800170:	e3530000 	cmp	r3, #0
87800174:	e52d3004 	push	{r3}		; (str r3, [sp, #-4]!)
87800178:	e59f0200 	ldr	r0, [pc, #512]	; 87800380 <pxCurrentTCBConst>
8780017c:	e5901000 	ldr	r1, [r0]
87800180:	e581d000 	str	sp, [r1]
87800184:	e59f0204 	ldr	r0, [pc, #516]	; 87800390 <vTaskSwitchContextConst>
87800188:	e12fff30 	blx	r0
8780018c:	e59f01ec 	ldr	r0, [pc, #492]	; 87800380 <pxCurrentTCBConst>
87800190:	e5901000 	ldr	r1, [r0]
87800194:	e591d000 	ldr	sp, [r1]
87800198:	e59f01e8 	ldr	r0, [pc, #488]	; 87800388 <ulPortTaskHasFPUContextConst>
8780019c:	e49d1004 	pop	{r1}		; (ldr r1, [sp], #4)
878001a0:	e5801000 	str	r1, [r0]
878001a4:	e3510000 	cmp	r1, #0
878001a8:	e59f01d4 	ldr	r0, [pc, #468]	; 87800384 <ulCriticalNestingConst>
878001ac:	e49d1004 	pop	{r1}		; (ldr r1, [sp], #4)
878001b0:	e5801000 	str	r1, [r0]
878001b4:	e59f21c0 	ldr	r2, [pc, #448]	; 8780037c <ulICCPMRConst>
878001b8:	e5922000 	ldr	r2, [r2]
878001bc:	e3510000 	cmp	r1, #0
878001c0:	03a040ff 	moveq	r4, #255	; 0xff
878001c4:	159f41c0 	ldrne	r4, [pc, #448]	; 8780038c <ulMaxAPIPriorityMaskConst>
878001c8:	15944000 	ldrne	r4, [r4]
878001cc:	e5824000 	str	r4, [r2]
878001d0:	e8bd5fff 	pop	{r0, r1, r2, r3, r4, r5, r6, r7, r8, r9, sl, fp, ip, lr}
878001d4:	f8bd0a00 	rfeia	sp!

878001d8 <vPortRestoreTaskContext>:
878001d8:	f102001f 	cps	#31
878001dc:	e59f019c 	ldr	r0, [pc, #412]	; 87800380 <pxCurrentTCBConst>
878001e0:	e5901000 	ldr	r1, [r0]
878001e4:	e591d000 	ldr	sp, [r1]
878001e8:	e59f0198 	ldr	r0, [pc, #408]	; 87800388 <ulPortTaskHasFPUContextConst>
878001ec:	e49d1004 	pop	{r1}		; (ldr r1, [sp], #4)
878001f0:	e5801000 	str	r1, [r0]
878001f4:	e3510000 	cmp	r1, #0
878001f8:	e59f0184 	ldr	r0, [pc, #388]	; 87800384 <ulCriticalNestingConst>
878001fc:	e49d1004 	pop	{r1}		; (ldr r1, [sp], #4)
87800200:	e5801000 	str	r1, [r0]
87800204:	e59f2170 	ldr	r2, [pc, #368]	; 8780037c <ulICCPMRConst>
87800208:	e5922000 	ldr	r2, [r2]
8780020c:	e3510000 	cmp	r1, #0
87800210:	03a040ff 	moveq	r4, #255	; 0xff
87800214:	159f4170 	ldrne	r4, [pc, #368]	; 8780038c <ulMaxAPIPriorityMaskConst>
87800218:	15944000 	ldrne	r4, [r4]
8780021c:	e5824000 	str	r4, [r2]
87800220:	e8bd5fff 	pop	{r0, r1, r2, r3, r4, r5, r6, r7, r8, r9, sl, fp, ip, lr}
87800224:	f8bd0a00 	rfeia	sp!
87800228:	e320f000 	nop	{0}
8780022c:	e320f000 	nop	{0}

87800230 <FreeRTOS_IRQ_Handler>:
87800230:	e24ee004 	sub	lr, lr, #4
87800234:	e52de004 	push	{lr}		; (str lr, [sp, #-4]!)
87800238:	e14fe000 	mrs	lr, SPSR
8780023c:	e52de004 	push	{lr}		; (str lr, [sp, #-4]!)
87800240:	f1020013 	cps	#19
87800244:	e92d101f 	push	{r0, r1, r2, r3, r4, ip}
87800248:	e59f3148 	ldr	r3, [pc, #328]	; 87800398 <ulPortInterruptNestingConst>
8780024c:	e5931000 	ldr	r1, [r3]
87800250:	e2814001 	add	r4, r1, #1
87800254:	e5834000 	str	r4, [r3]
87800258:	e59f2114 	ldr	r2, [pc, #276]	; 87800374 <ulICCIARConst>
8780025c:	e5922000 	ldr	r2, [r2]
87800260:	e5920000 	ldr	r0, [r2]
87800264:	e1a0200d 	mov	r2, sp
87800268:	e2022004 	and	r2, r2, #4
8780026c:	e04dd002 	sub	sp, sp, r2
87800270:	e92d400f 	push	{r0, r1, r2, r3, lr}
87800274:	e59f1118 	ldr	r1, [pc, #280]	; 87800394 <vApplicationIRQHandlerConst>
87800278:	e12fff31 	blx	r1
8780027c:	e8bd400f 	pop	{r0, r1, r2, r3, lr}
87800280:	e08dd002 	add	sp, sp, r2
87800284:	f10c0080 	cpsid	i
87800288:	f57ff04f 	dsb	sy
8780028c:	f57ff06f 	isb	sy
87800290:	e59f40e0 	ldr	r4, [pc, #224]	; 87800378 <ulICCEOIRConst>
87800294:	e5944000 	ldr	r4, [r4]
87800298:	e5840000 	str	r0, [r4]
8780029c:	e5831000 	str	r1, [r3]
878002a0:	e3510000 	cmp	r1, #0
878002a4:	1a000003 	bne	878002b8 <exit_without_switch>
878002a8:	e59f10f0 	ldr	r1, [pc, #240]	; 878003a0 <vApplicationFPUSafeIRQHandlerConst+0x4>
878002ac:	e5910000 	ldr	r0, [r1]
878002b0:	e3500000 	cmp	r0, #0
878002b4:	1a000005 	bne	878002d0 <switch_before_exit>

878002b8 <exit_without_switch>:
878002b8:	e8bd101f 	pop	{r0, r1, r2, r3, r4, ip}
878002bc:	f1020012 	cps	#18
878002c0:	e49de004 	pop	{lr}		; (ldr lr, [sp], #4)
878002c4:	e16ff00e 	msr	SPSR_fsxc, lr
878002c8:	e49de004 	pop	{lr}		; (ldr lr, [sp], #4)
878002cc:	e1b0f00e 	movs	pc, lr

878002d0 <switch_before_exit>:
878002d0:	e3a00000 	mov	r0, #0
878002d4:	e5810000 	str	r0, [r1]
878002d8:	e8bd101f 	pop	{r0, r1, r2, r3, r4, ip}
878002dc:	f1020012 	cps	#18
878002e0:	e49de004 	pop	{lr}		; (ldr lr, [sp], #4)
878002e4:	e16ff00e 	msr	SPSR_fsxc, lr
878002e8:	e49de004 	pop	{lr}		; (ldr lr, [sp], #4)
878002ec:	f96d051f 	srsdb	sp!, #31
878002f0:	f102001f 	cps	#31
878002f4:	e92d5fff 	push	{r0, r1, r2, r3, r4, r5, r6, r7, r8, r9, sl, fp, ip, lr}
878002f8:	e59f2084 	ldr	r2, [pc, #132]	; 87800384 <ulCriticalNestingConst>
878002fc:	e5921000 	ldr	r1, [r2]
87800300:	e52d1004 	push	{r1}		; (str r1, [sp, #-4]!)
87800304:	e59f207c 	ldr	r2, [pc, #124]	; 87800388 <ulPortTaskHasFPUContextConst>
87800308:	e5923000 	ldr	r3, [r2]
8780030c:	e3530000 	cmp	r3, #0
87800310:	e52d3004 	push	{r3}		; (str r3, [sp, #-4]!)
87800314:	e59f0064 	ldr	r0, [pc, #100]	; 87800380 <pxCurrentTCBConst>
87800318:	e5901000 	ldr	r1, [r0]
8780031c:	e581d000 	str	sp, [r1]
87800320:	e59f0068 	ldr	r0, [pc, #104]	; 87800390 <vTaskSwitchContextConst>
87800324:	e12fff30 	blx	r0
87800328:	e59f0050 	ldr	r0, [pc, #80]	; 87800380 <pxCurrentTCBConst>
8780032c:	e5901000 	ldr	r1, [r0]
87800330:	e591d000 	ldr	sp, [r1]
87800334:	e59f004c 	ldr	r0, [pc, #76]	; 87800388 <ulPortTaskHasFPUContextConst>
87800338:	e49d1004 	pop	{r1}		; (ldr r1, [sp], #4)
8780033c:	e5801000 	str	r1, [r0]
87800340:	e3510000 	cmp	r1, #0
87800344:	e59f0038 	ldr	r0, [pc, #56]	; 87800384 <ulCriticalNestingConst>
87800348:	e49d1004 	pop	{r1}		; (ldr r1, [sp], #4)
8780034c:	e5801000 	str	r1, [r0]
87800350:	e59f2024 	ldr	r2, [pc, #36]	; 8780037c <ulICCPMRConst>
87800354:	e5922000 	ldr	r2, [r2]
87800358:	e3510000 	cmp	r1, #0
8780035c:	03a040ff 	moveq	r4, #255	; 0xff
87800360:	159f4024 	ldrne	r4, [pc, #36]	; 8780038c <ulMaxAPIPriorityMaskConst>
87800364:	15944000 	ldrne	r4, [r4]
87800368:	e5824000 	str	r4, [r2]
8780036c:	e8bd5fff 	pop	{r0, r1, r2, r3, r4, r5, r6, r7, r8, r9, sl, fp, ip, lr}
87800370:	f8bd0a00 	rfeia	sp!

87800374 <ulICCIARConst>:
87800374:	8780bbd8 			; <UNDEFINED> instruction: 0x8780bbd8

87800378 <ulICCEOIRConst>:
87800378:	8780bbd4 			; <UNDEFINED> instruction: 0x8780bbd4

8780037c <ulICCPMRConst>:
8780037c:	8780bbd0 			; <UNDEFINED> instruction: 0x8780bbd0

87800380 <pxCurrentTCBConst>:
87800380:	8780d77c 			; <UNDEFINED> instruction: 0x8780d77c

87800384 <ulCriticalNestingConst>:
87800384:	8780bdfc 			; <UNDEFINED> instruction: 0x8780bdfc

87800388 <ulPortTaskHasFPUContextConst>:
87800388:	878241a8 	strhi	r4, [r2, r8, lsr #3]

8780038c <ulMaxAPIPriorityMaskConst>:
8780038c:	8780bbcc 	strhi	fp, [r0, ip, asr #23]

87800390 <vTaskSwitchContextConst>:
87800390:	878058f5 			; <UNDEFINED> instruction: 0x878058f5

87800394 <vApplicationIRQHandlerConst>:
87800394:	87801f71 			; <UNDEFINED> instruction: 0x87801f71

87800398 <ulPortInterruptNestingConst>:
87800398:	878241ac 	strhi	r4, [r2, ip, lsr #3]

8780039c <vApplicationFPUSafeIRQHandlerConst>:
8780039c:	8780713d 			; <UNDEFINED> instruction: 0x8780713d
878003a0:	878241a4 	strhi	r4, [r2, r4, lsr #3]
878003a4:	e320f000 	nop	{0}
878003a8:	e320f000 	nop	{0}
878003ac:	e320f000 	nop	{0}

878003b0 <taskLCD>:
878003b0:	e92d 47f0 	stmdb	sp!, {r4, r5, r6, r7, r8, r9, sl, lr}
878003b4:	f244 13bc 	movw	r3, #16828	; 0x41bc
878003b8:	f64b 3adc 	movw	sl, #48092	; 0xbbdc
878003bc:	f64b 39e4 	movw	r9, #48100	; 0xbbe4
878003c0:	f64b 38ec 	movw	r8, #48108	; 0xbbec
878003c4:	f64b 37f4 	movw	r7, #48116	; 0xbbf4
878003c8:	f64b 36fc 	movw	r6, #48124	; 0xbbfc
878003cc:	f64b 4504 	movw	r5, #48132	; 0xbc04
878003d0:	f2c8 7382 	movt	r3, #34690	; 0x8782
878003d4:	f06f 427f 	mvn.w	r2, #4278190080	; 0xff000000
878003d8:	b086      	sub	sp, #24
878003da:	f2c8 7a80 	movt	sl, #34688	; 0x8780
878003de:	f2c8 7980 	movt	r9, #34688	; 0x8780
878003e2:	f2c8 7880 	movt	r8, #34688	; 0x8780
878003e6:	f2c8 7780 	movt	r7, #34688	; 0x8780
878003ea:	f2c8 7680 	movt	r6, #34688	; 0x8780
878003ee:	f2c8 7580 	movt	r5, #34688	; 0x8780
878003f2:	2420      	movs	r4, #32
878003f4:	61da      	str	r2, [r3, #28]
878003f6:	f44f 027f 	mov.w	r2, #16711680	; 0xff0000
878003fa:	619a      	str	r2, [r3, #24]
878003fc:	a803      	add	r0, sp, #12
878003fe:	f003 f909 	bl	87803614 <rtc_getdatetime>
87800402:	2164      	movs	r1, #100	; 0x64
87800404:	e88d 0410 	stmia.w	sp, {r4, sl}
87800408:	4608      	mov	r0, r1
8780040a:	2320      	movs	r3, #32
8780040c:	2280      	movs	r2, #128	; 0x80
8780040e:	f002 ff15 	bl	8780323c <lcd_show_string>
87800412:	9a03      	ldr	r2, [sp, #12]
87800414:	2304      	movs	r3, #4
87800416:	9400      	str	r4, [sp, #0]
87800418:	2164      	movs	r1, #100	; 0x64
8780041a:	20fa      	movs	r0, #250	; 0xfa
8780041c:	f002 fe56 	bl	878030cc <lcd_shownum>
87800420:	f8cd 9004 	str.w	r9, [sp, #4]
87800424:	2320      	movs	r3, #32
87800426:	9400      	str	r4, [sp, #0]
87800428:	2280      	movs	r2, #128	; 0x80
8780042a:	2196      	movs	r1, #150	; 0x96
8780042c:	2064      	movs	r0, #100	; 0x64
8780042e:	f002 ff05 	bl	8780323c <lcd_show_string>
87800432:	f89d 2010 	ldrb.w	r2, [sp, #16]
87800436:	2304      	movs	r3, #4
87800438:	9400      	str	r4, [sp, #0]
8780043a:	2196      	movs	r1, #150	; 0x96
8780043c:	20fa      	movs	r0, #250	; 0xfa
8780043e:	f002 fe45 	bl	878030cc <lcd_shownum>
87800442:	f8cd 8004 	str.w	r8, [sp, #4]
87800446:	2320      	movs	r3, #32
87800448:	9400      	str	r4, [sp, #0]
8780044a:	2280      	movs	r2, #128	; 0x80
8780044c:	21c8      	movs	r1, #200	; 0xc8
8780044e:	2064      	movs	r0, #100	; 0x64
87800450:	f002 fef4 	bl	8780323c <lcd_show_string>
87800454:	f89d 2011 	ldrb.w	r2, [sp, #17]
87800458:	2304      	movs	r3, #4
8780045a:	9400      	str	r4, [sp, #0]
8780045c:	21c8      	movs	r1, #200	; 0xc8
8780045e:	20fa      	movs	r0, #250	; 0xfa
87800460:	f002 fe34 	bl	878030cc <lcd_shownum>
87800464:	9701      	str	r7, [sp, #4]
87800466:	2320      	movs	r3, #32
87800468:	9400      	str	r4, [sp, #0]
8780046a:	2280      	movs	r2, #128	; 0x80
8780046c:	21fa      	movs	r1, #250	; 0xfa
8780046e:	2064      	movs	r0, #100	; 0x64
87800470:	f002 fee4 	bl	8780323c <lcd_show_string>
87800474:	21fa      	movs	r1, #250	; 0xfa
87800476:	f89d 2012 	ldrb.w	r2, [sp, #18]
8780047a:	4608      	mov	r0, r1
8780047c:	9400      	str	r4, [sp, #0]
8780047e:	2304      	movs	r3, #4
87800480:	f002 fe24 	bl	878030cc <lcd_shownum>
87800484:	9601      	str	r6, [sp, #4]
87800486:	2320      	movs	r3, #32
87800488:	9400      	str	r4, [sp, #0]
8780048a:	2280      	movs	r2, #128	; 0x80
8780048c:	f44f 7196 	mov.w	r1, #300	; 0x12c
87800490:	2064      	movs	r0, #100	; 0x64
87800492:	f002 fed3 	bl	8780323c <lcd_show_string>
87800496:	f89d 2013 	ldrb.w	r2, [sp, #19]
8780049a:	2304      	movs	r3, #4
8780049c:	9400      	str	r4, [sp, #0]
8780049e:	f44f 7196 	mov.w	r1, #300	; 0x12c
878004a2:	20fa      	movs	r0, #250	; 0xfa
878004a4:	f002 fe12 	bl	878030cc <lcd_shownum>
878004a8:	9501      	str	r5, [sp, #4]
878004aa:	2320      	movs	r3, #32
878004ac:	9400      	str	r4, [sp, #0]
878004ae:	2280      	movs	r2, #128	; 0x80
878004b0:	f44f 71af 	mov.w	r1, #350	; 0x15e
878004b4:	2064      	movs	r0, #100	; 0x64
878004b6:	f002 fec1 	bl	8780323c <lcd_show_string>
878004ba:	f89d 2014 	ldrb.w	r2, [sp, #20]
878004be:	2304      	movs	r3, #4
878004c0:	9400      	str	r4, [sp, #0]
878004c2:	f44f 71af 	mov.w	r1, #350	; 0x15e
878004c6:	20fa      	movs	r0, #250	; 0xfa
878004c8:	f002 fe00 	bl	878030cc <lcd_shownum>
878004cc:	f44f 60fa 	mov.w	r0, #2000	; 0x7d0
878004d0:	f005 f914 	bl	878056fc <vTaskDelay>
878004d4:	e792      	b.n	878003fc <taskLCD+0x4c>
878004d6:	bf00      	nop

878004d8 <taskLED>:
878004d8:	b510      	push	{r4, lr}
878004da:	2401      	movs	r4, #1
878004dc:	f084 0401 	eor.w	r4, r4, #1
878004e0:	2000      	movs	r0, #0
878004e2:	4621      	mov	r1, r4
878004e4:	f001 fede 	bl	878022a4 <led_switch>
878004e8:	f44f 70fa 	mov.w	r0, #500	; 0x1f4
878004ec:	f005 f906 	bl	878056fc <vTaskDelay>
878004f0:	e7f4      	b.n	878004dc <taskLED+0x4>
878004f2:	bf00      	nop

878004f4 <vApplicationMallocFailedHook>:
878004f4:	b508      	push	{r3, lr}
878004f6:	f006 fdbf 	bl	87807078 <ulPortSetInterruptMask>
878004fa:	e7fe      	b.n	878004fa <vApplicationMallocFailedHook+0x6>

878004fc <vApplicationStackOverflowHook>:
878004fc:	b508      	push	{r3, lr}
878004fe:	f006 fdbb 	bl	87807078 <ulPortSetInterruptMask>
87800502:	e7fe      	b.n	87800502 <vApplicationStackOverflowHook+0x6>

87800504 <vApplicationIdleHook>:
87800504:	b500      	push	{lr}
87800506:	b083      	sub	sp, #12
87800508:	f006 fc60 	bl	87806dcc <xPortGetFreeHeapSize>
8780050c:	9000      	str	r0, [sp, #0]
8780050e:	f006 fc65 	bl	87806ddc <xPortGetMinimumEverFreeHeapSize>
87800512:	9001      	str	r0, [sp, #4]
87800514:	9b00      	ldr	r3, [sp, #0]
87800516:	9b01      	ldr	r3, [sp, #4]
87800518:	b003      	add	sp, #12
8780051a:	f85d fb04 	ldr.w	pc, [sp], #4
8780051e:	bf00      	nop

87800520 <vAssertCalled>:
87800520:	b500      	push	{lr}
87800522:	2300      	movs	r3, #0
87800524:	b083      	sub	sp, #12
87800526:	9301      	str	r3, [sp, #4]
87800528:	f006 fdc2 	bl	878070b0 <vPortEnterCritical>
8780052c:	9b01      	ldr	r3, [sp, #4]
8780052e:	b91b      	cbnz	r3, 87800538 <vAssertCalled+0x18>
87800530:	bf00      	nop
87800532:	9b01      	ldr	r3, [sp, #4]
87800534:	2b00      	cmp	r3, #0
87800536:	d0fb      	beq.n	87800530 <vAssertCalled+0x10>
87800538:	f006 fd28 	bl	87806f8c <vPortExitCritical>
8780053c:	b003      	add	sp, #12
8780053e:	f85d fb04 	ldr.w	pc, [sp], #4
87800542:	bf00      	nop

87800544 <vApplicationTickHook>:
87800544:	4770      	bx	lr
87800546:	bf00      	nop

87800548 <vApplicationGetIdleTaskMemory>:
87800548:	f64b 6300 	movw	r3, #48640	; 0xbe00
8780054c:	b430      	push	{r4, r5}
8780054e:	f2c8 7380 	movt	r3, #34688	; 0x8780
87800552:	24fa      	movs	r4, #250	; 0xfa
87800554:	f103 055c 	add.w	r5, r3, #92	; 0x5c
87800558:	6003      	str	r3, [r0, #0]
8780055a:	600d      	str	r5, [r1, #0]
8780055c:	6014      	str	r4, [r2, #0]
8780055e:	bc30      	pop	{r4, r5}
87800560:	4770      	bx	lr
87800562:	bf00      	nop

87800564 <vApplicationGetTimerTaskMemory>:
87800564:	f64b 6300 	movw	r3, #48640	; 0xbe00
87800568:	b430      	push	{r4, r5}
8780056a:	f2c8 7380 	movt	r3, #34688	; 0x8780
8780056e:	f44f 74fa 	mov.w	r4, #500	; 0x1f4
87800572:	f203 4544 	addw	r5, r3, #1092	; 0x444
87800576:	f503 6394 	add.w	r3, r3, #1184	; 0x4a0
8780057a:	6005      	str	r5, [r0, #0]
8780057c:	600b      	str	r3, [r1, #0]
8780057e:	6014      	str	r4, [r2, #0]
87800580:	bc30      	pop	{r4, r5}
87800582:	4770      	bx	lr

87800584 <__muldi3>:
87800584:	fb02 f101 	mul.w	r1, r2, r1
87800588:	b4f0      	push	{r4, r5, r6, r7}
8780058a:	4604      	mov	r4, r0
8780058c:	ea4f 4610 	mov.w	r6, r0, lsr #16
87800590:	ea4f 4512 	mov.w	r5, r2, lsr #16
87800594:	ea20 4706 	bic.w	r7, r0, r6, lsl #16
87800598:	ea22 4205 	bic.w	r2, r2, r5, lsl #16
8780059c:	fb07 f002 	mul.w	r0, r7, r2
878005a0:	fb06 f202 	mul.w	r2, r6, r2
878005a4:	fb05 f707 	mul.w	r7, r5, r7
878005a8:	fb06 f505 	mul.w	r5, r6, r5
878005ac:	19d7      	adds	r7, r2, r7
878005ae:	bf28      	it	cs
878005b0:	f505 3580 	addcs.w	r5, r5, #65536	; 0x10000
878005b4:	eb10 4007 	adds.w	r0, r0, r7, lsl #16
878005b8:	eb45 4517 	adc.w	r5, r5, r7, lsr #16
878005bc:	fb03 1104 	mla	r1, r3, r4, r1
878005c0:	4429      	add	r1, r5
878005c2:	bcf0      	pop	{r4, r5, r6, r7}
878005c4:	4770      	bx	lr
878005c6:	bf00      	nop

878005c8 <__div64_32>:
878005c8:	e92d 4ff8 	stmdb	sp!, {r3, r4, r5, r6, r7, r8, r9, sl, fp, lr}
878005cc:	4688      	mov	r8, r1
878005ce:	e9d0 6700 	ldrd	r6, r7, [r0]
878005d2:	f04f 0b00 	mov.w	fp, #0
878005d6:	4681      	mov	r9, r0
878005d8:	468a      	mov	sl, r1
878005da:	4644      	mov	r4, r8
878005dc:	465d      	mov	r5, fp
878005de:	42b9      	cmp	r1, r7
878005e0:	bf84      	itt	hi
878005e2:	2200      	movhi	r2, #0
878005e4:	2300      	movhi	r3, #0
878005e6:	d80b      	bhi.n	87800600 <__div64_32+0x38>
878005e8:	4638      	mov	r0, r7
878005ea:	f006 fdb1 	bl	87807150 <__aeabi_uidiv>
878005ee:	4686      	mov	lr, r0
878005f0:	2000      	movs	r0, #0
878005f2:	fb08 f10e 	mul.w	r1, r8, lr
878005f6:	4602      	mov	r2, r0
878005f8:	4673      	mov	r3, lr
878005fa:	1a36      	subs	r6, r6, r0
878005fc:	eb67 0701 	sbc.w	r7, r7, r1
87800600:	45bb      	cmp	fp, r7
87800602:	bf08      	it	eq
87800604:	45b2      	cmpeq	sl, r6
87800606:	bf34      	ite	cc
87800608:	2101      	movcc	r1, #1
8780060a:	2100      	movcs	r1, #0
8780060c:	f1ba 0f01 	cmp.w	sl, #1
87800610:	f001 0101 	and.w	r1, r1, #1
87800614:	f17b 0000 	sbcs.w	r0, fp, #0
87800618:	f04f 0001 	mov.w	r0, #1
8780061c:	bfb8      	it	lt
8780061e:	2100      	movlt	r1, #0
87800620:	b371      	cbz	r1, 87800680 <__div64_32+0xb8>
87800622:	2100      	movs	r1, #0
87800624:	1924      	adds	r4, r4, r4
87800626:	416d      	adcs	r5, r5
87800628:	1800      	adds	r0, r0, r0
8780062a:	4149      	adcs	r1, r1
8780062c:	2c01      	cmp	r4, #1
8780062e:	f175 0e00 	sbcs.w	lr, r5, #0
87800632:	bfac      	ite	ge
87800634:	f04f 0e01 	movge.w	lr, #1
87800638:	f04f 0e00 	movlt.w	lr, #0
8780063c:	42bd      	cmp	r5, r7
8780063e:	f00e 0e01 	and.w	lr, lr, #1
87800642:	bf08      	it	eq
87800644:	42b4      	cmpeq	r4, r6
87800646:	bf28      	it	cs
87800648:	f04f 0e00 	movcs.w	lr, #0
8780064c:	f1be 0f00 	cmp.w	lr, #0
87800650:	d1e8      	bne.n	87800624 <__div64_32+0x5c>
87800652:	42af      	cmp	r7, r5
87800654:	bf08      	it	eq
87800656:	42a6      	cmpeq	r6, r4
87800658:	d304      	bcc.n	87800664 <__div64_32+0x9c>
8780065a:	1b36      	subs	r6, r6, r4
8780065c:	eb67 0705 	sbc.w	r7, r7, r5
87800660:	1812      	adds	r2, r2, r0
87800662:	414b      	adcs	r3, r1
87800664:	0849      	lsrs	r1, r1, #1
87800666:	ea4f 0030 	mov.w	r0, r0, rrx
8780066a:	086d      	lsrs	r5, r5, #1
8780066c:	ea4f 0434 	mov.w	r4, r4, rrx
87800670:	ea50 0e01 	orrs.w	lr, r0, r1
87800674:	d1ed      	bne.n	87800652 <__div64_32+0x8a>
87800676:	e9c9 2300 	strd	r2, r3, [r9]
8780067a:	4630      	mov	r0, r6
8780067c:	e8bd 8ff8 	ldmia.w	sp!, {r3, r4, r5, r6, r7, r8, r9, sl, fp, pc}
87800680:	2100      	movs	r1, #0
87800682:	e7e6      	b.n	87800652 <__div64_32+0x8a>

87800684 <strnicmp>:
87800684:	b322      	cbz	r2, 878006d0 <strnicmp+0x4c>
87800686:	b5f0      	push	{r4, r5, r6, r7, lr}
87800688:	f64b 45f8 	movw	r5, #48376	; 0xbcf8
8780068c:	3801      	subs	r0, #1
8780068e:	f2c8 7580 	movt	r5, #34688	; 0x8780
87800692:	e008      	b.n	878006a6 <strnicmp+0x22>
87800694:	07f6      	lsls	r6, r6, #31
87800696:	fa5f f38e 	uxtb.w	r3, lr
8780069a:	d500      	bpl.n	8780069e <strnicmp+0x1a>
8780069c:	b2fc      	uxtb	r4, r7
8780069e:	42a3      	cmp	r3, r4
878006a0:	d114      	bne.n	878006cc <strnicmp+0x48>
878006a2:	3a01      	subs	r2, #1
878006a4:	d01a      	beq.n	878006dc <strnicmp+0x58>
878006a6:	f810 3f01 	ldrb.w	r3, [r0, #1]!
878006aa:	f811 4b01 	ldrb.w	r4, [r1], #1
878006ae:	b18b      	cbz	r3, 878006d4 <strnicmp+0x50>
878006b0:	b194      	cbz	r4, 878006d8 <strnicmp+0x54>
878006b2:	42a3      	cmp	r3, r4
878006b4:	d0f5      	beq.n	878006a2 <strnicmp+0x1e>
878006b6:	5cee      	ldrb	r6, [r5, r3]
878006b8:	f104 0720 	add.w	r7, r4, #32
878006bc:	f103 0e20 	add.w	lr, r3, #32
878006c0:	f016 0f01 	tst.w	r6, #1
878006c4:	5d2e      	ldrb	r6, [r5, r4]
878006c6:	d1e5      	bne.n	87800694 <strnicmp+0x10>
878006c8:	07f6      	lsls	r6, r6, #31
878006ca:	d4e7      	bmi.n	8780069c <strnicmp+0x18>
878006cc:	1b18      	subs	r0, r3, r4
878006ce:	bdf0      	pop	{r4, r5, r6, r7, pc}
878006d0:	4610      	mov	r0, r2
878006d2:	4770      	bx	lr
878006d4:	4260      	negs	r0, r4
878006d6:	bdf0      	pop	{r4, r5, r6, r7, pc}
878006d8:	4618      	mov	r0, r3
878006da:	bdf0      	pop	{r4, r5, r6, r7, pc}
878006dc:	4610      	mov	r0, r2
878006de:	bdf0      	pop	{r4, r5, r6, r7, pc}

878006e0 <strcpy>:
878006e0:	1e42      	subs	r2, r0, #1
878006e2:	f811 3b01 	ldrb.w	r3, [r1], #1
878006e6:	f802 3f01 	strb.w	r3, [r2, #1]!
878006ea:	2b00      	cmp	r3, #0
878006ec:	d1f9      	bne.n	878006e2 <strcpy+0x2>
878006ee:	4770      	bx	lr

878006f0 <strncpy>:
878006f0:	b410      	push	{r4}
878006f2:	440a      	add	r2, r1
878006f4:	1e44      	subs	r4, r0, #1
878006f6:	e004      	b.n	87800702 <strncpy+0x12>
878006f8:	f811 3b01 	ldrb.w	r3, [r1], #1
878006fc:	f804 3f01 	strb.w	r3, [r4, #1]!
87800700:	b10b      	cbz	r3, 87800706 <strncpy+0x16>
87800702:	4291      	cmp	r1, r2
87800704:	d1f8      	bne.n	878006f8 <strncpy+0x8>
87800706:	f85d 4b04 	ldr.w	r4, [sp], #4
8780070a:	4770      	bx	lr

8780070c <strcat>:
8780070c:	7803      	ldrb	r3, [r0, #0]
8780070e:	b163      	cbz	r3, 8780072a <strcat+0x1e>
87800710:	4603      	mov	r3, r0
87800712:	f813 2f01 	ldrb.w	r2, [r3, #1]!
87800716:	2a00      	cmp	r2, #0
87800718:	d1fb      	bne.n	87800712 <strcat+0x6>
8780071a:	3b01      	subs	r3, #1
8780071c:	f811 2b01 	ldrb.w	r2, [r1], #1
87800720:	f803 2f01 	strb.w	r2, [r3, #1]!
87800724:	2a00      	cmp	r2, #0
87800726:	d1f9      	bne.n	8780071c <strcat+0x10>
87800728:	4770      	bx	lr
8780072a:	4603      	mov	r3, r0
8780072c:	e7f5      	b.n	8780071a <strcat+0xe>
8780072e:	bf00      	nop

87800730 <strncat>:
87800730:	b1ba      	cbz	r2, 87800762 <strncat+0x32>
87800732:	7803      	ldrb	r3, [r0, #0]
87800734:	b430      	push	{r4, r5}
87800736:	b1bb      	cbz	r3, 87800768 <strncat+0x38>
87800738:	4603      	mov	r3, r0
8780073a:	f813 4f01 	ldrb.w	r4, [r3, #1]!
8780073e:	2c00      	cmp	r4, #0
87800740:	d1fb      	bne.n	8780073a <strncat+0xa>
87800742:	f811 4b01 	ldrb.w	r4, [r1], #1
87800746:	461d      	mov	r5, r3
87800748:	f803 4b01 	strb.w	r4, [r3], #1
8780074c:	b144      	cbz	r4, 87800760 <strncat+0x30>
8780074e:	3a01      	subs	r2, #1
87800750:	d008      	beq.n	87800764 <strncat+0x34>
87800752:	f811 4b01 	ldrb.w	r4, [r1], #1
87800756:	461d      	mov	r5, r3
87800758:	f803 4b01 	strb.w	r4, [r3], #1
8780075c:	2c00      	cmp	r4, #0
8780075e:	d1f6      	bne.n	8780074e <strncat+0x1e>
87800760:	bc30      	pop	{r4, r5}
87800762:	4770      	bx	lr
87800764:	706a      	strb	r2, [r5, #1]
87800766:	e7fb      	b.n	87800760 <strncat+0x30>
87800768:	4603      	mov	r3, r0
8780076a:	e7f2      	b.n	87800752 <strncat+0x22>

8780076c <strcmp>:
8780076c:	1e42      	subs	r2, r0, #1
8780076e:	e000      	b.n	87800772 <strcmp+0x6>
87800770:	b148      	cbz	r0, 87800786 <strcmp+0x1a>
87800772:	f812 0f01 	ldrb.w	r0, [r2, #1]!
87800776:	f811 3b01 	ldrb.w	r3, [r1], #1
8780077a:	1ac3      	subs	r3, r0, r3
8780077c:	f013 03ff 	ands.w	r3, r3, #255	; 0xff
87800780:	d0f6      	beq.n	87800770 <strcmp+0x4>
87800782:	b258      	sxtb	r0, r3
87800784:	4770      	bx	lr
87800786:	4770      	bx	lr

87800788 <strncmp>:
87800788:	b302      	cbz	r2, 878007cc <strncmp+0x44>
8780078a:	b470      	push	{r4, r5, r6}
8780078c:	1c4d      	adds	r5, r1, #1
8780078e:	7803      	ldrb	r3, [r0, #0]
87800790:	780e      	ldrb	r6, [r1, #0]
87800792:	1b9e      	subs	r6, r3, r6
87800794:	f016 06ff 	ands.w	r6, r6, #255	; 0xff
87800798:	bf18      	it	ne
8780079a:	b270      	sxtbne	r0, r6
8780079c:	d10e      	bne.n	878007bc <strncmp+0x34>
8780079e:	b1bb      	cbz	r3, 878007d0 <strncmp+0x48>
878007a0:	440a      	add	r2, r1
878007a2:	e008      	b.n	878007b6 <strncmp+0x2e>
878007a4:	f810 4f01 	ldrb.w	r4, [r0, #1]!
878007a8:	f815 3b01 	ldrb.w	r3, [r5], #1
878007ac:	1ae3      	subs	r3, r4, r3
878007ae:	f013 03ff 	ands.w	r3, r3, #255	; 0xff
878007b2:	d105      	bne.n	878007c0 <strncmp+0x38>
878007b4:	b13c      	cbz	r4, 878007c6 <strncmp+0x3e>
878007b6:	4295      	cmp	r5, r2
878007b8:	d1f4      	bne.n	878007a4 <strncmp+0x1c>
878007ba:	2000      	movs	r0, #0
878007bc:	bc70      	pop	{r4, r5, r6}
878007be:	4770      	bx	lr
878007c0:	b258      	sxtb	r0, r3
878007c2:	bc70      	pop	{r4, r5, r6}
878007c4:	4770      	bx	lr
878007c6:	4620      	mov	r0, r4
878007c8:	bc70      	pop	{r4, r5, r6}
878007ca:	4770      	bx	lr
878007cc:	4610      	mov	r0, r2
878007ce:	4770      	bx	lr
878007d0:	4618      	mov	r0, r3
878007d2:	e7f3      	b.n	878007bc <strncmp+0x34>

878007d4 <strchr>:
878007d4:	7803      	ldrb	r3, [r0, #0]
878007d6:	b2c9      	uxtb	r1, r1
878007d8:	428b      	cmp	r3, r1
878007da:	d006      	beq.n	878007ea <strchr+0x16>
878007dc:	b123      	cbz	r3, 878007e8 <strchr+0x14>
878007de:	f810 3f01 	ldrb.w	r3, [r0, #1]!
878007e2:	428b      	cmp	r3, r1
878007e4:	d1fa      	bne.n	878007dc <strchr+0x8>
878007e6:	4770      	bx	lr
878007e8:	4618      	mov	r0, r3
878007ea:	4770      	bx	lr

878007ec <strrchr>:
878007ec:	7803      	ldrb	r3, [r0, #0]
878007ee:	b18b      	cbz	r3, 87800814 <strrchr+0x28>
878007f0:	4603      	mov	r3, r0
878007f2:	f813 2f01 	ldrb.w	r2, [r3, #1]!
878007f6:	2a00      	cmp	r2, #0
878007f8:	d1fb      	bne.n	878007f2 <strrchr+0x6>
878007fa:	b2c9      	uxtb	r1, r1
878007fc:	2200      	movs	r2, #0
878007fe:	e003      	b.n	87800808 <strrchr+0x1c>
87800800:	3b01      	subs	r3, #1
87800802:	4298      	cmp	r0, r3
87800804:	d804      	bhi.n	87800810 <strrchr+0x24>
87800806:	781a      	ldrb	r2, [r3, #0]
87800808:	428a      	cmp	r2, r1
8780080a:	d1f9      	bne.n	87800800 <strrchr+0x14>
8780080c:	4618      	mov	r0, r3
8780080e:	4770      	bx	lr
87800810:	2000      	movs	r0, #0
87800812:	4770      	bx	lr
87800814:	4603      	mov	r3, r0
87800816:	e7f0      	b.n	878007fa <strrchr+0xe>

87800818 <strlen>:
87800818:	7802      	ldrb	r2, [r0, #0]
8780081a:	b132      	cbz	r2, 8780082a <strlen+0x12>
8780081c:	4603      	mov	r3, r0
8780081e:	f813 1f01 	ldrb.w	r1, [r3, #1]!
87800822:	2900      	cmp	r1, #0
87800824:	d1fb      	bne.n	8780081e <strlen+0x6>
87800826:	1a18      	subs	r0, r3, r0
87800828:	4770      	bx	lr
8780082a:	4610      	mov	r0, r2
8780082c:	4770      	bx	lr
8780082e:	bf00      	nop

87800830 <strnlen>:
87800830:	b199      	cbz	r1, 8780085a <strnlen+0x2a>
87800832:	7803      	ldrb	r3, [r0, #0]
87800834:	b19b      	cbz	r3, 8780085e <strnlen+0x2e>
87800836:	b410      	push	{r4}
87800838:	4401      	add	r1, r0
8780083a:	1c43      	adds	r3, r0, #1
8780083c:	e002      	b.n	87800844 <strnlen+0x14>
8780083e:	781c      	ldrb	r4, [r3, #0]
87800840:	3301      	adds	r3, #1
87800842:	b134      	cbz	r4, 87800852 <strnlen+0x22>
87800844:	428b      	cmp	r3, r1
87800846:	461a      	mov	r2, r3
87800848:	d1f9      	bne.n	8780083e <strnlen+0xe>
8780084a:	1a18      	subs	r0, r3, r0
8780084c:	f85d 4b04 	ldr.w	r4, [sp], #4
87800850:	4770      	bx	lr
87800852:	1a10      	subs	r0, r2, r0
87800854:	f85d 4b04 	ldr.w	r4, [sp], #4
87800858:	4770      	bx	lr
8780085a:	4608      	mov	r0, r1
8780085c:	4770      	bx	lr
8780085e:	4618      	mov	r0, r3
87800860:	4770      	bx	lr
87800862:	bf00      	nop

87800864 <strspn>:
87800864:	b470      	push	{r4, r5, r6}
87800866:	4605      	mov	r5, r0
87800868:	7804      	ldrb	r4, [r0, #0]
8780086a:	b1ac      	cbz	r4, 87800898 <strspn+0x34>
8780086c:	780e      	ldrb	r6, [r1, #0]
8780086e:	2000      	movs	r0, #0
87800870:	b14e      	cbz	r6, 87800886 <strspn+0x22>
87800872:	42a6      	cmp	r6, r4
87800874:	d009      	beq.n	8780088a <strspn+0x26>
87800876:	460a      	mov	r2, r1
87800878:	e001      	b.n	8780087e <strspn+0x1a>
8780087a:	429c      	cmp	r4, r3
8780087c:	d005      	beq.n	8780088a <strspn+0x26>
8780087e:	f812 3f01 	ldrb.w	r3, [r2, #1]!
87800882:	2b00      	cmp	r3, #0
87800884:	d1f9      	bne.n	8780087a <strspn+0x16>
87800886:	bc70      	pop	{r4, r5, r6}
87800888:	4770      	bx	lr
8780088a:	f815 4f01 	ldrb.w	r4, [r5, #1]!
8780088e:	3001      	adds	r0, #1
87800890:	2c00      	cmp	r4, #0
87800892:	d1ed      	bne.n	87800870 <strspn+0xc>
87800894:	bc70      	pop	{r4, r5, r6}
87800896:	4770      	bx	lr
87800898:	4620      	mov	r0, r4
8780089a:	e7f4      	b.n	87800886 <strspn+0x22>

8780089c <strpbrk>:
8780089c:	b430      	push	{r4, r5}
8780089e:	7804      	ldrb	r4, [r0, #0]
878008a0:	b17c      	cbz	r4, 878008c2 <strpbrk+0x26>
878008a2:	780d      	ldrb	r5, [r1, #0]
878008a4:	b14d      	cbz	r5, 878008ba <strpbrk+0x1e>
878008a6:	42a5      	cmp	r5, r4
878008a8:	d00c      	beq.n	878008c4 <strpbrk+0x28>
878008aa:	460a      	mov	r2, r1
878008ac:	e001      	b.n	878008b2 <strpbrk+0x16>
878008ae:	429c      	cmp	r4, r3
878008b0:	d008      	beq.n	878008c4 <strpbrk+0x28>
878008b2:	f812 3f01 	ldrb.w	r3, [r2, #1]!
878008b6:	2b00      	cmp	r3, #0
878008b8:	d1f9      	bne.n	878008ae <strpbrk+0x12>
878008ba:	f810 4f01 	ldrb.w	r4, [r0, #1]!
878008be:	2c00      	cmp	r4, #0
878008c0:	d1f0      	bne.n	878008a4 <strpbrk+0x8>
878008c2:	4620      	mov	r0, r4
878008c4:	bc30      	pop	{r4, r5}
878008c6:	4770      	bx	lr

878008c8 <strtok>:
878008c8:	b5f0      	push	{r4, r5, r6, r7, lr}
878008ca:	f244 1eb8 	movw	lr, #16824	; 0x41b8
878008ce:	f2c8 7e82 	movt	lr, #34690	; 0x8782
878008d2:	2800      	cmp	r0, #0
878008d4:	d03e      	beq.n	87800954 <strtok+0x8c>
878008d6:	7804      	ldrb	r4, [r0, #0]
878008d8:	2c00      	cmp	r4, #0
878008da:	d037      	beq.n	8780094c <strtok+0x84>
878008dc:	780d      	ldrb	r5, [r1, #0]
878008de:	4607      	mov	r7, r0
878008e0:	2600      	movs	r6, #0
878008e2:	b14d      	cbz	r5, 878008f8 <strtok+0x30>
878008e4:	42a5      	cmp	r5, r4
878008e6:	d01e      	beq.n	87800926 <strtok+0x5e>
878008e8:	460a      	mov	r2, r1
878008ea:	e001      	b.n	878008f0 <strtok+0x28>
878008ec:	429c      	cmp	r4, r3
878008ee:	d01a      	beq.n	87800926 <strtok+0x5e>
878008f0:	f812 3f01 	ldrb.w	r3, [r2, #1]!
878008f4:	2b00      	cmp	r3, #0
878008f6:	d1f9      	bne.n	878008ec <strtok+0x24>
878008f8:	5d84      	ldrb	r4, [r0, r6]
878008fa:	4430      	add	r0, r6
878008fc:	4606      	mov	r6, r0
878008fe:	b32c      	cbz	r4, 8780094c <strtok+0x84>
87800900:	b14d      	cbz	r5, 87800916 <strtok+0x4e>
87800902:	42a5      	cmp	r5, r4
87800904:	d01a      	beq.n	8780093c <strtok+0x74>
87800906:	460a      	mov	r2, r1
87800908:	e001      	b.n	8780090e <strtok+0x46>
8780090a:	429c      	cmp	r4, r3
8780090c:	d016      	beq.n	8780093c <strtok+0x74>
8780090e:	f812 3f01 	ldrb.w	r3, [r2, #1]!
87800912:	2b00      	cmp	r3, #0
87800914:	d1f9      	bne.n	8780090a <strtok+0x42>
87800916:	f816 4f01 	ldrb.w	r4, [r6, #1]!
8780091a:	2c00      	cmp	r4, #0
8780091c:	d1f0      	bne.n	87800900 <strtok+0x38>
8780091e:	4626      	mov	r6, r4
87800920:	f8ce 6000 	str.w	r6, [lr]
87800924:	bdf0      	pop	{r4, r5, r6, r7, pc}
87800926:	f817 4f01 	ldrb.w	r4, [r7, #1]!
8780092a:	3601      	adds	r6, #1
8780092c:	2c00      	cmp	r4, #0
8780092e:	d1d8      	bne.n	878008e2 <strtok+0x1a>
87800930:	5d84      	ldrb	r4, [r0, r6]
87800932:	4430      	add	r0, r6
87800934:	4606      	mov	r6, r0
87800936:	2c00      	cmp	r4, #0
87800938:	d1e2      	bne.n	87800900 <strtok+0x38>
8780093a:	e007      	b.n	8780094c <strtok+0x84>
8780093c:	7833      	ldrb	r3, [r6, #0]
8780093e:	4632      	mov	r2, r6
87800940:	2b00      	cmp	r3, #0
87800942:	d0ed      	beq.n	87800920 <strtok+0x58>
87800944:	2300      	movs	r3, #0
87800946:	3601      	adds	r6, #1
87800948:	7013      	strb	r3, [r2, #0]
8780094a:	e7e9      	b.n	87800920 <strtok+0x58>
8780094c:	2000      	movs	r0, #0
8780094e:	f8ce 0000 	str.w	r0, [lr]
87800952:	bdf0      	pop	{r4, r5, r6, r7, pc}
87800954:	f8de 0000 	ldr.w	r0, [lr]
87800958:	2800      	cmp	r0, #0
8780095a:	d1bc      	bne.n	878008d6 <strtok+0xe>
8780095c:	e7e2      	b.n	87800924 <strtok+0x5c>
8780095e:	bf00      	nop

87800960 <strsep>:
87800960:	b4f0      	push	{r4, r5, r6, r7}
87800962:	4607      	mov	r7, r0
87800964:	6800      	ldr	r0, [r0, #0]
87800966:	b198      	cbz	r0, 87800990 <strsep+0x30>
87800968:	7804      	ldrb	r4, [r0, #0]
8780096a:	b184      	cbz	r4, 8780098e <strsep+0x2e>
8780096c:	780e      	ldrb	r6, [r1, #0]
8780096e:	4605      	mov	r5, r0
87800970:	b14e      	cbz	r6, 87800986 <strsep+0x26>
87800972:	42a6      	cmp	r6, r4
87800974:	d00e      	beq.n	87800994 <strsep+0x34>
87800976:	460a      	mov	r2, r1
87800978:	e001      	b.n	8780097e <strsep+0x1e>
8780097a:	429c      	cmp	r4, r3
8780097c:	d00a      	beq.n	87800994 <strsep+0x34>
8780097e:	f812 3f01 	ldrb.w	r3, [r2, #1]!
87800982:	2b00      	cmp	r3, #0
87800984:	d1f9      	bne.n	8780097a <strsep+0x1a>
87800986:	f815 4f01 	ldrb.w	r4, [r5, #1]!
8780098a:	2c00      	cmp	r4, #0
8780098c:	d1f0      	bne.n	87800970 <strsep+0x10>
8780098e:	603c      	str	r4, [r7, #0]
87800990:	bcf0      	pop	{r4, r5, r6, r7}
87800992:	4770      	bx	lr
87800994:	2300      	movs	r3, #0
87800996:	1c6c      	adds	r4, r5, #1
87800998:	702b      	strb	r3, [r5, #0]
8780099a:	e7f8      	b.n	8780098e <strsep+0x2e>

8780099c <memset>:
8780099c:	b132      	cbz	r2, 878009ac <memset+0x10>
8780099e:	b2c9      	uxtb	r1, r1
878009a0:	4402      	add	r2, r0
878009a2:	4603      	mov	r3, r0
878009a4:	f803 1b01 	strb.w	r1, [r3], #1
878009a8:	4293      	cmp	r3, r2
878009aa:	d1fb      	bne.n	878009a4 <memset+0x8>
878009ac:	4770      	bx	lr
878009ae:	bf00      	nop

878009b0 <bcopy>:
878009b0:	b13a      	cbz	r2, 878009c2 <bcopy+0x12>
878009b2:	3901      	subs	r1, #1
878009b4:	4402      	add	r2, r0
878009b6:	f810 3b01 	ldrb.w	r3, [r0], #1
878009ba:	4290      	cmp	r0, r2
878009bc:	f801 3f01 	strb.w	r3, [r1, #1]!
878009c0:	d1f9      	bne.n	878009b6 <bcopy+0x6>
878009c2:	4770      	bx	lr

878009c4 <memcpy>:
878009c4:	b152      	cbz	r2, 878009dc <memcpy+0x18>
878009c6:	440a      	add	r2, r1
878009c8:	1e43      	subs	r3, r0, #1
878009ca:	b410      	push	{r4}
878009cc:	f811 4b01 	ldrb.w	r4, [r1], #1
878009d0:	4291      	cmp	r1, r2
878009d2:	f803 4f01 	strb.w	r4, [r3, #1]!
878009d6:	d1f9      	bne.n	878009cc <memcpy+0x8>
878009d8:	f85d 4b04 	ldr.w	r4, [sp], #4
878009dc:	4770      	bx	lr
878009de:	bf00      	nop

878009e0 <memmove>:
878009e0:	4288      	cmp	r0, r1
878009e2:	b410      	push	{r4}
878009e4:	d80b      	bhi.n	878009fe <memmove+0x1e>
878009e6:	b13a      	cbz	r2, 878009f8 <memmove+0x18>
878009e8:	440a      	add	r2, r1
878009ea:	1e43      	subs	r3, r0, #1
878009ec:	f811 4b01 	ldrb.w	r4, [r1], #1
878009f0:	4291      	cmp	r1, r2
878009f2:	f803 4f01 	strb.w	r4, [r3, #1]!
878009f6:	d1f9      	bne.n	878009ec <memmove+0xc>
878009f8:	f85d 4b04 	ldr.w	r4, [sp], #4
878009fc:	4770      	bx	lr
878009fe:	4411      	add	r1, r2
87800a00:	1883      	adds	r3, r0, r2
87800a02:	2a00      	cmp	r2, #0
87800a04:	d0f8      	beq.n	878009f8 <memmove+0x18>
87800a06:	1a8a      	subs	r2, r1, r2
87800a08:	f811 4d01 	ldrb.w	r4, [r1, #-1]!
87800a0c:	4291      	cmp	r1, r2
87800a0e:	f803 4d01 	strb.w	r4, [r3, #-1]!
87800a12:	d1f9      	bne.n	87800a08 <memmove+0x28>
87800a14:	f85d 4b04 	ldr.w	r4, [sp], #4
87800a18:	4770      	bx	lr
87800a1a:	bf00      	nop

87800a1c <memcmp>:
87800a1c:	b1aa      	cbz	r2, 87800a4a <memcmp+0x2e>
87800a1e:	b430      	push	{r4, r5}
87800a20:	4604      	mov	r4, r0
87800a22:	7803      	ldrb	r3, [r0, #0]
87800a24:	7808      	ldrb	r0, [r1, #0]
87800a26:	1a18      	subs	r0, r3, r0
87800a28:	d10a      	bne.n	87800a40 <memcmp+0x24>
87800a2a:	4422      	add	r2, r4
87800a2c:	3401      	adds	r4, #1
87800a2e:	e005      	b.n	87800a3c <memcmp+0x20>
87800a30:	f814 3b01 	ldrb.w	r3, [r4], #1
87800a34:	f811 5f01 	ldrb.w	r5, [r1, #1]!
87800a38:	1b5b      	subs	r3, r3, r5
87800a3a:	d103      	bne.n	87800a44 <memcmp+0x28>
87800a3c:	4294      	cmp	r4, r2
87800a3e:	d1f7      	bne.n	87800a30 <memcmp+0x14>
87800a40:	bc30      	pop	{r4, r5}
87800a42:	4770      	bx	lr
87800a44:	4618      	mov	r0, r3
87800a46:	bc30      	pop	{r4, r5}
87800a48:	4770      	bx	lr
87800a4a:	4610      	mov	r0, r2
87800a4c:	4770      	bx	lr
87800a4e:	bf00      	nop

87800a50 <memscan>:
87800a50:	b182      	cbz	r2, 87800a74 <memscan+0x24>
87800a52:	7803      	ldrb	r3, [r0, #0]
87800a54:	428b      	cmp	r3, r1
87800a56:	d00d      	beq.n	87800a74 <memscan+0x24>
87800a58:	b410      	push	{r4}
87800a5a:	4402      	add	r2, r0
87800a5c:	1c43      	adds	r3, r0, #1
87800a5e:	e002      	b.n	87800a66 <memscan+0x16>
87800a60:	7804      	ldrb	r4, [r0, #0]
87800a62:	428c      	cmp	r4, r1
87800a64:	d004      	beq.n	87800a70 <memscan+0x20>
87800a66:	4293      	cmp	r3, r2
87800a68:	4618      	mov	r0, r3
87800a6a:	f103 0301 	add.w	r3, r3, #1
87800a6e:	d1f7      	bne.n	87800a60 <memscan+0x10>
87800a70:	f85d 4b04 	ldr.w	r4, [sp], #4
87800a74:	4770      	bx	lr
87800a76:	bf00      	nop

87800a78 <strstr>:
87800a78:	b5f0      	push	{r4, r5, r6, r7, lr}
87800a7a:	468e      	mov	lr, r1
87800a7c:	f891 c000 	ldrb.w	ip, [r1]
87800a80:	f1bc 0f00 	cmp.w	ip, #0
87800a84:	d028      	beq.n	87800ad8 <strstr+0x60>
87800a86:	460e      	mov	r6, r1
87800a88:	f816 3f01 	ldrb.w	r3, [r6, #1]!
87800a8c:	2b00      	cmp	r3, #0
87800a8e:	d1fb      	bne.n	87800a88 <strstr+0x10>
87800a90:	ebb6 010e 	subs.w	r1, r6, lr
87800a94:	d020      	beq.n	87800ad8 <strstr+0x60>
87800a96:	7807      	ldrb	r7, [r0, #0]
87800a98:	b12f      	cbz	r7, 87800aa6 <strstr+0x2e>
87800a9a:	4607      	mov	r7, r0
87800a9c:	f817 3f01 	ldrb.w	r3, [r7, #1]!
87800aa0:	2b00      	cmp	r3, #0
87800aa2:	d1fb      	bne.n	87800a9c <strstr+0x24>
87800aa4:	1a3f      	subs	r7, r7, r0
87800aa6:	42b9      	cmp	r1, r7
87800aa8:	dc15      	bgt.n	87800ad6 <strstr+0x5e>
87800aaa:	3f01      	subs	r7, #1
87800aac:	b1a1      	cbz	r1, 87800ad8 <strstr+0x60>
87800aae:	7803      	ldrb	r3, [r0, #0]
87800ab0:	4563      	cmp	r3, ip
87800ab2:	d10c      	bne.n	87800ace <strstr+0x56>
87800ab4:	4602      	mov	r2, r0
87800ab6:	f10e 0301 	add.w	r3, lr, #1
87800aba:	e005      	b.n	87800ac8 <strstr+0x50>
87800abc:	f813 4b01 	ldrb.w	r4, [r3], #1
87800ac0:	f812 5f01 	ldrb.w	r5, [r2, #1]!
87800ac4:	42a5      	cmp	r5, r4
87800ac6:	d102      	bne.n	87800ace <strstr+0x56>
87800ac8:	42b3      	cmp	r3, r6
87800aca:	d1f7      	bne.n	87800abc <strstr+0x44>
87800acc:	bdf0      	pop	{r4, r5, r6, r7, pc}
87800ace:	428f      	cmp	r7, r1
87800ad0:	f100 0001 	add.w	r0, r0, #1
87800ad4:	dae9      	bge.n	87800aaa <strstr+0x32>
87800ad6:	2000      	movs	r0, #0
87800ad8:	bdf0      	pop	{r4, r5, r6, r7, pc}
87800ada:	bf00      	nop

87800adc <memchr>:
87800adc:	b410      	push	{r4}
87800ade:	b2c9      	uxtb	r1, r1
87800ae0:	4402      	add	r2, r0
87800ae2:	e004      	b.n	87800aee <memchr+0x12>
87800ae4:	f813 4b01 	ldrb.w	r4, [r3], #1
87800ae8:	428c      	cmp	r4, r1
87800aea:	d004      	beq.n	87800af6 <memchr+0x1a>
87800aec:	4618      	mov	r0, r3
87800aee:	4290      	cmp	r0, r2
87800af0:	4603      	mov	r3, r0
87800af2:	d1f7      	bne.n	87800ae4 <memchr+0x8>
87800af4:	2000      	movs	r0, #0
87800af6:	f85d 4b04 	ldr.w	r4, [sp], #4
87800afa:	4770      	bx	lr

87800afc <number>:
87800afc:	e92d 4ff0 	stmdb	sp!, {r4, r5, r6, r7, r8, r9, sl, fp, lr}
87800b00:	b0a7      	sub	sp, #156	; 0x9c
87800b02:	460e      	mov	r6, r1
87800b04:	9930      	ldr	r1, [sp, #192]	; 0xc0
87800b06:	4604      	mov	r4, r0
87800b08:	f8dd 80cc 	ldr.w	r8, [sp, #204]	; 0xcc
87800b0c:	390a      	subs	r1, #10
87800b0e:	bf18      	it	ne
87800b10:	2101      	movne	r1, #1
87800b12:	f008 0520 	and.w	r5, r8, #32
87800b16:	ea01 1058 	and.w	r0, r1, r8, lsr #5
87800b1a:	b2ed      	uxtb	r5, r5
87800b1c:	9000      	str	r0, [sp, #0]
87800b1e:	f018 0010 	ands.w	r0, r8, #16
87800b22:	bf18      	it	ne
87800b24:	f028 0801 	bicne.w	r8, r8, #1
87800b28:	9006      	str	r0, [sp, #24]
87800b2a:	f018 0002 	ands.w	r0, r8, #2
87800b2e:	d011      	beq.n	87800b54 <number+0x58>
87800b30:	2a00      	cmp	r2, #0
87800b32:	f173 0000 	sbcs.w	r0, r3, #0
87800b36:	f2c0 80e6 	blt.w	87800d06 <number+0x20a>
87800b3a:	f018 0f04 	tst.w	r8, #4
87800b3e:	f040 80c7 	bne.w	87800cd0 <number+0x1d4>
87800b42:	f018 0008 	ands.w	r0, r8, #8
87800b46:	d005      	beq.n	87800b54 <number+0x58>
87800b48:	9831      	ldr	r0, [sp, #196]	; 0xc4
87800b4a:	3801      	subs	r0, #1
87800b4c:	9031      	str	r0, [sp, #196]	; 0xc4
87800b4e:	2020      	movs	r0, #32
87800b50:	9001      	str	r0, [sp, #4]
87800b52:	e000      	b.n	87800b56 <number+0x5a>
87800b54:	9001      	str	r0, [sp, #4]
87800b56:	9800      	ldr	r0, [sp, #0]
87800b58:	b130      	cbz	r0, 87800b68 <number+0x6c>
87800b5a:	9830      	ldr	r0, [sp, #192]	; 0xc0
87800b5c:	2810      	cmp	r0, #16
87800b5e:	f000 80c6 	beq.w	87800cee <number+0x1f2>
87800b62:	9831      	ldr	r0, [sp, #196]	; 0xc4
87800b64:	3801      	subs	r0, #1
87800b66:	9031      	str	r0, [sp, #196]	; 0xc4
87800b68:	ea52 0003 	orrs.w	r0, r2, r3
87800b6c:	d17c      	bne.n	87800c68 <number+0x16c>
87800b6e:	2200      	movs	r2, #0
87800b70:	2701      	movs	r7, #1
87800b72:	2330      	movs	r3, #48	; 0x30
87800b74:	f88d 3034 	strb.w	r3, [sp, #52]	; 0x34
87800b78:	9b32      	ldr	r3, [sp, #200]	; 0xc8
87800b7a:	9931      	ldr	r1, [sp, #196]	; 0xc4
87800b7c:	42bb      	cmp	r3, r7
87800b7e:	bfb8      	it	lt
87800b80:	463b      	movlt	r3, r7
87800b82:	f018 0f11 	tst.w	r8, #17
87800b86:	eba1 0003 	sub.w	r0, r1, r3
87800b8a:	d110      	bne.n	87800bae <number+0xb2>
87800b8c:	f1b0 0c01 	subs.w	ip, r0, #1
87800b90:	f100 81d0 	bmi.w	87800f34 <number+0x438>
87800b94:	1821      	adds	r1, r4, r0
87800b96:	f04f 0e20 	mov.w	lr, #32
87800b9a:	42a6      	cmp	r6, r4
87800b9c:	f104 0401 	add.w	r4, r4, #1
87800ba0:	bf88      	it	hi
87800ba2:	f804 ec01 	strbhi.w	lr, [r4, #-1]
87800ba6:	428c      	cmp	r4, r1
87800ba8:	d1f7      	bne.n	87800b9a <number+0x9e>
87800baa:	ebc0 000c 	rsb	r0, r0, ip
87800bae:	9901      	ldr	r1, [sp, #4]
87800bb0:	b139      	cbz	r1, 87800bc2 <number+0xc6>
87800bb2:	42b4      	cmp	r4, r6
87800bb4:	f104 0401 	add.w	r4, r4, #1
87800bb8:	bf3c      	itt	cc
87800bba:	f89d 1004 	ldrbcc.w	r1, [sp, #4]
87800bbe:	f804 1c01 	strbcc.w	r1, [r4, #-1]
87800bc2:	9900      	ldr	r1, [sp, #0]
87800bc4:	b151      	cbz	r1, 87800bdc <number+0xe0>
87800bc6:	42b4      	cmp	r4, r6
87800bc8:	f104 0e01 	add.w	lr, r4, #1
87800bcc:	bf3c      	itt	cc
87800bce:	2130      	movcc	r1, #48	; 0x30
87800bd0:	7021      	strbcc	r1, [r4, #0]
87800bd2:	9930      	ldr	r1, [sp, #192]	; 0xc0
87800bd4:	2910      	cmp	r1, #16
87800bd6:	bf18      	it	ne
87800bd8:	4674      	movne	r4, lr
87800bda:	d07f      	beq.n	87800cdc <number+0x1e0>
87800bdc:	9906      	ldr	r1, [sp, #24]
87800bde:	b991      	cbnz	r1, 87800c06 <number+0x10a>
87800be0:	f018 0f01 	tst.w	r8, #1
87800be4:	bf14      	ite	ne
87800be6:	2130      	movne	r1, #48	; 0x30
87800be8:	2120      	moveq	r1, #32
87800bea:	1e45      	subs	r5, r0, #1
87800bec:	f100 81a4 	bmi.w	87800f38 <number+0x43c>
87800bf0:	4420      	add	r0, r4
87800bf2:	42a6      	cmp	r6, r4
87800bf4:	f104 0401 	add.w	r4, r4, #1
87800bf8:	bf88      	it	hi
87800bfa:	f804 1c01 	strbhi.w	r1, [r4, #-1]
87800bfe:	4284      	cmp	r4, r0
87800c00:	d1f7      	bne.n	87800bf2 <number+0xf6>
87800c02:	f04f 30ff 	mov.w	r0, #4294967295	; 0xffffffff
87800c06:	429f      	cmp	r7, r3
87800c08:	f280 8122 	bge.w	87800e50 <number+0x354>
87800c0c:	1bdb      	subs	r3, r3, r7
87800c0e:	2130      	movs	r1, #48	; 0x30
87800c10:	4423      	add	r3, r4
87800c12:	42a6      	cmp	r6, r4
87800c14:	f104 0401 	add.w	r4, r4, #1
87800c18:	bf88      	it	hi
87800c1a:	f804 1c01 	strbhi.w	r1, [r4, #-1]
87800c1e:	429c      	cmp	r4, r3
87800c20:	d1f7      	bne.n	87800c12 <number+0x116>
87800c22:	2a00      	cmp	r2, #0
87800c24:	f2c0 8110 	blt.w	87800e48 <number+0x34c>
87800c28:	1c51      	adds	r1, r2, #1
87800c2a:	ac0d      	add	r4, sp, #52	; 0x34
87800c2c:	4422      	add	r2, r4
87800c2e:	4419      	add	r1, r3
87800c30:	429e      	cmp	r6, r3
87800c32:	f103 0301 	add.w	r3, r3, #1
87800c36:	bf88      	it	hi
87800c38:	7814      	ldrbhi	r4, [r2, #0]
87800c3a:	f102 32ff 	add.w	r2, r2, #4294967295	; 0xffffffff
87800c3e:	bf88      	it	hi
87800c40:	f803 4c01 	strbhi.w	r4, [r3, #-1]
87800c44:	428b      	cmp	r3, r1
87800c46:	d1f3      	bne.n	87800c30 <number+0x134>
87800c48:	2800      	cmp	r0, #0
87800c4a:	f340 80ff 	ble.w	87800e4c <number+0x350>
87800c4e:	4408      	add	r0, r1
87800c50:	2320      	movs	r3, #32
87800c52:	428e      	cmp	r6, r1
87800c54:	f101 0101 	add.w	r1, r1, #1
87800c58:	bf88      	it	hi
87800c5a:	f801 3c01 	strbhi.w	r3, [r1, #-1]
87800c5e:	4281      	cmp	r1, r0
87800c60:	d1f7      	bne.n	87800c52 <number+0x156>
87800c62:	b027      	add	sp, #156	; 0x9c
87800c64:	e8bd 8ff0 	ldmia.w	sp!, {r4, r5, r6, r7, r8, r9, sl, fp, pc}
87800c68:	2900      	cmp	r1, #0
87800c6a:	d055      	beq.n	87800d18 <number+0x21c>
87800c6c:	9930      	ldr	r1, [sp, #192]	; 0xc0
87800c6e:	2910      	cmp	r1, #16
87800c70:	f101 3eff 	add.w	lr, r1, #4294967295	; 0xffffffff
87800c74:	bf12      	itee	ne
87800c76:	f04f 0903 	movne.w	r9, #3
87800c7a:	f04f 0e0f 	moveq.w	lr, #15
87800c7e:	f04f 0904 	moveq.w	r9, #4
87800c82:	f247 4c4c 	movw	ip, #29772	; 0x744c
87800c86:	f10d 0033 	add.w	r0, sp, #51	; 0x33
87800c8a:	f2c8 7c80 	movt	ip, #34688	; 0x8780
87800c8e:	2700      	movs	r7, #0
87800c90:	b2d1      	uxtb	r1, r2
87800c92:	f1c9 0a20 	rsb	sl, r9, #32
87800c96:	f1b9 0b20 	subs.w	fp, r9, #32
87800c9a:	fa03 fa0a 	lsl.w	sl, r3, sl
87800c9e:	ea01 010e 	and.w	r1, r1, lr
87800ca2:	fa22 f209 	lsr.w	r2, r2, r9
87800ca6:	f81c 1001 	ldrb.w	r1, [ip, r1]
87800caa:	bf58      	it	pl
87800cac:	fa43 fb0b 	asrpl.w	fp, r3, fp
87800cb0:	ea42 020a 	orr.w	r2, r2, sl
87800cb4:	fa43 f309 	asr.w	r3, r3, r9
87800cb8:	bf58      	it	pl
87800cba:	ea42 020b 	orrpl.w	r2, r2, fp
87800cbe:	4329      	orrs	r1, r5
87800cc0:	3701      	adds	r7, #1
87800cc2:	f800 1f01 	strb.w	r1, [r0, #1]!
87800cc6:	ea52 0103 	orrs.w	r1, r2, r3
87800cca:	d1e1      	bne.n	87800c90 <number+0x194>
87800ccc:	1e7a      	subs	r2, r7, #1
87800cce:	e753      	b.n	87800b78 <number+0x7c>
87800cd0:	9831      	ldr	r0, [sp, #196]	; 0xc4
87800cd2:	3801      	subs	r0, #1
87800cd4:	9031      	str	r0, [sp, #196]	; 0xc4
87800cd6:	202b      	movs	r0, #43	; 0x2b
87800cd8:	9001      	str	r0, [sp, #4]
87800cda:	e73c      	b.n	87800b56 <number+0x5a>
87800cdc:	4576      	cmp	r6, lr
87800cde:	f104 0402 	add.w	r4, r4, #2
87800ce2:	bf84      	itt	hi
87800ce4:	f045 0558 	orrhi.w	r5, r5, #88	; 0x58
87800ce8:	f804 5c01 	strbhi.w	r5, [r4, #-1]
87800cec:	e776      	b.n	87800bdc <number+0xe0>
87800cee:	9931      	ldr	r1, [sp, #196]	; 0xc4
87800cf0:	3902      	subs	r1, #2
87800cf2:	9131      	str	r1, [sp, #196]	; 0xc4
87800cf4:	ea52 0103 	orrs.w	r1, r2, r3
87800cf8:	bf1c      	itt	ne
87800cfa:	f04f 0e0f 	movne.w	lr, #15
87800cfe:	f04f 0904 	movne.w	r9, #4
87800d02:	d1be      	bne.n	87800c82 <number+0x186>
87800d04:	e733      	b.n	87800b6e <number+0x72>
87800d06:	9831      	ldr	r0, [sp, #196]	; 0xc4
87800d08:	4252      	negs	r2, r2
87800d0a:	eb63 0343 	sbc.w	r3, r3, r3, lsl #1
87800d0e:	3801      	subs	r0, #1
87800d10:	9031      	str	r0, [sp, #196]	; 0xc4
87800d12:	202d      	movs	r0, #45	; 0x2d
87800d14:	9001      	str	r0, [sp, #4]
87800d16:	e71e      	b.n	87800b56 <number+0x5a>
87800d18:	4610      	mov	r0, r2
87800d1a:	4619      	mov	r1, r3
87800d1c:	f248 629f 	movw	r2, #34463	; 0x869f
87800d20:	2300      	movs	r3, #0
87800d22:	f2c0 0201 	movt	r2, #1
87800d26:	428b      	cmp	r3, r1
87800d28:	bf08      	it	eq
87800d2a:	4282      	cmpeq	r2, r0
87800d2c:	e9cd 0104 	strd	r0, r1, [sp, #16]
87800d30:	e9cd 010a 	strd	r0, r1, [sp, #40]	; 0x28
87800d34:	f080 8102 	bcs.w	87800f3c <number+0x440>
87800d38:	f248 61a0 	movw	r1, #34464	; 0x86a0
87800d3c:	f645 20c5 	movw	r0, #23237	; 0x5ac5
87800d40:	f2c0 0101 	movt	r1, #1
87800d44:	f6c0 207c 	movt	r0, #2684	; 0xa7c
87800d48:	9507      	str	r5, [sp, #28]
87800d4a:	f10d 0939 	add.w	r9, sp, #57	; 0x39
87800d4e:	9609      	str	r6, [sp, #36]	; 0x24
87800d50:	4605      	mov	r5, r0
87800d52:	f8cd 80cc 	str.w	r8, [sp, #204]	; 0xcc
87800d56:	4688      	mov	r8, r1
87800d58:	e9cd 2302 	strd	r2, r3, [sp, #8]
87800d5c:	9408      	str	r4, [sp, #32]
87800d5e:	e9dd 6704 	ldrd	r6, r7, [sp, #16]
87800d62:	e05f      	b.n	87800e24 <number+0x328>
87800d64:	09d8      	lsrs	r0, r3, #7
87800d66:	2700      	movs	r7, #0
87800d68:	4603      	mov	r3, r0
87800d6a:	fb08 6010 	mls	r0, r8, r0, r6
87800d6e:	461e      	mov	r6, r3
87800d70:	e9cd 670a 	strd	r6, r7, [sp, #40]	; 0x28
87800d74:	f3c0 1a03 	ubfx	sl, r0, #4, #4
87800d78:	f3c0 2303 	ubfx	r3, r0, #8, #4
87800d7c:	0b02      	lsrs	r2, r0, #12
87800d7e:	eb0a 0103 	add.w	r1, sl, r3
87800d82:	f000 0e0f 	and.w	lr, r0, #15
87800d86:	eb03 0c83 	add.w	ip, r3, r3, lsl #2
87800d8a:	4411      	add	r1, r2
87800d8c:	eb02 00c2 	add.w	r0, r2, r2, lsl #3
87800d90:	00cc      	lsls	r4, r1, #3
87800d92:	46cb      	mov	fp, r9
87800d94:	4450      	add	r0, sl
87800d96:	eba4 0141 	sub.w	r1, r4, r1, lsl #1
87800d9a:	24cd      	movs	r4, #205	; 0xcd
87800d9c:	4460      	add	r0, ip
87800d9e:	4471      	add	r1, lr
87800da0:	f109 0905 	add.w	r9, r9, #5
87800da4:	fb04 fa01 	mul.w	sl, r4, r1
87800da8:	ea4f 2ada 	mov.w	sl, sl, lsr #11
87800dac:	4450      	add	r0, sl
87800dae:	ea4f 0eca 	mov.w	lr, sl, lsl #3
87800db2:	fb04 fc00 	mul.w	ip, r4, r0
87800db6:	eb0e 0e4a 	add.w	lr, lr, sl, lsl #1
87800dba:	ebce 0101 	rsb	r1, lr, r1
87800dbe:	ea4f 2cdc 	mov.w	ip, ip, lsr #11
87800dc2:	3130      	adds	r1, #48	; 0x30
87800dc4:	f809 1c0a 	strb.w	r1, [r9, #-10]
87800dc8:	eb0c 0343 	add.w	r3, ip, r3, lsl #1
87800dcc:	ea4f 0ecc 	mov.w	lr, ip, lsl #3
87800dd0:	0119      	lsls	r1, r3, #4
87800dd2:	eb0e 0c4c 	add.w	ip, lr, ip, lsl #1
87800dd6:	eba1 0183 	sub.w	r1, r1, r3, lsl #2
87800dda:	ebcc 0c00 	rsb	ip, ip, r0
87800dde:	f10c 0030 	add.w	r0, ip, #48	; 0x30
87800de2:	4419      	add	r1, r3
87800de4:	f809 0c09 	strb.w	r0, [r9, #-9]
87800de8:	09c9      	lsrs	r1, r1, #7
87800dea:	eb01 0282 	add.w	r2, r1, r2, lsl #2
87800dee:	00c8      	lsls	r0, r1, #3
87800df0:	fb04 f402 	mul.w	r4, r4, r2
87800df4:	eb00 0141 	add.w	r1, r0, r1, lsl #1
87800df8:	1a5b      	subs	r3, r3, r1
87800dfa:	3330      	adds	r3, #48	; 0x30
87800dfc:	0ae4      	lsrs	r4, r4, #11
87800dfe:	f809 3c08 	strb.w	r3, [r9, #-8]
87800e02:	00e3      	lsls	r3, r4, #3
87800e04:	f104 0130 	add.w	r1, r4, #48	; 0x30
87800e08:	f809 1c06 	strb.w	r1, [r9, #-6]
87800e0c:	eb03 0444 	add.w	r4, r3, r4, lsl #1
87800e10:	1b12      	subs	r2, r2, r4
87800e12:	e9dd 3402 	ldrd	r3, r4, [sp, #8]
87800e16:	3230      	adds	r2, #48	; 0x30
87800e18:	f809 2c07 	strb.w	r2, [r9, #-7]
87800e1c:	42bc      	cmp	r4, r7
87800e1e:	bf08      	it	eq
87800e20:	42b3      	cmpeq	r3, r6
87800e22:	d217      	bcs.n	87800e54 <number+0x358>
87800e24:	0038      	movs	r0, r7
87800e26:	2100      	movs	r1, #0
87800e28:	0972      	lsrs	r2, r6, #5
87800e2a:	ea50 0301 	orrs.w	r3, r0, r1
87800e2e:	fba2 2305 	umull	r2, r3, r2, r5
87800e32:	d097      	beq.n	87800d64 <number+0x268>
87800e34:	f248 61a0 	movw	r1, #34464	; 0x86a0
87800e38:	a80a      	add	r0, sp, #40	; 0x28
87800e3a:	f2c0 0101 	movt	r1, #1
87800e3e:	f7ff fbc3 	bl	878005c8 <__div64_32>
87800e42:	e9dd 670a 	ldrd	r6, r7, [sp, #40]	; 0x28
87800e46:	e795      	b.n	87800d74 <number+0x278>
87800e48:	4619      	mov	r1, r3
87800e4a:	e6fd      	b.n	87800c48 <number+0x14c>
87800e4c:	4608      	mov	r0, r1
87800e4e:	e708      	b.n	87800c62 <number+0x166>
87800e50:	4623      	mov	r3, r4
87800e52:	e6e6      	b.n	87800c22 <number+0x126>
87800e54:	e9cd 6704 	strd	r6, r7, [sp, #16]
87800e58:	f10d 0e34 	add.w	lr, sp, #52	; 0x34
87800e5c:	9d07      	ldr	r5, [sp, #28]
87800e5e:	9c08      	ldr	r4, [sp, #32]
87800e60:	9e09      	ldr	r6, [sp, #36]	; 0x24
87800e62:	f8dd 80cc 	ldr.w	r8, [sp, #204]	; 0xcc
87800e66:	e9dd 0104 	ldrd	r0, r1, [sp, #16]
87800e6a:	f04f 0acd 	mov.w	sl, #205	; 0xcd
87800e6e:	f3c0 1303 	ubfx	r3, r0, #4, #4
87800e72:	f3c0 2903 	ubfx	r9, r0, #8, #4
87800e76:	ea4f 3c10 	mov.w	ip, r0, lsr #12
87800e7a:	eb03 0209 	add.w	r2, r3, r9
87800e7e:	f000 010f 	and.w	r1, r0, #15
87800e82:	eb09 0789 	add.w	r7, r9, r9, lsl #2
87800e86:	4462      	add	r2, ip
87800e88:	9102      	str	r1, [sp, #8]
87800e8a:	00d1      	lsls	r1, r2, #3
87800e8c:	eb0c 00cc 	add.w	r0, ip, ip, lsl #3
87800e90:	eba1 0142 	sub.w	r1, r1, r2, lsl #1
87800e94:	9a02      	ldr	r2, [sp, #8]
87800e96:	4403      	add	r3, r0
87800e98:	443b      	add	r3, r7
87800e9a:	4411      	add	r1, r2
87800e9c:	fb0a f201 	mul.w	r2, sl, r1
87800ea0:	0ad2      	lsrs	r2, r2, #11
87800ea2:	00d0      	lsls	r0, r2, #3
87800ea4:	eb00 0042 	add.w	r0, r0, r2, lsl #1
87800ea8:	189a      	adds	r2, r3, r2
87800eaa:	bf08      	it	eq
87800eac:	f10b 0701 	addeq.w	r7, fp, #1
87800eb0:	eba1 0100 	sub.w	r1, r1, r0
87800eb4:	f101 0130 	add.w	r1, r1, #48	; 0x30
87800eb8:	f88b 1000 	strb.w	r1, [fp]
87800ebc:	d037      	beq.n	87800f2e <number+0x432>
87800ebe:	fb0a f102 	mul.w	r1, sl, r2
87800ec2:	0ac9      	lsrs	r1, r1, #11
87800ec4:	00c8      	lsls	r0, r1, #3
87800ec6:	eb01 0349 	add.w	r3, r1, r9, lsl #1
87800eca:	eb00 0141 	add.w	r1, r0, r1, lsl #1
87800ece:	1a52      	subs	r2, r2, r1
87800ed0:	3230      	adds	r2, #48	; 0x30
87800ed2:	f88b 2001 	strb.w	r2, [fp, #1]
87800ed6:	ea53 020c 	orrs.w	r2, r3, ip
87800eda:	bf08      	it	eq
87800edc:	f10b 0702 	addeq.w	r7, fp, #2
87800ee0:	d025      	beq.n	87800f2e <number+0x432>
87800ee2:	011a      	lsls	r2, r3, #4
87800ee4:	eba2 0283 	sub.w	r2, r2, r3, lsl #2
87800ee8:	441a      	add	r2, r3
87800eea:	09d2      	lsrs	r2, r2, #7
87800eec:	00d1      	lsls	r1, r2, #3
87800eee:	eb01 0142 	add.w	r1, r1, r2, lsl #1
87800ef2:	eb12 028c 	adds.w	r2, r2, ip, lsl #2
87800ef6:	eba3 0301 	sub.w	r3, r3, r1
87800efa:	bf08      	it	eq
87800efc:	f10b 0703 	addeq.w	r7, fp, #3
87800f00:	f103 0330 	add.w	r3, r3, #48	; 0x30
87800f04:	f88b 3002 	strb.w	r3, [fp, #2]
87800f08:	d011      	beq.n	87800f2e <number+0x432>
87800f0a:	fb0a f302 	mul.w	r3, sl, r2
87800f0e:	f10b 0704 	add.w	r7, fp, #4
87800f12:	0adb      	lsrs	r3, r3, #11
87800f14:	00d9      	lsls	r1, r3, #3
87800f16:	eb01 0143 	add.w	r1, r1, r3, lsl #1
87800f1a:	1a52      	subs	r2, r2, r1
87800f1c:	3230      	adds	r2, #48	; 0x30
87800f1e:	f88b 2003 	strb.w	r2, [fp, #3]
87800f22:	b123      	cbz	r3, 87800f2e <number+0x432>
87800f24:	f10b 0705 	add.w	r7, fp, #5
87800f28:	3330      	adds	r3, #48	; 0x30
87800f2a:	f88b 3004 	strb.w	r3, [fp, #4]
87800f2e:	ebce 0707 	rsb	r7, lr, r7
87800f32:	e6cb      	b.n	87800ccc <number+0x1d0>
87800f34:	4660      	mov	r0, ip
87800f36:	e63a      	b.n	87800bae <number+0xb2>
87800f38:	4628      	mov	r0, r5
87800f3a:	e664      	b.n	87800c06 <number+0x10a>
87800f3c:	f10d 0e34 	add.w	lr, sp, #52	; 0x34
87800f40:	46f3      	mov	fp, lr
87800f42:	e790      	b.n	87800e66 <number+0x36a>

87800f44 <simple_strtoul>:
87800f44:	b5f0      	push	{r4, r5, r6, r7, lr}
87800f46:	4606      	mov	r6, r0
87800f48:	b96a      	cbnz	r2, 87800f66 <simple_strtoul+0x22>
87800f4a:	7804      	ldrb	r4, [r0, #0]
87800f4c:	2c30      	cmp	r4, #48	; 0x30
87800f4e:	d043      	beq.n	87800fd8 <simple_strtoul+0x94>
87800f50:	f64b 47f8 	movw	r7, #48376	; 0xbcf8
87800f54:	4623      	mov	r3, r4
87800f56:	f2c8 7780 	movt	r7, #34688	; 0x8780
87800f5a:	220a      	movs	r2, #10
87800f5c:	f817 e004 	ldrb.w	lr, [r7, r4]
87800f60:	f00e 0544 	and.w	r5, lr, #68	; 0x44
87800f64:	e00b      	b.n	87800f7e <simple_strtoul+0x3a>
87800f66:	2a10      	cmp	r2, #16
87800f68:	d029      	beq.n	87800fbe <simple_strtoul+0x7a>
87800f6a:	7803      	ldrb	r3, [r0, #0]
87800f6c:	f64b 47f8 	movw	r7, #48376	; 0xbcf8
87800f70:	f2c8 7780 	movt	r7, #34688	; 0x8780
87800f74:	f817 e003 	ldrb.w	lr, [r7, r3]
87800f78:	461c      	mov	r4, r3
87800f7a:	f00e 0544 	and.w	r5, lr, #68	; 0x44
87800f7e:	4628      	mov	r0, r5
87800f80:	b1d5      	cbz	r5, 87800fb8 <simple_strtoul+0x74>
87800f82:	2000      	movs	r0, #0
87800f84:	e009      	b.n	87800f9a <simple_strtoul+0x56>
87800f86:	f816 3f01 	ldrb.w	r3, [r6, #1]!
87800f8a:	fb02 4000 	mla	r0, r2, r0, r4
87800f8e:	f817 e003 	ldrb.w	lr, [r7, r3]
87800f92:	461c      	mov	r4, r3
87800f94:	f01e 0f44 	tst.w	lr, #68	; 0x44
87800f98:	d00e      	beq.n	87800fb8 <simple_strtoul+0x74>
87800f9a:	f01e 0f04 	tst.w	lr, #4
87800f9e:	f1a4 0430 	sub.w	r4, r4, #48	; 0x30
87800fa2:	d107      	bne.n	87800fb4 <simple_strtoul+0x70>
87800fa4:	f1a3 0420 	sub.w	r4, r3, #32
87800fa8:	f01e 0f02 	tst.w	lr, #2
87800fac:	bf18      	it	ne
87800fae:	b2e3      	uxtbne	r3, r4
87800fb0:	f1a3 0437 	sub.w	r4, r3, #55	; 0x37
87800fb4:	4294      	cmp	r4, r2
87800fb6:	d3e6      	bcc.n	87800f86 <simple_strtoul+0x42>
87800fb8:	b101      	cbz	r1, 87800fbc <simple_strtoul+0x78>
87800fba:	600e      	str	r6, [r1, #0]
87800fbc:	bdf0      	pop	{r4, r5, r6, r7, pc}
87800fbe:	7804      	ldrb	r4, [r0, #0]
87800fc0:	2c30      	cmp	r4, #48	; 0x30
87800fc2:	d020      	beq.n	87801006 <simple_strtoul+0xc2>
87800fc4:	f64b 47f8 	movw	r7, #48376	; 0xbcf8
87800fc8:	4623      	mov	r3, r4
87800fca:	f2c8 7780 	movt	r7, #34688	; 0x8780
87800fce:	f817 e004 	ldrb.w	lr, [r7, r4]
87800fd2:	f00e 0544 	and.w	r5, lr, #68	; 0x44
87800fd6:	e7d2      	b.n	87800f7e <simple_strtoul+0x3a>
87800fd8:	7843      	ldrb	r3, [r0, #1]
87800fda:	f64b 47f8 	movw	r7, #48376	; 0xbcf8
87800fde:	f2c8 7780 	movt	r7, #34688	; 0x8780
87800fe2:	3001      	adds	r0, #1
87800fe4:	f817 e003 	ldrb.w	lr, [r7, r3]
87800fe8:	461c      	mov	r4, r3
87800fea:	f01e 0f02 	tst.w	lr, #2
87800fee:	bf16      	itet	ne
87800ff0:	f1a3 0220 	subne.w	r2, r3, #32
87800ff4:	461a      	moveq	r2, r3
87800ff6:	b2d2      	uxtbne	r2, r2
87800ff8:	2a58      	cmp	r2, #88	; 0x58
87800ffa:	d01d      	beq.n	87801038 <simple_strtoul+0xf4>
87800ffc:	4606      	mov	r6, r0
87800ffe:	f00e 0544 	and.w	r5, lr, #68	; 0x44
87801002:	2208      	movs	r2, #8
87801004:	e7bb      	b.n	87800f7e <simple_strtoul+0x3a>
87801006:	7843      	ldrb	r3, [r0, #1]
87801008:	f64b 47f8 	movw	r7, #48376	; 0xbcf8
8780100c:	f2c8 7780 	movt	r7, #34688	; 0x8780
87801010:	5cf8      	ldrb	r0, [r7, r3]
87801012:	0780      	lsls	r0, r0, #30
87801014:	bf44      	itt	mi
87801016:	3b20      	submi	r3, #32
87801018:	b2db      	uxtbmi	r3, r3
8780101a:	2b58      	cmp	r3, #88	; 0x58
8780101c:	bf0f      	iteee	eq
8780101e:	78b3      	ldrbeq	r3, [r6, #2]
87801020:	2430      	movne	r4, #48	; 0x30
87801022:	f897 e030 	ldrbne.w	lr, [r7, #48]	; 0x30
87801026:	4623      	movne	r3, r4
87801028:	bf02      	ittt	eq
8780102a:	3602      	addeq	r6, #2
8780102c:	f817 e003 	ldrbeq.w	lr, [r7, r3]
87801030:	461c      	moveq	r4, r3
87801032:	f00e 0544 	and.w	r5, lr, #68	; 0x44
87801036:	e7a2      	b.n	87800f7e <simple_strtoul+0x3a>
87801038:	78b5      	ldrb	r5, [r6, #2]
8780103a:	5d7a      	ldrb	r2, [r7, r5]
8780103c:	f012 0f44 	tst.w	r2, #68	; 0x44
87801040:	d0dc      	beq.n	87800ffc <simple_strtoul+0xb8>
87801042:	4696      	mov	lr, r2
87801044:	462c      	mov	r4, r5
87801046:	3602      	adds	r6, #2
87801048:	462b      	mov	r3, r5
8780104a:	2210      	movs	r2, #16
8780104c:	e799      	b.n	87800f82 <simple_strtoul+0x3e>
8780104e:	bf00      	nop

87801050 <simple_strtol>:
87801050:	b510      	push	{r4, lr}
87801052:	7804      	ldrb	r4, [r0, #0]
87801054:	2c2d      	cmp	r4, #45	; 0x2d
87801056:	d003      	beq.n	87801060 <simple_strtol+0x10>
87801058:	e8bd 4010 	ldmia.w	sp!, {r4, lr}
8780105c:	f7ff bf72 	b.w	87800f44 <simple_strtoul>
87801060:	3001      	adds	r0, #1
87801062:	f7ff ff6f 	bl	87800f44 <simple_strtoul>
87801066:	4240      	negs	r0, r0
87801068:	bd10      	pop	{r4, pc}
8780106a:	bf00      	nop

8780106c <simple_strtoull>:
8780106c:	e92d 4ff0 	stmdb	sp!, {r4, r5, r6, r7, r8, r9, sl, fp, lr}
87801070:	4684      	mov	ip, r0
87801072:	468a      	mov	sl, r1
87801074:	4616      	mov	r6, r2
87801076:	2a00      	cmp	r2, #0
87801078:	d13f      	bne.n	878010fa <simple_strtoull+0x8e>
8780107a:	7802      	ldrb	r2, [r0, #0]
8780107c:	2a30      	cmp	r2, #48	; 0x30
8780107e:	d056      	beq.n	8780112e <simple_strtoull+0xc2>
87801080:	f64b 4bf8 	movw	fp, #48376	; 0xbcf8
87801084:	4613      	mov	r3, r2
87801086:	f2c8 7b80 	movt	fp, #34688	; 0x8780
8780108a:	260a      	movs	r6, #10
8780108c:	f81b e002 	ldrb.w	lr, [fp, r2]
87801090:	f00e 0144 	and.w	r1, lr, #68	; 0x44
87801094:	2900      	cmp	r1, #0
87801096:	d061      	beq.n	8780115c <simple_strtoull+0xf0>
87801098:	2700      	movs	r7, #0
8780109a:	2000      	movs	r0, #0
8780109c:	2100      	movs	r1, #0
8780109e:	e00e      	b.n	878010be <simple_strtoull+0x52>
878010a0:	fb06 3101 	mla	r1, r6, r1, r3
878010a4:	f81c 3f01 	ldrb.w	r3, [ip, #1]!
878010a8:	eb14 0008 	adds.w	r0, r4, r8
878010ac:	f81b e003 	ldrb.w	lr, [fp, r3]
878010b0:	461a      	mov	r2, r3
878010b2:	4489      	add	r9, r1
878010b4:	eb45 0109 	adc.w	r1, r5, r9
878010b8:	f01e 0f44 	tst.w	lr, #68	; 0x44
878010bc:	d016      	beq.n	878010ec <simple_strtoull+0x80>
878010be:	f01e 0f04 	tst.w	lr, #4
878010c2:	f1a2 0430 	sub.w	r4, r2, #48	; 0x30
878010c6:	d108      	bne.n	878010da <simple_strtoull+0x6e>
878010c8:	3b20      	subs	r3, #32
878010ca:	f01e 0f02 	tst.w	lr, #2
878010ce:	b2db      	uxtb	r3, r3
878010d0:	f1a2 0437 	sub.w	r4, r2, #55	; 0x37
878010d4:	bf18      	it	ne
878010d6:	f1a3 0437 	subne.w	r4, r3, #55	; 0x37
878010da:	17e5      	asrs	r5, r4, #31
878010dc:	fb00 f307 	mul.w	r3, r0, r7
878010e0:	42bd      	cmp	r5, r7
878010e2:	fba0 8906 	umull	r8, r9, r0, r6
878010e6:	bf08      	it	eq
878010e8:	42b4      	cmpeq	r4, r6
878010ea:	d3d9      	bcc.n	878010a0 <simple_strtoull+0x34>
878010ec:	f1ba 0f00 	cmp.w	sl, #0
878010f0:	d001      	beq.n	878010f6 <simple_strtoull+0x8a>
878010f2:	f8ca c000 	str.w	ip, [sl]
878010f6:	e8bd 8ff0 	ldmia.w	sp!, {r4, r5, r6, r7, r8, r9, sl, fp, pc}
878010fa:	2a10      	cmp	r2, #16
878010fc:	d00a      	beq.n	87801114 <simple_strtoull+0xa8>
878010fe:	7803      	ldrb	r3, [r0, #0]
87801100:	f64b 4bf8 	movw	fp, #48376	; 0xbcf8
87801104:	f2c8 7b80 	movt	fp, #34688	; 0x8780
87801108:	f81b e003 	ldrb.w	lr, [fp, r3]
8780110c:	461a      	mov	r2, r3
8780110e:	f00e 0144 	and.w	r1, lr, #68	; 0x44
87801112:	e7bf      	b.n	87801094 <simple_strtoull+0x28>
87801114:	7802      	ldrb	r2, [r0, #0]
87801116:	2a30      	cmp	r2, #48	; 0x30
87801118:	d031      	beq.n	8780117e <simple_strtoull+0x112>
8780111a:	f64b 4bf8 	movw	fp, #48376	; 0xbcf8
8780111e:	4613      	mov	r3, r2
87801120:	f2c8 7b80 	movt	fp, #34688	; 0x8780
87801124:	f81b e002 	ldrb.w	lr, [fp, r2]
87801128:	f00e 0144 	and.w	r1, lr, #68	; 0x44
8780112c:	e7b2      	b.n	87801094 <simple_strtoull+0x28>
8780112e:	7843      	ldrb	r3, [r0, #1]
87801130:	f64b 4bf8 	movw	fp, #48376	; 0xbcf8
87801134:	f2c8 7b80 	movt	fp, #34688	; 0x8780
87801138:	3001      	adds	r0, #1
8780113a:	f81b e003 	ldrb.w	lr, [fp, r3]
8780113e:	461a      	mov	r2, r3
87801140:	f01e 0f02 	tst.w	lr, #2
87801144:	bf16      	itet	ne
87801146:	f1a3 0120 	subne.w	r1, r3, #32
8780114a:	4619      	moveq	r1, r3
8780114c:	b2c9      	uxtbne	r1, r1
8780114e:	2958      	cmp	r1, #88	; 0x58
87801150:	d007      	beq.n	87801162 <simple_strtoull+0xf6>
87801152:	4684      	mov	ip, r0
87801154:	f00e 0144 	and.w	r1, lr, #68	; 0x44
87801158:	2608      	movs	r6, #8
8780115a:	e79b      	b.n	87801094 <simple_strtoull+0x28>
8780115c:	2000      	movs	r0, #0
8780115e:	2100      	movs	r1, #0
87801160:	e7c4      	b.n	878010ec <simple_strtoull+0x80>
87801162:	f89c 4002 	ldrb.w	r4, [ip, #2]
87801166:	f81b 1004 	ldrb.w	r1, [fp, r4]
8780116a:	f011 0f44 	tst.w	r1, #68	; 0x44
8780116e:	d0f0      	beq.n	87801152 <simple_strtoull+0xe6>
87801170:	4622      	mov	r2, r4
87801172:	f10c 0c02 	add.w	ip, ip, #2
87801176:	468e      	mov	lr, r1
87801178:	4623      	mov	r3, r4
8780117a:	2610      	movs	r6, #16
8780117c:	e78c      	b.n	87801098 <simple_strtoull+0x2c>
8780117e:	7843      	ldrb	r3, [r0, #1]
87801180:	f64b 4bf8 	movw	fp, #48376	; 0xbcf8
87801184:	f2c8 7b80 	movt	fp, #34688	; 0x8780
87801188:	f81b 2003 	ldrb.w	r2, [fp, r3]
8780118c:	0792      	lsls	r2, r2, #30
8780118e:	bf44      	itt	mi
87801190:	3b20      	submi	r3, #32
87801192:	b2db      	uxtbmi	r3, r3
87801194:	2b58      	cmp	r3, #88	; 0x58
87801196:	bf0f      	iteee	eq
87801198:	7883      	ldrbeq	r3, [r0, #2]
8780119a:	2230      	movne	r2, #48	; 0x30
8780119c:	f89b e030 	ldrbne.w	lr, [fp, #48]	; 0x30
878011a0:	4613      	movne	r3, r2
878011a2:	bf02      	ittt	eq
878011a4:	f100 0c02 	addeq.w	ip, r0, #2
878011a8:	f81b e003 	ldrbeq.w	lr, [fp, r3]
878011ac:	461a      	moveq	r2, r3
878011ae:	f00e 0144 	and.w	r1, lr, #68	; 0x44
878011b2:	e76f      	b.n	87801094 <simple_strtoull+0x28>

878011b4 <simple_strtoll>:
878011b4:	b510      	push	{r4, lr}
878011b6:	7804      	ldrb	r4, [r0, #0]
878011b8:	2c2d      	cmp	r4, #45	; 0x2d
878011ba:	d003      	beq.n	878011c4 <simple_strtoll+0x10>
878011bc:	e8bd 4010 	ldmia.w	sp!, {r4, lr}
878011c0:	f7ff bf54 	b.w	8780106c <simple_strtoull>
878011c4:	3001      	adds	r0, #1
878011c6:	f7ff ff51 	bl	8780106c <simple_strtoull>
878011ca:	4240      	negs	r0, r0
878011cc:	eb61 0141 	sbc.w	r1, r1, r1, lsl #1
878011d0:	bd10      	pop	{r4, pc}
878011d2:	bf00      	nop

878011d4 <vsnprintf>:
878011d4:	e92d 4ff0 	stmdb	sp!, {r4, r5, r6, r7, r8, r9, sl, fp, lr}
878011d8:	f1b1 0a00 	subs.w	sl, r1, #0
878011dc:	b089      	sub	sp, #36	; 0x24
878011de:	f2c0 82fc 	blt.w	878017da <vsnprintf+0x606>
878011e2:	f10a 37ff 	add.w	r7, sl, #4294967295	; 0xffffffff
878011e6:	4699      	mov	r9, r3
878011e8:	4407      	add	r7, r0
878011ea:	1e43      	subs	r3, r0, #1
878011ec:	429f      	cmp	r7, r3
878011ee:	4604      	mov	r4, r0
878011f0:	4616      	mov	r6, r2
878011f2:	7810      	ldrb	r0, [r2, #0]
878011f4:	f0c0 81c4 	bcc.w	87801580 <vsnprintf+0x3ac>
878011f8:	2800      	cmp	r0, #0
878011fa:	f000 82f9 	beq.w	878017f0 <vsnprintf+0x61c>
878011fe:	9405      	str	r4, [sp, #20]
87801200:	f64b 48f8 	movw	r8, #48376	; 0xbcf8
87801204:	f64b 4b1c 	movw	fp, #48156	; 0xbc1c
87801208:	f2c8 7880 	movt	r8, #34688	; 0x8780
8780120c:	f2c8 7b80 	movt	fp, #34688	; 0x8780
87801210:	e008      	b.n	87801224 <vsnprintf+0x50>
87801212:	42a7      	cmp	r7, r4
87801214:	bf28      	it	cs
87801216:	7020      	strbcs	r0, [r4, #0]
87801218:	7870      	ldrb	r0, [r6, #1]
8780121a:	3401      	adds	r4, #1
8780121c:	3601      	adds	r6, #1
8780121e:	2800      	cmp	r0, #0
87801220:	f000 813f 	beq.w	878014a2 <vsnprintf+0x2ce>
87801224:	2825      	cmp	r0, #37	; 0x25
87801226:	bf08      	it	eq
87801228:	2300      	moveq	r3, #0
8780122a:	d1f2      	bne.n	87801212 <vsnprintf+0x3e>
8780122c:	7875      	ldrb	r5, [r6, #1]
8780122e:	1c70      	adds	r0, r6, #1
87801230:	f1a5 0220 	sub.w	r2, r5, #32
87801234:	2a10      	cmp	r2, #16
87801236:	d81e      	bhi.n	87801276 <vsnprintf+0xa2>
87801238:	e8df f002 	tbb	[pc, r2]
8780123c:	151d1d19 	ldrne	r1, [sp, #-3353]	; 0xd19
87801240:	1d1d1d1d 	ldcne	13, cr1, [sp, #-116]	; 0xffffff8c
87801244:	111d1d1d 	tstne	sp, sp, lsl sp
87801248:	1d1d0d1d 	ldcne	13, cr0, [sp, #-116]	; 0xffffff8c
8780124c:	f0430009 			; <UNDEFINED> instruction: 0xf0430009
87801250:	0301      	lsls	r1, r0, #12
87801252:	4606      	mov	r6, r0
87801254:	e7ea      	b.n	8780122c <vsnprintf+0x58>
87801256:	f043 0310 	orr.w	r3, r3, #16
8780125a:	4606      	mov	r6, r0
8780125c:	e7e6      	b.n	8780122c <vsnprintf+0x58>
8780125e:	f043 0304 	orr.w	r3, r3, #4
87801262:	4606      	mov	r6, r0
87801264:	e7e2      	b.n	8780122c <vsnprintf+0x58>
87801266:	f043 0320 	orr.w	r3, r3, #32
8780126a:	4606      	mov	r6, r0
8780126c:	e7de      	b.n	8780122c <vsnprintf+0x58>
8780126e:	f043 0308 	orr.w	r3, r3, #8
87801272:	4606      	mov	r6, r0
87801274:	e7da      	b.n	8780122c <vsnprintf+0x58>
87801276:	f818 2005 	ldrb.w	r2, [r8, r5]
8780127a:	4629      	mov	r1, r5
8780127c:	0752      	lsls	r2, r2, #29
8780127e:	f140 80dc 	bpl.w	8780143a <vsnprintf+0x266>
87801282:	2500      	movs	r5, #0
87801284:	00ea      	lsls	r2, r5, #3
87801286:	eb02 0545 	add.w	r5, r2, r5, lsl #1
8780128a:	440d      	add	r5, r1
8780128c:	f810 1f01 	ldrb.w	r1, [r0, #1]!
87801290:	3d30      	subs	r5, #48	; 0x30
87801292:	f818 2001 	ldrb.w	r2, [r8, r1]
87801296:	0752      	lsls	r2, r2, #29
87801298:	d4f4      	bmi.n	87801284 <vsnprintf+0xb0>
8780129a:	292e      	cmp	r1, #46	; 0x2e
8780129c:	bf18      	it	ne
8780129e:	f04f 3eff 	movne.w	lr, #4294967295	; 0xffffffff
878012a2:	f000 80e2 	beq.w	8780146a <vsnprintf+0x296>
878012a6:	f001 02df 	and.w	r2, r1, #223	; 0xdf
878012aa:	2a5a      	cmp	r2, #90	; 0x5a
878012ac:	bf18      	it	ne
878012ae:	2a4c      	cmpne	r2, #76	; 0x4c
878012b0:	bf0c      	ite	eq
878012b2:	2201      	moveq	r2, #1
878012b4:	2200      	movne	r2, #0
878012b6:	2968      	cmp	r1, #104	; 0x68
878012b8:	bf08      	it	eq
878012ba:	f042 0201 	orreq.w	r2, r2, #1
878012be:	2a00      	cmp	r2, #0
878012c0:	d15b      	bne.n	8780137a <vsnprintf+0x1a6>
878012c2:	f04f 32ff 	mov.w	r2, #4294967295	; 0xffffffff
878012c6:	3925      	subs	r1, #37	; 0x25
878012c8:	2953      	cmp	r1, #83	; 0x53
878012ca:	f200 823c 	bhi.w	87801746 <vsnprintf+0x572>
878012ce:	e8df f011 	tbh	[pc, r1, lsl #1]
878012d2:	023a01ec 	eorseq	r0, sl, #236, 2	; 0x3b
878012d6:	023a023a 	eorseq	r0, sl, #-1610612733	; 0xa0000003
878012da:	023a023a 	eorseq	r0, sl, #-1610612733	; 0xa0000003
878012de:	023a023a 	eorseq	r0, sl, #-1610612733	; 0xa0000003
878012e2:	023a023a 	eorseq	r0, sl, #-1610612733	; 0xa0000003
878012e6:	023a023a 	eorseq	r0, sl, #-1610612733	; 0xa0000003
878012ea:	023a023a 	eorseq	r0, sl, #-1610612733	; 0xa0000003
878012ee:	023a023a 	eorseq	r0, sl, #-1610612733	; 0xa0000003
878012f2:	023a023a 	eorseq	r0, sl, #-1610612733	; 0xa0000003
878012f6:	023a023a 	eorseq	r0, sl, #-1610612733	; 0xa0000003
878012fa:	023a023a 	eorseq	r0, sl, #-1610612733	; 0xa0000003
878012fe:	023a023a 	eorseq	r0, sl, #-1610612733	; 0xa0000003
87801302:	023a023a 	eorseq	r0, sl, #-1610612733	; 0xa0000003
87801306:	023a023a 	eorseq	r0, sl, #-1610612733	; 0xa0000003
8780130a:	023a023a 	eorseq	r0, sl, #-1610612733	; 0xa0000003
8780130e:	023a023a 	eorseq	r0, sl, #-1610612733	; 0xa0000003
87801312:	023a023a 	eorseq	r0, sl, #-1610612733	; 0xa0000003
87801316:	023a023a 	eorseq	r0, sl, #-1610612733	; 0xa0000003
8780131a:	023a023a 	eorseq	r0, sl, #-1610612733	; 0xa0000003
8780131e:	023a023a 	eorseq	r0, sl, #-1610612733	; 0xa0000003
87801322:	023a023a 	eorseq	r0, sl, #-1610612733	; 0xa0000003
87801326:	023a023a 	eorseq	r0, sl, #-1610612733	; 0xa0000003
8780132a:	023a023a 	eorseq	r0, sl, #-1610612733	; 0xa0000003
8780132e:	023a023a 	eorseq	r0, sl, #-1610612733	; 0xa0000003
87801332:	023a023a 	eorseq	r0, sl, #-1610612733	; 0xa0000003
87801336:	016f023a 	cmneq	pc, sl, lsr r2	; <UNPREDICTABLE>
8780133a:	023a023a 	eorseq	r0, sl, #-1610612733	; 0xa0000003
8780133e:	023a023a 	eorseq	r0, sl, #-1610612733	; 0xa0000003
87801342:	023a023a 	eorseq	r0, sl, #-1610612733	; 0xa0000003
87801346:	023a023a 	eorseq	r0, sl, #-1610612733	; 0xa0000003
8780134a:	023a023a 	eorseq	r0, sl, #-1610612733	; 0xa0000003
8780134e:	01b801be 			; <UNDEFINED> instruction: 0x01b801be
87801352:	023a023a 	eorseq	r0, sl, #-1610612733	; 0xa0000003
87801356:	023a023a 	eorseq	r0, sl, #-1610612733	; 0xa0000003
8780135a:	023a01b8 	eorseq	r0, sl, #184, 2	; 0x2e
8780135e:	023a023a 	eorseq	r0, sl, #-1610612733	; 0xa0000003
87801362:	0262023a 	rsbeq	r0, r2, #-1610612733	; 0xa0000003
87801366:	019b01b4 			; <UNDEFINED> instruction: 0x019b01b4
8780136a:	023a023a 	eorseq	r0, sl, #-1610612733	; 0xa0000003
8780136e:	023a01f2 	eorseq	r0, sl, #-2147483588	; 0x8000003c
87801372:	023a0274 	eorseq	r0, sl, #116, 4	; 0x40000007
87801376:	0272023a 	rsbseq	r0, r2, #-1610612733	; 0xa0000003
8780137a:	460a      	mov	r2, r1
8780137c:	1c46      	adds	r6, r0, #1
8780137e:	2a6c      	cmp	r2, #108	; 0x6c
87801380:	7841      	ldrb	r1, [r0, #1]
87801382:	f000 809b 	beq.w	878014bc <vsnprintf+0x2e8>
87801386:	3925      	subs	r1, #37	; 0x25
87801388:	2953      	cmp	r1, #83	; 0x53
8780138a:	f200 81dd 	bhi.w	87801748 <vsnprintf+0x574>
8780138e:	e8df f011 	tbh	[pc, r1, lsl #1]
87801392:	01db018d 	bicseq	r0, fp, sp, lsl #3
87801396:	01db01db 	ldrsbeq	r0, [fp, #27]
8780139a:	01db01db 	ldrsbeq	r0, [fp, #27]
8780139e:	01db01db 	ldrsbeq	r0, [fp, #27]
878013a2:	01db01db 	ldrsbeq	r0, [fp, #27]
878013a6:	01db01db 	ldrsbeq	r0, [fp, #27]
878013aa:	01db01db 	ldrsbeq	r0, [fp, #27]
878013ae:	01db01db 	ldrsbeq	r0, [fp, #27]
878013b2:	01db01db 	ldrsbeq	r0, [fp, #27]
878013b6:	01db01db 	ldrsbeq	r0, [fp, #27]
878013ba:	01db01db 	ldrsbeq	r0, [fp, #27]
878013be:	01db01db 	ldrsbeq	r0, [fp, #27]
878013c2:	01db01db 	ldrsbeq	r0, [fp, #27]
878013c6:	01db01db 	ldrsbeq	r0, [fp, #27]
878013ca:	01db01db 	ldrsbeq	r0, [fp, #27]
878013ce:	01db01db 	ldrsbeq	r0, [fp, #27]
878013d2:	01db01db 	ldrsbeq	r0, [fp, #27]
878013d6:	01db01db 	ldrsbeq	r0, [fp, #27]
878013da:	01db01db 	ldrsbeq	r0, [fp, #27]
878013de:	01db01db 	ldrsbeq	r0, [fp, #27]
878013e2:	01db01db 	ldrsbeq	r0, [fp, #27]
878013e6:	01db01db 	ldrsbeq	r0, [fp, #27]
878013ea:	01db01db 	ldrsbeq	r0, [fp, #27]
878013ee:	01db01db 	ldrsbeq	r0, [fp, #27]
878013f2:	01db01db 	ldrsbeq	r0, [fp, #27]
878013f6:	011001db 			; <UNDEFINED> instruction: 0x011001db
878013fa:	01db01db 	ldrsbeq	r0, [fp, #27]
878013fe:	01db01db 	ldrsbeq	r0, [fp, #27]
87801402:	01db01db 	ldrsbeq	r0, [fp, #27]
87801406:	01db01db 	ldrsbeq	r0, [fp, #27]
8780140a:	01db01db 	ldrsbeq	r0, [fp, #27]
8780140e:	0159015f 	cmpeq	r9, pc, asr r1
87801412:	01db01db 	ldrsbeq	r0, [fp, #27]
87801416:	01db01db 	ldrsbeq	r0, [fp, #27]
8780141a:	01db0159 	bicseq	r0, fp, r9, asr r1
8780141e:	01db01db 	ldrsbeq	r0, [fp, #27]
87801422:	020301db 	andeq	r0, r3, #-1073741770	; 0xc0000036
87801426:	013c0155 	teqeq	ip, r5, asr r1
8780142a:	01db01db 	ldrsbeq	r0, [fp, #27]
8780142e:	01db0193 			; <UNDEFINED> instruction: 0x01db0193
87801432:	01db0132 	bicseq	r0, fp, r2, lsr r1
87801436:	011201db 			; <UNDEFINED> instruction: 0x011201db
8780143a:	2d2a      	cmp	r5, #42	; 0x2a
8780143c:	bf1c      	itt	ne
8780143e:	4629      	movne	r1, r5
87801440:	f04f 35ff 	movne.w	r5, #4294967295	; 0xffffffff
87801444:	f47f af29 	bne.w	8780129a <vsnprintf+0xc6>
87801448:	f8d9 5000 	ldr.w	r5, [r9]
8780144c:	1cb0      	adds	r0, r6, #2
8780144e:	78b1      	ldrb	r1, [r6, #2]
87801450:	f109 0904 	add.w	r9, r9, #4
87801454:	2d00      	cmp	r5, #0
87801456:	bfbc      	itt	lt
87801458:	426d      	neglt	r5, r5
8780145a:	f043 0310 	orrlt.w	r3, r3, #16
8780145e:	292e      	cmp	r1, #46	; 0x2e
87801460:	bf18      	it	ne
87801462:	f04f 3eff 	movne.w	lr, #4294967295	; 0xffffffff
87801466:	f47f af1e 	bne.w	878012a6 <vsnprintf+0xd2>
8780146a:	7841      	ldrb	r1, [r0, #1]
8780146c:	f100 0c01 	add.w	ip, r0, #1
87801470:	f818 6001 	ldrb.w	r6, [r8, r1]
87801474:	f006 0604 	and.w	r6, r6, #4
87801478:	f006 02ff 	and.w	r2, r6, #255	; 0xff
8780147c:	2e00      	cmp	r6, #0
8780147e:	f000 8088 	beq.w	87801592 <vsnprintf+0x3be>
87801482:	4660      	mov	r0, ip
87801484:	2200      	movs	r2, #0
87801486:	00d6      	lsls	r6, r2, #3
87801488:	eb06 0242 	add.w	r2, r6, r2, lsl #1
8780148c:	440a      	add	r2, r1
8780148e:	f810 1f01 	ldrb.w	r1, [r0, #1]!
87801492:	3a30      	subs	r2, #48	; 0x30
87801494:	f818 6001 	ldrb.w	r6, [r8, r1]
87801498:	0776      	lsls	r6, r6, #29
8780149a:	d4f4      	bmi.n	87801486 <vsnprintf+0x2b2>
8780149c:	ea22 7ee2 	bic.w	lr, r2, r2, asr #31
878014a0:	e701      	b.n	878012a6 <vsnprintf+0xd2>
878014a2:	4623      	mov	r3, r4
878014a4:	9a05      	ldr	r2, [sp, #20]
878014a6:	1aa0      	subs	r0, r4, r2
878014a8:	42bb      	cmp	r3, r7
878014aa:	d964      	bls.n	87801576 <vsnprintf+0x3a2>
878014ac:	f1ba 0f00 	cmp.w	sl, #0
878014b0:	d001      	beq.n	878014b6 <vsnprintf+0x2e2>
878014b2:	2300      	movs	r3, #0
878014b4:	703b      	strb	r3, [r7, #0]
878014b6:	b009      	add	sp, #36	; 0x24
878014b8:	e8bd 8ff0 	ldmia.w	sp!, {r4, r5, r6, r7, r8, r9, sl, fp, pc}
878014bc:	296c      	cmp	r1, #108	; 0x6c
878014be:	f000 8174 	beq.w	878017aa <vsnprintf+0x5d6>
878014c2:	3925      	subs	r1, #37	; 0x25
878014c4:	2953      	cmp	r1, #83	; 0x53
878014c6:	f200 813f 	bhi.w	87801748 <vsnprintf+0x574>
878014ca:	e8df f011 	tbh	[pc, r1, lsl #1]
878014ce:	013d00ef 	teqeq	sp, pc, ror #1
878014d2:	013d013d 	teqeq	sp, sp, lsr r1
878014d6:	013d013d 	teqeq	sp, sp, lsr r1
878014da:	013d013d 	teqeq	sp, sp, lsr r1
878014de:	013d013d 	teqeq	sp, sp, lsr r1
878014e2:	013d013d 	teqeq	sp, sp, lsr r1
878014e6:	013d013d 	teqeq	sp, sp, lsr r1
878014ea:	013d013d 	teqeq	sp, sp, lsr r1
878014ee:	013d013d 	teqeq	sp, sp, lsr r1
878014f2:	013d013d 	teqeq	sp, sp, lsr r1
878014f6:	013d013d 	teqeq	sp, sp, lsr r1
878014fa:	013d013d 	teqeq	sp, sp, lsr r1
878014fe:	013d013d 	teqeq	sp, sp, lsr r1
87801502:	013d013d 	teqeq	sp, sp, lsr r1
87801506:	013d013d 	teqeq	sp, sp, lsr r1
8780150a:	013d013d 	teqeq	sp, sp, lsr r1
8780150e:	013d013d 	teqeq	sp, sp, lsr r1
87801512:	013d013d 	teqeq	sp, sp, lsr r1
87801516:	013d013d 	teqeq	sp, sp, lsr r1
8780151a:	013d013d 	teqeq	sp, sp, lsr r1
8780151e:	013d013d 	teqeq	sp, sp, lsr r1
87801522:	013d013d 	teqeq	sp, sp, lsr r1
87801526:	013d013d 	teqeq	sp, sp, lsr r1
8780152a:	013d013d 	teqeq	sp, sp, lsr r1
8780152e:	013d013d 	teqeq	sp, sp, lsr r1
87801532:	0072013d 	rsbseq	r0, r2, sp, lsr r1
87801536:	013d013d 	teqeq	sp, sp, lsr r1
8780153a:	013d013d 	teqeq	sp, sp, lsr r1
8780153e:	013d013d 	teqeq	sp, sp, lsr r1
87801542:	013d013d 	teqeq	sp, sp, lsr r1
87801546:	013d013d 	teqeq	sp, sp, lsr r1
8780154a:	00bb00c1 	adcseq	r0, fp, r1, asr #1
8780154e:	013d013d 	teqeq	sp, sp, lsr r1
87801552:	013d013d 	teqeq	sp, sp, lsr r1
87801556:	013d00bb 	ldrheq	r0, [sp, -fp]!
8780155a:	013d013d 	teqeq	sp, sp, lsr r1
8780155e:	017d013d 	cmneq	sp, sp, lsr r1
87801562:	009e00b7 	ldrheq	r0, [lr], r7
87801566:	013d013d 	teqeq	sp, sp, lsr r1
8780156a:	013d00f5 	ldrsheq	r0, [sp, -r5]!
8780156e:	013d0158 	teqeq	sp, r8, asr r1
87801572:	0074013d 	rsbseq	r0, r4, sp, lsr r1
87801576:	2200      	movs	r2, #0
87801578:	701a      	strb	r2, [r3, #0]
8780157a:	b009      	add	sp, #36	; 0x24
8780157c:	e8bd 8ff0 	ldmia.w	sp!, {r4, r5, r6, r7, r8, r9, sl, fp, pc}
87801580:	9405      	str	r4, [sp, #20]
87801582:	f1c4 0a00 	rsb	sl, r4, #0
87801586:	4623      	mov	r3, r4
87801588:	2800      	cmp	r0, #0
8780158a:	d0f4      	beq.n	87801576 <vsnprintf+0x3a2>
8780158c:	f04f 37ff 	mov.w	r7, #4294967295	; 0xffffffff
87801590:	e636      	b.n	87801200 <vsnprintf+0x2c>
87801592:	292a      	cmp	r1, #42	; 0x2a
87801594:	bf1c      	itt	ne
87801596:	4660      	movne	r0, ip
87801598:	4696      	movne	lr, r2
8780159a:	f47f ae84 	bne.w	878012a6 <vsnprintf+0xd2>
8780159e:	f8d9 2000 	ldr.w	r2, [r9]
878015a2:	3002      	adds	r0, #2
878015a4:	7801      	ldrb	r1, [r0, #0]
878015a6:	f109 0904 	add.w	r9, r9, #4
878015aa:	ea22 7ee2 	bic.w	lr, r2, r2, asr #31
878015ae:	e67a      	b.n	878012a6 <vsnprintf+0xd2>
878015b0:	4606      	mov	r6, r0
878015b2:	f043 0340 	orr.w	r3, r3, #64	; 0x40
878015b6:	f04f 0c10 	mov.w	ip, #16
878015ba:	2a4c      	cmp	r2, #76	; 0x4c
878015bc:	d01f      	beq.n	878015fe <vsnprintf+0x42a>
878015be:	2a6c      	cmp	r2, #108	; 0x6c
878015c0:	f000 80df 	beq.w	87801782 <vsnprintf+0x5ae>
878015c4:	f022 0120 	bic.w	r1, r2, #32
878015c8:	295a      	cmp	r1, #90	; 0x5a
878015ca:	f040 80cc 	bne.w	87801766 <vsnprintf+0x592>
878015ce:	f8d9 0000 	ldr.w	r0, [r9]
878015d2:	f109 0904 	add.w	r9, r9, #4
878015d6:	2100      	movs	r1, #0
878015d8:	9303      	str	r3, [sp, #12]
878015da:	4602      	mov	r2, r0
878015dc:	460b      	mov	r3, r1
878015de:	4620      	mov	r0, r4
878015e0:	f8cd e008 	str.w	lr, [sp, #8]
878015e4:	4639      	mov	r1, r7
878015e6:	9501      	str	r5, [sp, #4]
878015e8:	f8cd c000 	str.w	ip, [sp]
878015ec:	f7ff fa86 	bl	87800afc <number>
878015f0:	4604      	mov	r4, r0
878015f2:	7870      	ldrb	r0, [r6, #1]
878015f4:	e612      	b.n	8780121c <vsnprintf+0x48>
878015f6:	2a4c      	cmp	r2, #76	; 0x4c
878015f8:	f04f 0c0a 	mov.w	ip, #10
878015fc:	d1df      	bne.n	878015be <vsnprintf+0x3ea>
878015fe:	e9d9 0100 	ldrd	r0, r1, [r9]
87801602:	f109 0908 	add.w	r9, r9, #8
87801606:	e7e7      	b.n	878015d8 <vsnprintf+0x404>
87801608:	4606      	mov	r6, r0
8780160a:	1c69      	adds	r1, r5, #1
8780160c:	f04f 0110 	mov.w	r1, #16
87801610:	bf04      	itt	eq
87801612:	f043 0301 	orreq.w	r3, r3, #1
87801616:	2508      	moveq	r5, #8
87801618:	f8d9 2000 	ldr.w	r2, [r9]
8780161c:	4620      	mov	r0, r4
8780161e:	9303      	str	r3, [sp, #12]
87801620:	2300      	movs	r3, #0
87801622:	e88d 0022 	stmia.w	sp, {r1, r5}
87801626:	4639      	mov	r1, r7
87801628:	f8cd e008 	str.w	lr, [sp, #8]
8780162c:	f109 0904 	add.w	r9, r9, #4
87801630:	f7ff fa64 	bl	87800afc <number>
87801634:	4604      	mov	r4, r0
87801636:	7870      	ldrb	r0, [r6, #1]
87801638:	e5f0      	b.n	8780121c <vsnprintf+0x48>
8780163a:	4606      	mov	r6, r0
8780163c:	f04f 0c08 	mov.w	ip, #8
87801640:	e7bb      	b.n	878015ba <vsnprintf+0x3e6>
87801642:	4606      	mov	r6, r0
87801644:	f043 0302 	orr.w	r3, r3, #2
87801648:	f04f 0c0a 	mov.w	ip, #10
8780164c:	e7b5      	b.n	878015ba <vsnprintf+0x3e6>
8780164e:	4606      	mov	r6, r0
87801650:	06d8      	lsls	r0, r3, #27
87801652:	d40d      	bmi.n	87801670 <vsnprintf+0x49c>
87801654:	3d01      	subs	r5, #1
87801656:	2d00      	cmp	r5, #0
87801658:	dd0a      	ble.n	87801670 <vsnprintf+0x49c>
8780165a:	1963      	adds	r3, r4, r5
8780165c:	2220      	movs	r2, #32
8780165e:	42a7      	cmp	r7, r4
87801660:	f104 0401 	add.w	r4, r4, #1
87801664:	bf28      	it	cs
87801666:	f804 2c01 	strbcs.w	r2, [r4, #-1]
8780166a:	429c      	cmp	r4, r3
8780166c:	d1f7      	bne.n	8780165e <vsnprintf+0x48a>
8780166e:	2500      	movs	r5, #0
87801670:	f8d9 3000 	ldr.w	r3, [r9]
87801674:	42bc      	cmp	r4, r7
87801676:	f104 0101 	add.w	r1, r4, #1
8780167a:	f109 0004 	add.w	r0, r9, #4
8780167e:	bf98      	it	ls
87801680:	7023      	strbls	r3, [r4, #0]
87801682:	2d01      	cmp	r5, #1
87801684:	bfc2      	ittt	gt
87801686:	1964      	addgt	r4, r4, r5
87801688:	460b      	movgt	r3, r1
8780168a:	2220      	movgt	r2, #32
8780168c:	f340 80b4 	ble.w	878017f8 <vsnprintf+0x624>
87801690:	429f      	cmp	r7, r3
87801692:	f103 0301 	add.w	r3, r3, #1
87801696:	bf28      	it	cs
87801698:	f803 2c01 	strbcs.w	r2, [r3, #-1]
8780169c:	42a3      	cmp	r3, r4
8780169e:	d1f7      	bne.n	87801690 <vsnprintf+0x4bc>
878016a0:	1e6c      	subs	r4, r5, #1
878016a2:	4681      	mov	r9, r0
878016a4:	440c      	add	r4, r1
878016a6:	7870      	ldrb	r0, [r6, #1]
878016a8:	e5b8      	b.n	8780121c <vsnprintf+0x48>
878016aa:	4606      	mov	r6, r0
878016ac:	42a7      	cmp	r7, r4
878016ae:	bf24      	itt	cs
878016b0:	2325      	movcs	r3, #37	; 0x25
878016b2:	7023      	strbcs	r3, [r4, #0]
878016b4:	e5b0      	b.n	87801218 <vsnprintf+0x44>
878016b6:	4606      	mov	r6, r0
878016b8:	f8d9 2000 	ldr.w	r2, [r9]
878016bc:	4671      	mov	r1, lr
878016be:	9307      	str	r3, [sp, #28]
878016c0:	f109 0904 	add.w	r9, r9, #4
878016c4:	f5b2 6f80 	cmp.w	r2, #1024	; 0x400
878016c8:	bf38      	it	cc
878016ca:	465a      	movcc	r2, fp
878016cc:	4610      	mov	r0, r2
878016ce:	9206      	str	r2, [sp, #24]
878016d0:	f7ff f8ae 	bl	87800830 <strnlen>
878016d4:	9b07      	ldr	r3, [sp, #28]
878016d6:	9a06      	ldr	r2, [sp, #24]
878016d8:	f013 0f10 	tst.w	r3, #16
878016dc:	d112      	bne.n	87801704 <vsnprintf+0x530>
878016de:	4285      	cmp	r5, r0
878016e0:	f105 3eff 	add.w	lr, r5, #4294967295	; 0xffffffff
878016e4:	f340 808c 	ble.w	87801800 <vsnprintf+0x62c>
878016e8:	1a2b      	subs	r3, r5, r0
878016ea:	2120      	movs	r1, #32
878016ec:	4423      	add	r3, r4
878016ee:	42a7      	cmp	r7, r4
878016f0:	f104 0401 	add.w	r4, r4, #1
878016f4:	bf28      	it	cs
878016f6:	f804 1c01 	strbcs.w	r1, [r4, #-1]
878016fa:	429c      	cmp	r4, r3
878016fc:	d1f7      	bne.n	878016ee <vsnprintf+0x51a>
878016fe:	ebc5 050e 	rsb	r5, r5, lr
87801702:	4405      	add	r5, r0
87801704:	2800      	cmp	r0, #0
87801706:	dd75      	ble.n	878017f4 <vsnprintf+0x620>
87801708:	1823      	adds	r3, r4, r0
8780170a:	42a7      	cmp	r7, r4
8780170c:	f104 0401 	add.w	r4, r4, #1
87801710:	bf28      	it	cs
87801712:	7811      	ldrbcs	r1, [r2, #0]
87801714:	f102 0201 	add.w	r2, r2, #1
87801718:	bf28      	it	cs
8780171a:	f804 1c01 	strbcs.w	r1, [r4, #-1]
8780171e:	429c      	cmp	r4, r3
87801720:	d1f3      	bne.n	8780170a <vsnprintf+0x536>
87801722:	4285      	cmp	r5, r0
87801724:	bfdc      	itt	le
87801726:	461c      	movle	r4, r3
87801728:	7870      	ldrble	r0, [r6, #1]
8780172a:	f77f ad77 	ble.w	8780121c <vsnprintf+0x48>
8780172e:	1a28      	subs	r0, r5, r0
87801730:	2220      	movs	r2, #32
87801732:	181c      	adds	r4, r3, r0
87801734:	429f      	cmp	r7, r3
87801736:	f103 0301 	add.w	r3, r3, #1
8780173a:	bf28      	it	cs
8780173c:	f803 2c01 	strbcs.w	r2, [r3, #-1]
87801740:	42a3      	cmp	r3, r4
87801742:	d1f7      	bne.n	87801734 <vsnprintf+0x560>
87801744:	e755      	b.n	878015f2 <vsnprintf+0x41e>
87801746:	4606      	mov	r6, r0
87801748:	42a7      	cmp	r7, r4
8780174a:	bf24      	itt	cs
8780174c:	2325      	movcs	r3, #37	; 0x25
8780174e:	7023      	strbcs	r3, [r4, #0]
87801750:	1c63      	adds	r3, r4, #1
87801752:	7832      	ldrb	r2, [r6, #0]
87801754:	b36a      	cbz	r2, 878017b2 <vsnprintf+0x5de>
87801756:	42bb      	cmp	r3, r7
87801758:	f104 0402 	add.w	r4, r4, #2
8780175c:	bf98      	it	ls
8780175e:	f804 2c01 	strbls.w	r2, [r4, #-1]
87801762:	7870      	ldrb	r0, [r6, #1]
87801764:	e55a      	b.n	8780121c <vsnprintf+0x48>
87801766:	2a68      	cmp	r2, #104	; 0x68
87801768:	f109 0204 	add.w	r2, r9, #4
8780176c:	f8d9 0000 	ldr.w	r0, [r9]
87801770:	4691      	mov	r9, r2
87801772:	d036      	beq.n	878017e2 <vsnprintf+0x60e>
87801774:	079a      	lsls	r2, r3, #30
87801776:	f57f af2e 	bpl.w	878015d6 <vsnprintf+0x402>
8780177a:	17c1      	asrs	r1, r0, #31
8780177c:	e72c      	b.n	878015d8 <vsnprintf+0x404>
8780177e:	f04f 0c0a 	mov.w	ip, #10
87801782:	f109 0204 	add.w	r2, r9, #4
87801786:	f8d9 0000 	ldr.w	r0, [r9]
8780178a:	4691      	mov	r9, r2
8780178c:	079a      	lsls	r2, r3, #30
8780178e:	f57f af22 	bpl.w	878015d6 <vsnprintf+0x402>
87801792:	17c1      	asrs	r1, r0, #31
87801794:	e720      	b.n	878015d8 <vsnprintf+0x404>
87801796:	4606      	mov	r6, r0
87801798:	9a05      	ldr	r2, [sp, #20]
8780179a:	f109 0904 	add.w	r9, r9, #4
8780179e:	f859 3c04 	ldr.w	r3, [r9, #-4]
878017a2:	1aa2      	subs	r2, r4, r2
878017a4:	601a      	str	r2, [r3, #0]
878017a6:	7870      	ldrb	r0, [r6, #1]
878017a8:	e538      	b.n	8780121c <vsnprintf+0x48>
878017aa:	7881      	ldrb	r1, [r0, #2]
878017ac:	224c      	movs	r2, #76	; 0x4c
878017ae:	3002      	adds	r0, #2
878017b0:	e589      	b.n	878012c6 <vsnprintf+0xf2>
878017b2:	461c      	mov	r4, r3
878017b4:	e676      	b.n	878014a4 <vsnprintf+0x2d0>
878017b6:	4606      	mov	r6, r0
878017b8:	e6fd      	b.n	878015b6 <vsnprintf+0x3e2>
878017ba:	2a4c      	cmp	r2, #76	; 0x4c
878017bc:	4606      	mov	r6, r0
878017be:	f04f 0c0a 	mov.w	ip, #10
878017c2:	f47f aeff 	bne.w	878015c4 <vsnprintf+0x3f0>
878017c6:	e71a      	b.n	878015fe <vsnprintf+0x42a>
878017c8:	9a05      	ldr	r2, [sp, #20]
878017ca:	f109 0904 	add.w	r9, r9, #4
878017ce:	f859 3c04 	ldr.w	r3, [r9, #-4]
878017d2:	1aa2      	subs	r2, r4, r2
878017d4:	601a      	str	r2, [r3, #0]
878017d6:	7880      	ldrb	r0, [r0, #2]
878017d8:	e520      	b.n	8780121c <vsnprintf+0x48>
878017da:	2000      	movs	r0, #0
878017dc:	b009      	add	sp, #36	; 0x24
878017de:	e8bd 8ff0 	ldmia.w	sp!, {r4, r5, r6, r7, r8, r9, sl, fp, pc}
878017e2:	0799      	lsls	r1, r3, #30
878017e4:	bf4d      	iteet	mi
878017e6:	b200      	sxthmi	r0, r0
878017e8:	b280      	uxthpl	r0, r0
878017ea:	2100      	movpl	r1, #0
878017ec:	17c1      	asrmi	r1, r0, #31
878017ee:	e6f3      	b.n	878015d8 <vsnprintf+0x404>
878017f0:	4623      	mov	r3, r4
878017f2:	e659      	b.n	878014a8 <vsnprintf+0x2d4>
878017f4:	4623      	mov	r3, r4
878017f6:	e794      	b.n	87801722 <vsnprintf+0x54e>
878017f8:	4681      	mov	r9, r0
878017fa:	460c      	mov	r4, r1
878017fc:	7870      	ldrb	r0, [r6, #1]
878017fe:	e50d      	b.n	8780121c <vsnprintf+0x48>
87801800:	4675      	mov	r5, lr
87801802:	e77f      	b.n	87801704 <vsnprintf+0x530>

87801804 <vscnprintf>:
87801804:	b510      	push	{r4, lr}
87801806:	460c      	mov	r4, r1
87801808:	f7ff fce4 	bl	878011d4 <vsnprintf>
8780180c:	4284      	cmp	r4, r0
8780180e:	bf98      	it	ls
87801810:	f104 30ff 	addls.w	r0, r4, #4294967295	; 0xffffffff
87801814:	bd10      	pop	{r4, pc}
87801816:	bf00      	nop

87801818 <snprintf>:
87801818:	b40c      	push	{r2, r3}
8780181a:	b508      	push	{r3, lr}
8780181c:	ab03      	add	r3, sp, #12
8780181e:	9a02      	ldr	r2, [sp, #8]
87801820:	f7ff fcd8 	bl	878011d4 <vsnprintf>
87801824:	e8bd 4008 	ldmia.w	sp!, {r3, lr}
87801828:	b002      	add	sp, #8
8780182a:	4770      	bx	lr

8780182c <scnprintf>:
8780182c:	b40c      	push	{r2, r3}
8780182e:	b510      	push	{r4, lr}
87801830:	460c      	mov	r4, r1
87801832:	ab03      	add	r3, sp, #12
87801834:	9a02      	ldr	r2, [sp, #8]
87801836:	f7ff fccd 	bl	878011d4 <vsnprintf>
8780183a:	4284      	cmp	r4, r0
8780183c:	bf98      	it	ls
8780183e:	f104 30ff 	addls.w	r0, r4, #4294967295	; 0xffffffff
87801842:	e8bd 4010 	ldmia.w	sp!, {r4, lr}
87801846:	b002      	add	sp, #8
87801848:	4770      	bx	lr
8780184a:	bf00      	nop

8780184c <vsprintf>:
8780184c:	4613      	mov	r3, r2
8780184e:	460a      	mov	r2, r1
87801850:	f06f 4100 	mvn.w	r1, #2147483648	; 0x80000000
87801854:	f7ff bcbe 	b.w	878011d4 <vsnprintf>

87801858 <sprintf>:
87801858:	b40e      	push	{r1, r2, r3}
8780185a:	f06f 4100 	mvn.w	r1, #2147483648	; 0x80000000
8780185e:	b500      	push	{lr}
87801860:	ab02      	add	r3, sp, #8
87801862:	9a01      	ldr	r2, [sp, #4]
87801864:	f7ff fcb6 	bl	878011d4 <vsnprintf>
87801868:	f85d eb04 	ldr.w	lr, [sp], #4
8780186c:	b003      	add	sp, #12
8780186e:	4770      	bx	lr

87801870 <vsscanf>:
87801870:	e92d 4ff0 	stmdb	sp!, {r4, r5, r6, r7, r8, r9, sl, fp, lr}
87801874:	f64b 44f8 	movw	r4, #48376	; 0xbcf8
87801878:	780b      	ldrb	r3, [r1, #0]
8780187a:	f2c8 7480 	movt	r4, #34688	; 0x8780
8780187e:	b083      	sub	sp, #12
87801880:	4607      	mov	r7, r0
87801882:	460d      	mov	r5, r1
87801884:	4696      	mov	lr, r2
87801886:	46a0      	mov	r8, r4
87801888:	2600      	movs	r6, #0
8780188a:	b143      	cbz	r3, 8780189e <vsscanf+0x2e>
8780188c:	7801      	ldrb	r1, [r0, #0]
8780188e:	b131      	cbz	r1, 8780189e <vsscanf+0x2e>
87801890:	5ce2      	ldrb	r2, [r4, r3]
87801892:	0692      	lsls	r2, r2, #26
87801894:	d407      	bmi.n	878018a6 <vsscanf+0x36>
87801896:	2b25      	cmp	r3, #37	; 0x25
87801898:	d020      	beq.n	878018dc <vsscanf+0x6c>
8780189a:	428b      	cmp	r3, r1
8780189c:	d018      	beq.n	878018d0 <vsscanf+0x60>
8780189e:	4630      	mov	r0, r6
878018a0:	b003      	add	sp, #12
878018a2:	e8bd 8ff0 	ldmia.w	sp!, {r4, r5, r6, r7, r8, r9, sl, fp, pc}
878018a6:	f815 3f01 	ldrb.w	r3, [r5, #1]!
878018aa:	5ce2      	ldrb	r2, [r4, r3]
878018ac:	0692      	lsls	r2, r2, #26
878018ae:	d4fa      	bmi.n	878018a6 <vsscanf+0x36>
878018b0:	f818 2001 	ldrb.w	r2, [r8, r1]
878018b4:	0691      	lsls	r1, r2, #26
878018b6:	d504      	bpl.n	878018c2 <vsscanf+0x52>
878018b8:	f810 2f01 	ldrb.w	r2, [r0, #1]!
878018bc:	5ca2      	ldrb	r2, [r4, r2]
878018be:	0692      	lsls	r2, r2, #26
878018c0:	d4fa      	bmi.n	878018b8 <vsscanf+0x48>
878018c2:	2b00      	cmp	r3, #0
878018c4:	bf18      	it	ne
878018c6:	2b25      	cmpne	r3, #37	; 0x25
878018c8:	d006      	beq.n	878018d8 <vsscanf+0x68>
878018ca:	7801      	ldrb	r1, [r0, #0]
878018cc:	428b      	cmp	r3, r1
878018ce:	d1e6      	bne.n	8780189e <vsscanf+0x2e>
878018d0:	786b      	ldrb	r3, [r5, #1]
878018d2:	3001      	adds	r0, #1
878018d4:	3501      	adds	r5, #1
878018d6:	e7d8      	b.n	8780188a <vsscanf+0x1a>
878018d8:	2b00      	cmp	r3, #0
878018da:	d0e0      	beq.n	8780189e <vsscanf+0x2e>
878018dc:	786b      	ldrb	r3, [r5, #1]
878018de:	3501      	adds	r5, #1
878018e0:	2b2a      	cmp	r3, #42	; 0x2a
878018e2:	f000 80f1 	beq.w	87801ac8 <vsscanf+0x258>
878018e6:	5ce2      	ldrb	r2, [r4, r3]
878018e8:	4619      	mov	r1, r3
878018ea:	0752      	lsls	r2, r2, #29
878018ec:	bf5c      	itt	pl
878018ee:	4619      	movpl	r1, r3
878018f0:	f04f 33ff 	movpl.w	r3, #4294967295	; 0xffffffff
878018f4:	d50a      	bpl.n	8780190c <vsscanf+0x9c>
878018f6:	2300      	movs	r3, #0
878018f8:	00da      	lsls	r2, r3, #3
878018fa:	eb02 0343 	add.w	r3, r2, r3, lsl #1
878018fe:	440b      	add	r3, r1
87801900:	f815 1f01 	ldrb.w	r1, [r5, #1]!
87801904:	3b30      	subs	r3, #48	; 0x30
87801906:	5c62      	ldrb	r2, [r4, r1]
87801908:	0752      	lsls	r2, r2, #29
8780190a:	d4f5      	bmi.n	878018f8 <vsscanf+0x88>
8780190c:	f001 02df 	and.w	r2, r1, #223	; 0xdf
87801910:	46a9      	mov	r9, r5
87801912:	2a5a      	cmp	r2, #90	; 0x5a
87801914:	bf18      	it	ne
87801916:	2a4c      	cmpne	r2, #76	; 0x4c
87801918:	f04f 3cff 	mov.w	ip, #4294967295	; 0xffffffff
8780191c:	bf0c      	ite	eq
8780191e:	2201      	moveq	r2, #1
87801920:	2200      	movne	r2, #0
87801922:	2968      	cmp	r1, #104	; 0x68
87801924:	bf08      	it	eq
87801926:	f042 0201 	orreq.w	r2, r2, #1
8780192a:	2a00      	cmp	r2, #0
8780192c:	f040 80b8 	bne.w	87801aa0 <vsscanf+0x230>
87801930:	2900      	cmp	r1, #0
87801932:	d0b4      	beq.n	8780189e <vsscanf+0x2e>
87801934:	f890 a000 	ldrb.w	sl, [r0]
87801938:	f1ba 0f00 	cmp.w	sl, #0
8780193c:	d0af      	beq.n	8780189e <vsscanf+0x2e>
8780193e:	3925      	subs	r1, #37	; 0x25
87801940:	f109 0501 	add.w	r5, r9, #1
87801944:	2953      	cmp	r1, #83	; 0x53
87801946:	d8aa      	bhi.n	8780189e <vsscanf+0x2e>
87801948:	a201      	add	r2, pc, #4	; (adr r2, 87801950 <vsscanf+0xe0>)
8780194a:	f852 f021 	ldr.w	pc, [r2, r1, lsl #2]
8780194e:	bf00      	nop
87801950:	87801bcd 	strhi	r1, [r0, sp, asr #23]
87801954:	8780189f 			; <UNDEFINED> instruction: 0x8780189f
87801958:	8780189f 			; <UNDEFINED> instruction: 0x8780189f
8780195c:	8780189f 			; <UNDEFINED> instruction: 0x8780189f
87801960:	8780189f 			; <UNDEFINED> instruction: 0x8780189f
87801964:	8780189f 			; <UNDEFINED> instruction: 0x8780189f
87801968:	8780189f 			; <UNDEFINED> instruction: 0x8780189f
8780196c:	8780189f 			; <UNDEFINED> instruction: 0x8780189f
87801970:	8780189f 			; <UNDEFINED> instruction: 0x8780189f
87801974:	8780189f 			; <UNDEFINED> instruction: 0x8780189f
87801978:	8780189f 			; <UNDEFINED> instruction: 0x8780189f
8780197c:	8780189f 			; <UNDEFINED> instruction: 0x8780189f
87801980:	8780189f 			; <UNDEFINED> instruction: 0x8780189f
87801984:	8780189f 			; <UNDEFINED> instruction: 0x8780189f
87801988:	8780189f 			; <UNDEFINED> instruction: 0x8780189f
8780198c:	8780189f 			; <UNDEFINED> instruction: 0x8780189f
87801990:	8780189f 			; <UNDEFINED> instruction: 0x8780189f
87801994:	8780189f 			; <UNDEFINED> instruction: 0x8780189f
87801998:	8780189f 			; <UNDEFINED> instruction: 0x8780189f
8780199c:	8780189f 			; <UNDEFINED> instruction: 0x8780189f
878019a0:	8780189f 			; <UNDEFINED> instruction: 0x8780189f
878019a4:	8780189f 			; <UNDEFINED> instruction: 0x8780189f
878019a8:	8780189f 			; <UNDEFINED> instruction: 0x8780189f
878019ac:	8780189f 			; <UNDEFINED> instruction: 0x8780189f
878019b0:	8780189f 			; <UNDEFINED> instruction: 0x8780189f
878019b4:	8780189f 			; <UNDEFINED> instruction: 0x8780189f
878019b8:	8780189f 			; <UNDEFINED> instruction: 0x8780189f
878019bc:	8780189f 			; <UNDEFINED> instruction: 0x8780189f
878019c0:	8780189f 			; <UNDEFINED> instruction: 0x8780189f
878019c4:	8780189f 			; <UNDEFINED> instruction: 0x8780189f
878019c8:	8780189f 			; <UNDEFINED> instruction: 0x8780189f
878019cc:	8780189f 			; <UNDEFINED> instruction: 0x8780189f
878019d0:	8780189f 			; <UNDEFINED> instruction: 0x8780189f
878019d4:	8780189f 			; <UNDEFINED> instruction: 0x8780189f
878019d8:	8780189f 			; <UNDEFINED> instruction: 0x8780189f
878019dc:	8780189f 			; <UNDEFINED> instruction: 0x8780189f
878019e0:	8780189f 			; <UNDEFINED> instruction: 0x8780189f
878019e4:	8780189f 			; <UNDEFINED> instruction: 0x8780189f
878019e8:	8780189f 			; <UNDEFINED> instruction: 0x8780189f
878019ec:	8780189f 			; <UNDEFINED> instruction: 0x8780189f
878019f0:	8780189f 			; <UNDEFINED> instruction: 0x8780189f
878019f4:	8780189f 			; <UNDEFINED> instruction: 0x8780189f
878019f8:	8780189f 			; <UNDEFINED> instruction: 0x8780189f
878019fc:	8780189f 			; <UNDEFINED> instruction: 0x8780189f
87801a00:	8780189f 			; <UNDEFINED> instruction: 0x8780189f
87801a04:	8780189f 			; <UNDEFINED> instruction: 0x8780189f
87801a08:	8780189f 			; <UNDEFINED> instruction: 0x8780189f
87801a0c:	8780189f 			; <UNDEFINED> instruction: 0x8780189f
87801a10:	8780189f 			; <UNDEFINED> instruction: 0x8780189f
87801a14:	8780189f 			; <UNDEFINED> instruction: 0x8780189f
87801a18:	8780189f 			; <UNDEFINED> instruction: 0x8780189f
87801a1c:	87801bdd 			; <UNDEFINED> instruction: 0x87801bdd
87801a20:	8780189f 			; <UNDEFINED> instruction: 0x8780189f
87801a24:	8780189f 			; <UNDEFINED> instruction: 0x8780189f
87801a28:	8780189f 			; <UNDEFINED> instruction: 0x8780189f
87801a2c:	8780189f 			; <UNDEFINED> instruction: 0x8780189f
87801a30:	8780189f 			; <UNDEFINED> instruction: 0x8780189f
87801a34:	8780189f 			; <UNDEFINED> instruction: 0x8780189f
87801a38:	8780189f 			; <UNDEFINED> instruction: 0x8780189f
87801a3c:	8780189f 			; <UNDEFINED> instruction: 0x8780189f
87801a40:	8780189f 			; <UNDEFINED> instruction: 0x8780189f
87801a44:	8780189f 			; <UNDEFINED> instruction: 0x8780189f
87801a48:	87801cad 	strhi	r1, [r0, sp, lsr #25]
87801a4c:	87801cdf 			; <UNDEFINED> instruction: 0x87801cdf
87801a50:	8780189f 			; <UNDEFINED> instruction: 0x8780189f
87801a54:	8780189f 			; <UNDEFINED> instruction: 0x8780189f
87801a58:	8780189f 			; <UNDEFINED> instruction: 0x8780189f
87801a5c:	8780189f 			; <UNDEFINED> instruction: 0x8780189f
87801a60:	87801b03 	strhi	r1, [r0, r3, lsl #22]
87801a64:	8780189f 			; <UNDEFINED> instruction: 0x8780189f
87801a68:	8780189f 			; <UNDEFINED> instruction: 0x8780189f
87801a6c:	8780189f 			; <UNDEFINED> instruction: 0x8780189f
87801a70:	8780189f 			; <UNDEFINED> instruction: 0x8780189f
87801a74:	87801c9b 			; <UNDEFINED> instruction: 0x87801c9b
87801a78:	87801c11 	usada8hi	r0, r1, ip, r1
87801a7c:	8780189f 			; <UNDEFINED> instruction: 0x8780189f
87801a80:	8780189f 			; <UNDEFINED> instruction: 0x8780189f
87801a84:	8780189f 			; <UNDEFINED> instruction: 0x8780189f
87801a88:	87801c3f 			; <UNDEFINED> instruction: 0x87801c3f
87801a8c:	8780189f 			; <UNDEFINED> instruction: 0x8780189f
87801a90:	87801bf7 			; <UNDEFINED> instruction: 0x87801bf7
87801a94:	8780189f 			; <UNDEFINED> instruction: 0x8780189f
87801a98:	8780189f 			; <UNDEFINED> instruction: 0x8780189f
87801a9c:	87801bdd 			; <UNDEFINED> instruction: 0x87801bdd
87801aa0:	786a      	ldrb	r2, [r5, #1]
87801aa2:	468c      	mov	ip, r1
87801aa4:	f105 0901 	add.w	r9, r5, #1
87801aa8:	4291      	cmp	r1, r2
87801aaa:	bf18      	it	ne
87801aac:	4611      	movne	r1, r2
87801aae:	f47f af3f 	bne.w	87801930 <vsscanf+0xc0>
87801ab2:	2968      	cmp	r1, #104	; 0x68
87801ab4:	f000 8199 	beq.w	87801dea <vsscanf+0x57a>
87801ab8:	296c      	cmp	r1, #108	; 0x6c
87801aba:	bf02      	ittt	eq
87801abc:	f105 0902 	addeq.w	r9, r5, #2
87801ac0:	78a9      	ldrbeq	r1, [r5, #2]
87801ac2:	f04f 0c4c 	moveq.w	ip, #76	; 0x4c
87801ac6:	e733      	b.n	87801930 <vsscanf+0xc0>
87801ac8:	f894 202a 	ldrb.w	r2, [r4, #42]	; 0x2a
87801acc:	0691      	lsls	r1, r2, #26
87801ace:	d40a      	bmi.n	87801ae6 <vsscanf+0x276>
87801ad0:	f815 3f01 	ldrb.w	r3, [r5, #1]!
87801ad4:	5ce2      	ldrb	r2, [r4, r3]
87801ad6:	1c19      	adds	r1, r3, #0
87801ad8:	bf18      	it	ne
87801ada:	2101      	movne	r1, #1
87801adc:	f082 0220 	eor.w	r2, r2, #32
87801ae0:	ea11 1252 	ands.w	r2, r1, r2, lsr #5
87801ae4:	d1f4      	bne.n	87801ad0 <vsscanf+0x260>
87801ae6:	7802      	ldrb	r2, [r0, #0]
87801ae8:	e001      	b.n	87801aee <vsscanf+0x27e>
87801aea:	f810 2f01 	ldrb.w	r2, [r0, #1]!
87801aee:	5ca1      	ldrb	r1, [r4, r2]
87801af0:	3200      	adds	r2, #0
87801af2:	bf18      	it	ne
87801af4:	2201      	movne	r2, #1
87801af6:	f081 0120 	eor.w	r1, r1, #32
87801afa:	ea12 1251 	ands.w	r2, r2, r1, lsr #5
87801afe:	d1f4      	bne.n	87801aea <vsscanf+0x27a>
87801b00:	e6c3      	b.n	8780188a <vsscanf+0x1a>
87801b02:	2200      	movs	r2, #0
87801b04:	f814 300a 	ldrb.w	r3, [r4, sl]
87801b08:	0699      	lsls	r1, r3, #26
87801b0a:	bf44      	itt	mi
87801b0c:	2101      	movmi	r1, #1
87801b0e:	468b      	movmi	fp, r1
87801b10:	f140 8171 	bpl.w	87801df6 <vsscanf+0x586>
87801b14:	f810 3f01 	ldrb.w	r3, [r0, #1]!
87801b18:	f814 a003 	ldrb.w	sl, [r4, r3]
87801b1c:	f01a 0f20 	tst.w	sl, #32
87801b20:	d1f8      	bne.n	87801b14 <vsscanf+0x2a4>
87801b22:	2b2d      	cmp	r3, #45	; 0x2d
87801b24:	bf14      	ite	ne
87801b26:	2100      	movne	r1, #0
87801b28:	f001 0101 	andeq.w	r1, r1, #1
87801b2c:	469a      	mov	sl, r3
87801b2e:	b109      	cbz	r1, 87801b34 <vsscanf+0x2c4>
87801b30:	f890 a001 	ldrb.w	sl, [r0, #1]
87801b34:	f1ba 0f00 	cmp.w	sl, #0
87801b38:	f43f aeb1 	beq.w	8780189e <vsscanf+0x2e>
87801b3c:	2a10      	cmp	r2, #16
87801b3e:	f000 8120 	beq.w	87801d82 <vsscanf+0x512>
87801b42:	2a0a      	cmp	r2, #10
87801b44:	d002      	beq.n	87801b4c <vsscanf+0x2dc>
87801b46:	2a08      	cmp	r2, #8
87801b48:	d06b      	beq.n	87801c22 <vsscanf+0x3b2>
87801b4a:	b922      	cbnz	r2, 87801b56 <vsscanf+0x2e6>
87801b4c:	f814 300a 	ldrb.w	r3, [r4, sl]
87801b50:	0759      	lsls	r1, r3, #29
87801b52:	f57f aea4 	bpl.w	8780189e <vsscanf+0x2e>
87801b56:	f1ac 0c48 	sub.w	ip, ip, #72	; 0x48
87801b5a:	f1bc 0f32 	cmp.w	ip, #50	; 0x32
87801b5e:	f200 810a 	bhi.w	87801d76 <vsscanf+0x506>
87801b62:	e8df f01c 	tbh	[pc, ip, lsl #1]
87801b66:	010800ec 	smlatteq	r8, ip, r0, r0
87801b6a:	01080108 	tsteq	r8, r8, lsl #2
87801b6e:	010800fa 	strdeq	r0, [r8, -sl]
87801b72:	01080108 	tsteq	r8, r8, lsl #2
87801b76:	01080108 	tsteq	r8, r8, lsl #2
87801b7a:	01080108 	tsteq	r8, r8, lsl #2
87801b7e:	01080108 	tsteq	r8, r8, lsl #2
87801b82:	01080108 	tsteq	r8, r8, lsl #2
87801b86:	01080108 	tsteq	r8, r8, lsl #2
87801b8a:	010800da 	ldrdeq	r0, [r8, -sl]
87801b8e:	01080108 	tsteq	r8, r8, lsl #2
87801b92:	01080108 	tsteq	r8, r8, lsl #2
87801b96:	01080108 	tsteq	r8, r8, lsl #2
87801b9a:	01080108 	tsteq	r8, r8, lsl #2
87801b9e:	01080108 	tsteq	r8, r8, lsl #2
87801ba2:	01080108 	tsteq	r8, r8, lsl #2
87801ba6:	010800cc 	smlabteq	r8, ip, r0, r0
87801baa:	01080108 	tsteq	r8, r8, lsl #2
87801bae:	010800be 	strheq	r0, [r8, -lr]
87801bb2:	01080108 	tsteq	r8, r8, lsl #2
87801bb6:	01080108 	tsteq	r8, r8, lsl #2
87801bba:	01080108 	tsteq	r8, r8, lsl #2
87801bbe:	01080108 	tsteq	r8, r8, lsl #2
87801bc2:	01080108 	tsteq	r8, r8, lsl #2
87801bc6:	01080108 	tsteq	r8, r8, lsl #2
87801bca:	f1ba00da 			; <UNDEFINED> instruction: 0xf1ba00da
87801bce:	0f25      	lsrs	r5, r4, #28
87801bd0:	f47f ae65 	bne.w	8780189e <vsscanf+0x2e>
87801bd4:	3001      	adds	r0, #1
87801bd6:	f899 3001 	ldrb.w	r3, [r9, #1]
87801bda:	e656      	b.n	8780188a <vsscanf+0x1a>
87801bdc:	f814 300a 	ldrb.w	r3, [r4, sl]
87801be0:	2210      	movs	r2, #16
87801be2:	f003 0320 	and.w	r3, r3, #32
87801be6:	f003 0bff 	and.w	fp, r3, #255	; 0xff
87801bea:	2b00      	cmp	r3, #0
87801bec:	f000 80c9 	beq.w	87801d82 <vsscanf+0x512>
87801bf0:	2100      	movs	r1, #0
87801bf2:	468b      	mov	fp, r1
87801bf4:	e78e      	b.n	87801b14 <vsscanf+0x2a4>
87801bf6:	f814 300a 	ldrb.w	r3, [r4, sl]
87801bfa:	220a      	movs	r2, #10
87801bfc:	f003 0320 	and.w	r3, r3, #32
87801c00:	f003 0bff 	and.w	fp, r3, #255	; 0xff
87801c04:	2b00      	cmp	r3, #0
87801c06:	d0a1      	beq.n	87801b4c <vsscanf+0x2dc>
87801c08:	2100      	movs	r1, #0
87801c0a:	220a      	movs	r2, #10
87801c0c:	468b      	mov	fp, r1
87801c0e:	e781      	b.n	87801b14 <vsscanf+0x2a4>
87801c10:	f814 300a 	ldrb.w	r3, [r4, sl]
87801c14:	2208      	movs	r2, #8
87801c16:	f003 0320 	and.w	r3, r3, #32
87801c1a:	f003 0bff 	and.w	fp, r3, #255	; 0xff
87801c1e:	2b00      	cmp	r3, #0
87801c20:	d1e6      	bne.n	87801bf0 <vsscanf+0x380>
87801c22:	f814 300a 	ldrb.w	r3, [r4, sl]
87801c26:	f083 0304 	eor.w	r3, r3, #4
87801c2a:	f3c3 0380 	ubfx	r3, r3, #2, #1
87801c2e:	f1ba 0f37 	cmp.w	sl, #55	; 0x37
87801c32:	bf88      	it	hi
87801c34:	f043 0301 	orrhi.w	r3, r3, #1
87801c38:	2b00      	cmp	r3, #0
87801c3a:	d08c      	beq.n	87801b56 <vsscanf+0x2e6>
87801c3c:	e62f      	b.n	8780189e <vsscanf+0x2e>
87801c3e:	1c5a      	adds	r2, r3, #1
87801c40:	f10e 0c04 	add.w	ip, lr, #4
87801c44:	f8de 1000 	ldr.w	r1, [lr]
87801c48:	f000 80a2 	beq.w	87801d90 <vsscanf+0x520>
87801c4c:	f814 200a 	ldrb.w	r2, [r4, sl]
87801c50:	0692      	lsls	r2, r2, #26
87801c52:	bf58      	it	pl
87801c54:	4652      	movpl	r2, sl
87801c56:	d507      	bpl.n	87801c68 <vsscanf+0x3f8>
87801c58:	f810 af01 	ldrb.w	sl, [r0, #1]!
87801c5c:	f814 200a 	ldrb.w	r2, [r4, sl]
87801c60:	0692      	lsls	r2, r2, #26
87801c62:	d4f9      	bmi.n	87801c58 <vsscanf+0x3e8>
87801c64:	4652      	mov	r2, sl
87801c66:	b18a      	cbz	r2, 87801c8c <vsscanf+0x41c>
87801c68:	b183      	cbz	r3, 87801c8c <vsscanf+0x41c>
87801c6a:	f100 0e01 	add.w	lr, r0, #1
87801c6e:	e006      	b.n	87801c7e <vsscanf+0x40e>
87801c70:	f814 a002 	ldrb.w	sl, [r4, r2]
87801c74:	f01a 0f20 	tst.w	sl, #32
87801c78:	d108      	bne.n	87801c8c <vsscanf+0x41c>
87801c7a:	3b01      	subs	r3, #1
87801c7c:	d006      	beq.n	87801c8c <vsscanf+0x41c>
87801c7e:	f801 2b01 	strb.w	r2, [r1], #1
87801c82:	4670      	mov	r0, lr
87801c84:	f81e 2b01 	ldrb.w	r2, [lr], #1
87801c88:	2a00      	cmp	r2, #0
87801c8a:	d1f1      	bne.n	87801c70 <vsscanf+0x400>
87801c8c:	2300      	movs	r3, #0
87801c8e:	3601      	adds	r6, #1
87801c90:	700b      	strb	r3, [r1, #0]
87801c92:	46e6      	mov	lr, ip
87801c94:	f899 3001 	ldrb.w	r3, [r9, #1]
87801c98:	e5f7      	b.n	8780188a <vsscanf+0x1a>
87801c9a:	f8de 3000 	ldr.w	r3, [lr]
87801c9e:	1bc2      	subs	r2, r0, r7
87801ca0:	f10e 0e04 	add.w	lr, lr, #4
87801ca4:	601a      	str	r2, [r3, #0]
87801ca6:	f899 3001 	ldrb.w	r3, [r9, #1]
87801caa:	e5ee      	b.n	8780188a <vsscanf+0x1a>
87801cac:	f8de 1000 	ldr.w	r1, [lr]
87801cb0:	1c5a      	adds	r2, r3, #1
87801cb2:	bf08      	it	eq
87801cb4:	2301      	moveq	r3, #1
87801cb6:	1c42      	adds	r2, r0, #1
87801cb8:	f10e 0e04 	add.w	lr, lr, #4
87801cbc:	f101 3cff 	add.w	ip, r1, #4294967295	; 0xffffffff
87801cc0:	e003      	b.n	87801cca <vsscanf+0x45a>
87801cc2:	f812 1b01 	ldrb.w	r1, [r2], #1
87801cc6:	468a      	mov	sl, r1
87801cc8:	b129      	cbz	r1, 87801cd6 <vsscanf+0x466>
87801cca:	3b01      	subs	r3, #1
87801ccc:	f80c af01 	strb.w	sl, [ip, #1]!
87801cd0:	2b00      	cmp	r3, #0
87801cd2:	4610      	mov	r0, r2
87801cd4:	dcf5      	bgt.n	87801cc2 <vsscanf+0x452>
87801cd6:	3601      	adds	r6, #1
87801cd8:	f899 3001 	ldrb.w	r3, [r9, #1]
87801cdc:	e5d5      	b.n	8780188a <vsscanf+0x1a>
87801cde:	220a      	movs	r2, #10
87801ce0:	e710      	b.n	87801b04 <vsscanf+0x294>
87801ce2:	f8de a000 	ldr.w	sl, [lr]
87801ce6:	f1bb 0f00 	cmp.w	fp, #0
87801cea:	d018      	beq.n	87801d1e <vsscanf+0x4ae>
87801cec:	f10e 0b04 	add.w	fp, lr, #4
87801cf0:	a901      	add	r1, sp, #4
87801cf2:	f7ff f9ad 	bl	87801050 <simple_strtol>
87801cf6:	46de      	mov	lr, fp
87801cf8:	f8ca 0000 	str.w	r0, [sl]
87801cfc:	e017      	b.n	87801d2e <vsscanf+0x4be>
87801cfe:	f8de a000 	ldr.w	sl, [lr]
87801d02:	f1bb 0f00 	cmp.w	fp, #0
87801d06:	d05c      	beq.n	87801dc2 <vsscanf+0x552>
87801d08:	f10e 0b04 	add.w	fp, lr, #4
87801d0c:	a901      	add	r1, sp, #4
87801d0e:	f7ff f99f 	bl	87801050 <simple_strtol>
87801d12:	46de      	mov	lr, fp
87801d14:	f8aa 0000 	strh.w	r0, [sl]
87801d18:	e009      	b.n	87801d2e <vsscanf+0x4be>
87801d1a:	f8de a000 	ldr.w	sl, [lr]
87801d1e:	f10e 0b04 	add.w	fp, lr, #4
87801d22:	a901      	add	r1, sp, #4
87801d24:	f7ff f90e 	bl	87800f44 <simple_strtoul>
87801d28:	46de      	mov	lr, fp
87801d2a:	f8ca 0000 	str.w	r0, [sl]
87801d2e:	9801      	ldr	r0, [sp, #4]
87801d30:	3601      	adds	r6, #1
87801d32:	2800      	cmp	r0, #0
87801d34:	f43f adb3 	beq.w	8780189e <vsscanf+0x2e>
87801d38:	f899 3001 	ldrb.w	r3, [r9, #1]
87801d3c:	e5a5      	b.n	8780188a <vsscanf+0x1a>
87801d3e:	f8de a000 	ldr.w	sl, [lr]
87801d42:	f1bb 0f00 	cmp.w	fp, #0
87801d46:	d033      	beq.n	87801db0 <vsscanf+0x540>
87801d48:	f10e 0b04 	add.w	fp, lr, #4
87801d4c:	a901      	add	r1, sp, #4
87801d4e:	f7ff f97f 	bl	87801050 <simple_strtol>
87801d52:	46de      	mov	lr, fp
87801d54:	f88a 0000 	strb.w	r0, [sl]
87801d58:	e7e9      	b.n	87801d2e <vsscanf+0x4be>
87801d5a:	f8de a000 	ldr.w	sl, [lr]
87801d5e:	f1bb 0f00 	cmp.w	fp, #0
87801d62:	d01c      	beq.n	87801d9e <vsscanf+0x52e>
87801d64:	f10e 0b04 	add.w	fp, lr, #4
87801d68:	a901      	add	r1, sp, #4
87801d6a:	f7ff fa23 	bl	878011b4 <simple_strtoll>
87801d6e:	46de      	mov	lr, fp
87801d70:	e9ca 0100 	strd	r0, r1, [sl]
87801d74:	e7db      	b.n	87801d2e <vsscanf+0x4be>
87801d76:	f1bb 0f00 	cmp.w	fp, #0
87801d7a:	d02b      	beq.n	87801dd4 <vsscanf+0x564>
87801d7c:	f8de a000 	ldr.w	sl, [lr]
87801d80:	e7b4      	b.n	87801cec <vsscanf+0x47c>
87801d82:	f814 300a 	ldrb.w	r3, [r4, sl]
87801d86:	f013 0f44 	tst.w	r3, #68	; 0x44
87801d8a:	f47f aee4 	bne.w	87801b56 <vsscanf+0x2e6>
87801d8e:	e586      	b.n	8780189e <vsscanf+0x2e>
87801d90:	f814 300a 	ldrb.w	r3, [r4, sl]
87801d94:	069b      	lsls	r3, r3, #26
87801d96:	d535      	bpl.n	87801e04 <vsscanf+0x594>
87801d98:	f06f 4300 	mvn.w	r3, #2147483648	; 0x80000000
87801d9c:	e75c      	b.n	87801c58 <vsscanf+0x3e8>
87801d9e:	f10e 0b04 	add.w	fp, lr, #4
87801da2:	a901      	add	r1, sp, #4
87801da4:	f7ff f962 	bl	8780106c <simple_strtoull>
87801da8:	46de      	mov	lr, fp
87801daa:	e9ca 0100 	strd	r0, r1, [sl]
87801dae:	e7be      	b.n	87801d2e <vsscanf+0x4be>
87801db0:	f10e 0b04 	add.w	fp, lr, #4
87801db4:	a901      	add	r1, sp, #4
87801db6:	f7ff f8c5 	bl	87800f44 <simple_strtoul>
87801dba:	46de      	mov	lr, fp
87801dbc:	f88a 0000 	strb.w	r0, [sl]
87801dc0:	e7b5      	b.n	87801d2e <vsscanf+0x4be>
87801dc2:	f10e 0b04 	add.w	fp, lr, #4
87801dc6:	a901      	add	r1, sp, #4
87801dc8:	f7ff f8bc 	bl	87800f44 <simple_strtoul>
87801dcc:	46de      	mov	lr, fp
87801dce:	f8aa 0000 	strh.w	r0, [sl]
87801dd2:	e7ac      	b.n	87801d2e <vsscanf+0x4be>
87801dd4:	f8de a000 	ldr.w	sl, [lr]
87801dd8:	f10e 0b04 	add.w	fp, lr, #4
87801ddc:	a901      	add	r1, sp, #4
87801dde:	f7ff f8b1 	bl	87800f44 <simple_strtoul>
87801de2:	46de      	mov	lr, fp
87801de4:	f8ca 0000 	str.w	r0, [sl]
87801de8:	e7a1      	b.n	87801d2e <vsscanf+0x4be>
87801dea:	f105 0902 	add.w	r9, r5, #2
87801dee:	78a9      	ldrb	r1, [r5, #2]
87801df0:	f04f 0c48 	mov.w	ip, #72	; 0x48
87801df4:	e59c      	b.n	87801930 <vsscanf+0xc0>
87801df6:	f1ba 0f2d 	cmp.w	sl, #45	; 0x2d
87801dfa:	f04f 0b01 	mov.w	fp, #1
87801dfe:	f43f ae97 	beq.w	87801b30 <vsscanf+0x2c0>
87801e02:	e69e      	b.n	87801b42 <vsscanf+0x2d2>
87801e04:	4652      	mov	r2, sl
87801e06:	f06f 4300 	mvn.w	r3, #2147483648	; 0x80000000
87801e0a:	e72e      	b.n	87801c6a <vsscanf+0x3fa>

87801e0c <sscanf>:
87801e0c:	b40e      	push	{r1, r2, r3}
87801e0e:	b500      	push	{lr}
87801e10:	aa02      	add	r2, sp, #8
87801e12:	9901      	ldr	r1, [sp, #4]
87801e14:	f7ff fd2c 	bl	87801870 <vsscanf>
87801e18:	f85d eb04 	ldr.w	lr, [sp], #4
87801e1c:	b003      	add	sp, #12
87801e1e:	4770      	bx	lr

87801e20 <printf>:
87801e20:	b40f      	push	{r0, r1, r2, r3}
87801e22:	f64c 2070 	movw	r0, #51824	; 0xca70
87801e26:	b570      	push	{r4, r5, r6, lr}
87801e28:	f2c8 7080 	movt	r0, #34688	; 0x8780
87801e2c:	aa05      	add	r2, sp, #20
87801e2e:	2400      	movs	r4, #0
87801e30:	9904      	ldr	r1, [sp, #16]
87801e32:	f7ff fd0b 	bl	8780184c <vsprintf>
87801e36:	4d0b      	ldr	r5, [pc, #44]	; (87801e64 <printf+0x44>)
87801e38:	4606      	mov	r6, r0
87801e3a:	e003      	b.n	87801e44 <printf+0x24>
87801e3c:	f815 0f01 	ldrb.w	r0, [r5, #1]!
87801e40:	f000 fc08 	bl	87802654 <putc>
87801e44:	f64c 2070 	movw	r0, #51824	; 0xca70
87801e48:	f2c8 7080 	movt	r0, #34688	; 0x8780
87801e4c:	f7fe fce4 	bl	87800818 <strlen>
87801e50:	4284      	cmp	r4, r0
87801e52:	f104 0401 	add.w	r4, r4, #1
87801e56:	d3f1      	bcc.n	87801e3c <printf+0x1c>
87801e58:	4630      	mov	r0, r6
87801e5a:	e8bd 4070 	ldmia.w	sp!, {r4, r5, r6, lr}
87801e5e:	b004      	add	sp, #16
87801e60:	4770      	bx	lr
87801e62:	bf00      	nop
87801e64:	8780ca6f 	strhi	ip, [r0, pc, ror #20]

87801e68 <scanf>:
87801e68:	b40f      	push	{r0, r1, r2, r3}
87801e6a:	b570      	push	{r4, r5, r6, lr}
87801e6c:	2500      	movs	r5, #0
87801e6e:	4e10      	ldr	r6, [pc, #64]	; (87801eb0 <scanf+0x48>)
87801e70:	e002      	b.n	87801e78 <scanf+0x10>
87801e72:	3501      	adds	r5, #1
87801e74:	f806 4f01 	strb.w	r4, [r6, #1]!
87801e78:	f000 fbf8 	bl	8780266c <getc>
87801e7c:	4604      	mov	r4, r0
87801e7e:	f000 fbe9 	bl	87802654 <putc>
87801e82:	2c0d      	cmp	r4, #13
87801e84:	bf18      	it	ne
87801e86:	2c0a      	cmpne	r4, #10
87801e88:	d1f3      	bne.n	87801e72 <scanf+0xa>
87801e8a:	f64c 2070 	movw	r0, #51824	; 0xca70
87801e8e:	2300      	movs	r3, #0
87801e90:	f2c8 7080 	movt	r0, #34688	; 0x8780
87801e94:	aa05      	add	r2, sp, #20
87801e96:	4405      	add	r5, r0
87801e98:	9904      	ldr	r1, [sp, #16]
87801e9a:	f500 6080 	add.w	r0, r0, #1024	; 0x400
87801e9e:	f885 3400 	strb.w	r3, [r5, #1024]	; 0x400
87801ea2:	f7ff fce5 	bl	87801870 <vsscanf>
87801ea6:	e8bd 4070 	ldmia.w	sp!, {r4, r5, r6, lr}
87801eaa:	b004      	add	sp, #16
87801eac:	4770      	bx	lr
87801eae:	bf00      	nop
87801eb0:	8780ce6f 	strhi	ip, [r0, pc, ror #28]

87801eb4 <default_irqhandler>:
87801eb4:	4770      	bx	lr
87801eb6:	bf00      	nop

87801eb8 <sys_irqtable_init>:
87801eb8:	f24d 2370 	movw	r3, #53872	; 0xd270
87801ebc:	f641 62b5 	movw	r2, #7861	; 0x1eb5
87801ec0:	f2c8 7380 	movt	r3, #34688	; 0x8780
87801ec4:	f2c8 7280 	movt	r2, #34688	; 0x8780
87801ec8:	f503 60a0 	add.w	r0, r3, #1280	; 0x500
87801ecc:	2100      	movs	r1, #0
87801ece:	601a      	str	r2, [r3, #0]
87801ed0:	3308      	adds	r3, #8
87801ed2:	f843 1c04 	str.w	r1, [r3, #-4]
87801ed6:	4283      	cmp	r3, r0
87801ed8:	d1f9      	bne.n	87801ece <sys_irqtable_init+0x16>
87801eda:	4770      	bx	lr

87801edc <system_register_irqhandler>:
87801edc:	f24d 2370 	movw	r3, #53872	; 0xd270
87801ee0:	b410      	push	{r4}
87801ee2:	f2c8 7380 	movt	r3, #34688	; 0x8780
87801ee6:	eb03 04c0 	add.w	r4, r3, r0, lsl #3
87801eea:	f843 1030 	str.w	r1, [r3, r0, lsl #3]
87801eee:	6062      	str	r2, [r4, #4]
87801ef0:	f85d 4b04 	ldr.w	r4, [sp], #4
87801ef4:	4770      	bx	lr
87801ef6:	bf00      	nop

87801ef8 <int_init>:
87801ef8:	b4f0      	push	{r4, r5, r6, r7}
87801efa:	ee9f 4f10 	mrc	15, 4, r4, cr15, cr0, {0}
87801efe:	0c24      	lsrs	r4, r4, #16
87801f00:	f241 0204 	movw	r2, #4100	; 0x1004
87801f04:	2300      	movs	r3, #0
87801f06:	0424      	lsls	r4, r4, #16
87801f08:	f04f 30ff 	mov.w	r0, #4294967295	; 0xffffffff
87801f0c:	58a1      	ldr	r1, [r4, r2]
87801f0e:	f001 011f 	and.w	r1, r1, #31
87801f12:	3101      	adds	r1, #1
87801f14:	f503 628c 	add.w	r2, r3, #1120	; 0x460
87801f18:	3301      	adds	r3, #1
87801f1a:	4299      	cmp	r1, r3
87801f1c:	f844 0022 	str.w	r0, [r4, r2, lsl #2]
87801f20:	d1f8      	bne.n	87801f14 <int_init+0x1c>
87801f22:	f24d 2370 	movw	r3, #53872	; 0xd270
87801f26:	f242 0604 	movw	r6, #8196	; 0x2004
87801f2a:	27f8      	movs	r7, #248	; 0xf8
87801f2c:	f641 62b5 	movw	r2, #7861	; 0x1eb5
87801f30:	f2c8 7380 	movt	r3, #34688	; 0x8780
87801f34:	51a7      	str	r7, [r4, r6]
87801f36:	f242 0508 	movw	r5, #8200	; 0x2008
87801f3a:	2702      	movs	r7, #2
87801f3c:	f2c8 7280 	movt	r2, #34688	; 0x8780
87801f40:	f503 60a0 	add.w	r0, r3, #1280	; 0x500
87801f44:	2100      	movs	r1, #0
87801f46:	5167      	str	r7, [r4, r5]
87801f48:	f504 5680 	add.w	r6, r4, #4096	; 0x1000
87801f4c:	2501      	movs	r5, #1
87801f4e:	f504 5400 	add.w	r4, r4, #8192	; 0x2000
87801f52:	6035      	str	r5, [r6, #0]
87801f54:	6025      	str	r5, [r4, #0]
87801f56:	601a      	str	r2, [r3, #0]
87801f58:	3308      	adds	r3, #8
87801f5a:	f843 1c04 	str.w	r1, [r3, #-4]
87801f5e:	4283      	cmp	r3, r0
87801f60:	d1f9      	bne.n	87801f56 <int_init+0x5e>
87801f62:	2300      	movs	r3, #0
87801f64:	f2c8 7380 	movt	r3, #34688	; 0x8780
87801f68:	ee0c 3f10 	mcr	15, 0, r3, cr12, cr0, {0}
87801f6c:	bcf0      	pop	{r4, r5, r6, r7}
87801f6e:	4770      	bx	lr

87801f70 <vApplicationIRQHandler>:
87801f70:	f3c0 0309 	ubfx	r3, r0, #0, #10
87801f74:	2b9f      	cmp	r3, #159	; 0x9f
87801f76:	d900      	bls.n	87801f7a <vApplicationIRQHandler+0xa>
87801f78:	4770      	bx	lr
87801f7a:	f24d 2270 	movw	r2, #53872	; 0xd270
87801f7e:	4618      	mov	r0, r3
87801f80:	f2c8 7280 	movt	r2, #34688	; 0x8780
87801f84:	eb02 01c3 	add.w	r1, r2, r3, lsl #3
87801f88:	f852 3033 	ldr.w	r3, [r2, r3, lsl #3]
87801f8c:	6849      	ldr	r1, [r1, #4]
87801f8e:	4718      	bx	r3

87801f90 <GPIO1_IO18_irqhandler>:
87801f90:	b508      	push	{r3, lr}
87801f92:	200a      	movs	r0, #10
87801f94:	f000 f9fc 	bl	87802390 <delay_ms>
87801f98:	f44f 4040 	mov.w	r0, #49152	; 0xc000
87801f9c:	2112      	movs	r1, #18
87801f9e:	f2c0 2009 	movt	r0, #521	; 0x209
87801fa2:	f000 f849 	bl	87802038 <gpio_pinread>
87801fa6:	b958      	cbnz	r0, 87801fc0 <GPIO1_IO18_irqhandler+0x30>
87801fa8:	f24d 7270 	movw	r2, #55152	; 0xd770
87801fac:	f2c8 7280 	movt	r2, #34688	; 0x8780
87801fb0:	6813      	ldr	r3, [r2, #0]
87801fb2:	fab3 f383 	clz	r3, r3
87801fb6:	095b      	lsrs	r3, r3, #5
87801fb8:	4618      	mov	r0, r3
87801fba:	6013      	str	r3, [r2, #0]
87801fbc:	f000 fa18 	bl	878023f0 <beep_switch>
87801fc0:	f44f 4040 	mov.w	r0, #49152	; 0xc000
87801fc4:	2112      	movs	r1, #18
87801fc6:	f2c0 2009 	movt	r0, #521	; 0x209
87801fca:	e8bd 4008 	ldmia.w	sp!, {r3, lr}
87801fce:	f000 b8b9 	b.w	87802144 <gpio_clearintflags>
87801fd2:	bf00      	nop

87801fd4 <exti_init>:
87801fd4:	228c      	movs	r2, #140	; 0x8c
87801fd6:	f44f 7346 	mov.w	r3, #792	; 0x318
87801fda:	b570      	push	{r4, r5, r6, lr}
87801fdc:	f2c0 220e 	movt	r2, #526	; 0x20e
87801fe0:	2005      	movs	r0, #5
87801fe2:	f2c0 230e 	movt	r3, #526	; 0x20e
87801fe6:	f24f 0180 	movw	r1, #61568	; 0xf080
87801fea:	f44f 4440 	mov.w	r4, #49152	; 0xc000
87801fee:	6010      	str	r0, [r2, #0]
87801ff0:	b084      	sub	sp, #16
87801ff2:	6019      	str	r1, [r3, #0]
87801ff4:	f2c0 2409 	movt	r4, #521	; 0x209
87801ff8:	2304      	movs	r3, #4
87801ffa:	4620      	mov	r0, r4
87801ffc:	2500      	movs	r5, #0
87801ffe:	eb0d 0203 	add.w	r2, sp, r3
87802002:	2112      	movs	r1, #18
87802004:	9501      	str	r5, [sp, #4]
87802006:	9303      	str	r3, [sp, #12]
87802008:	f000 f86a 	bl	878020e0 <gpio_init>
8780200c:	ee9f 3f10 	mrc	15, 4, r3, cr15, cr0, {0}
87802010:	0c1b      	lsrs	r3, r3, #16
87802012:	f241 100c 	movw	r0, #4364	; 0x110c
87802016:	2608      	movs	r6, #8
87802018:	041b      	lsls	r3, r3, #16
8780201a:	f641 7191 	movw	r1, #8081	; 0x1f91
8780201e:	462a      	mov	r2, r5
87802020:	501e      	str	r6, [r3, r0]
87802022:	f2c8 7180 	movt	r1, #34688	; 0x8780
87802026:	2063      	movs	r0, #99	; 0x63
87802028:	f7ff ff58 	bl	87801edc <system_register_irqhandler>
8780202c:	4620      	mov	r0, r4
8780202e:	2112      	movs	r1, #18
87802030:	f000 f87a 	bl	87802128 <gpio_enableint>
87802034:	b004      	add	sp, #16
87802036:	bd70      	pop	{r4, r5, r6, pc}

87802038 <gpio_pinread>:
87802038:	6800      	ldr	r0, [r0, #0]
8780203a:	40c8      	lsrs	r0, r1
8780203c:	f000 0001 	and.w	r0, r0, #1
87802040:	4770      	bx	lr
87802042:	bf00      	nop

87802044 <gpio_pinwrite>:
87802044:	2301      	movs	r3, #1
87802046:	b122      	cbz	r2, 87802052 <gpio_pinwrite+0xe>
87802048:	6802      	ldr	r2, [r0, #0]
8780204a:	408b      	lsls	r3, r1
8780204c:	4313      	orrs	r3, r2
8780204e:	6003      	str	r3, [r0, #0]
87802050:	4770      	bx	lr
87802052:	6802      	ldr	r2, [r0, #0]
87802054:	408b      	lsls	r3, r1
87802056:	ea22 0303 	bic.w	r3, r2, r3
8780205a:	6003      	str	r3, [r0, #0]
8780205c:	4770      	bx	lr
8780205e:	bf00      	nop

87802060 <gpio_intconfig>:
87802060:	b430      	push	{r4, r5}
87802062:	2301      	movs	r3, #1
87802064:	69c4      	ldr	r4, [r0, #28]
87802066:	408b      	lsls	r3, r1
87802068:	290f      	cmp	r1, #15
8780206a:	f102 32ff 	add.w	r2, r2, #4294967295	; 0xffffffff
8780206e:	bf88      	it	hi
87802070:	3910      	subhi	r1, #16
87802072:	ea24 0403 	bic.w	r4, r4, r3
87802076:	61c4      	str	r4, [r0, #28]
87802078:	bf94      	ite	ls
8780207a:	f100 040c 	addls.w	r4, r0, #12
8780207e:	f100 0410 	addhi.w	r4, r0, #16
87802082:	2a04      	cmp	r2, #4
87802084:	d80f      	bhi.n	878020a6 <gpio_intconfig+0x46>
87802086:	e8df f002 	tbb	[pc, r2]
8780208a:	231e0315 	tstcs	lr, #1409286144	; 0x54000000
8780208e:	68200010 	stmdavs	r0!, {r4}
87802092:	0049      	lsls	r1, r1, #1
87802094:	2503      	movs	r5, #3
87802096:	2301      	movs	r3, #1
87802098:	408d      	lsls	r5, r1
8780209a:	fa03 f201 	lsl.w	r2, r3, r1
8780209e:	ea20 0305 	bic.w	r3, r0, r5
878020a2:	4313      	orrs	r3, r2
878020a4:	6023      	str	r3, [r4, #0]
878020a6:	bc30      	pop	{r4, r5}
878020a8:	4770      	bx	lr
878020aa:	69c2      	ldr	r2, [r0, #28]
878020ac:	bc30      	pop	{r4, r5}
878020ae:	4313      	orrs	r3, r2
878020b0:	61c3      	str	r3, [r0, #28]
878020b2:	4770      	bx	lr
878020b4:	0049      	lsls	r1, r1, #1
878020b6:	6822      	ldr	r2, [r4, #0]
878020b8:	2303      	movs	r3, #3
878020ba:	408b      	lsls	r3, r1
878020bc:	ea22 0303 	bic.w	r3, r2, r3
878020c0:	6023      	str	r3, [r4, #0]
878020c2:	bc30      	pop	{r4, r5}
878020c4:	4770      	bx	lr
878020c6:	0049      	lsls	r1, r1, #1
878020c8:	2503      	movs	r5, #3
878020ca:	6820      	ldr	r0, [r4, #0]
878020cc:	2302      	movs	r3, #2
878020ce:	e7e3      	b.n	87802098 <gpio_intconfig+0x38>
878020d0:	0049      	lsls	r1, r1, #1
878020d2:	6822      	ldr	r2, [r4, #0]
878020d4:	2303      	movs	r3, #3
878020d6:	408b      	lsls	r3, r1
878020d8:	4313      	orrs	r3, r2
878020da:	6023      	str	r3, [r4, #0]
878020dc:	bc30      	pop	{r4, r5}
878020de:	4770      	bx	lr

878020e0 <gpio_init>:
878020e0:	2301      	movs	r3, #1
878020e2:	b470      	push	{r4, r5, r6}
878020e4:	408b      	lsls	r3, r1
878020e6:	6944      	ldr	r4, [r0, #20]
878020e8:	6816      	ldr	r6, [r2, #0]
878020ea:	43dd      	mvns	r5, r3
878020ec:	402c      	ands	r4, r5
878020ee:	6144      	str	r4, [r0, #20]
878020f0:	b15e      	cbz	r6, 8780210a <gpio_init+0x2a>
878020f2:	6844      	ldr	r4, [r0, #4]
878020f4:	431c      	orrs	r4, r3
878020f6:	6044      	str	r4, [r0, #4]
878020f8:	7914      	ldrb	r4, [r2, #4]
878020fa:	b16c      	cbz	r4, 87802118 <gpio_init+0x38>
878020fc:	6804      	ldr	r4, [r0, #0]
878020fe:	6892      	ldr	r2, [r2, #8]
87802100:	4323      	orrs	r3, r4
87802102:	bc70      	pop	{r4, r5, r6}
87802104:	6003      	str	r3, [r0, #0]
87802106:	f7ff bfab 	b.w	87802060 <gpio_intconfig>
8780210a:	6843      	ldr	r3, [r0, #4]
8780210c:	6892      	ldr	r2, [r2, #8]
8780210e:	401d      	ands	r5, r3
87802110:	6045      	str	r5, [r0, #4]
87802112:	bc70      	pop	{r4, r5, r6}
87802114:	f7ff bfa4 	b.w	87802060 <gpio_intconfig>
87802118:	6803      	ldr	r3, [r0, #0]
8780211a:	6892      	ldr	r2, [r2, #8]
8780211c:	401d      	ands	r5, r3
8780211e:	6005      	str	r5, [r0, #0]
87802120:	bc70      	pop	{r4, r5, r6}
87802122:	f7ff bf9d 	b.w	87802060 <gpio_intconfig>
87802126:	bf00      	nop

87802128 <gpio_enableint>:
87802128:	6943      	ldr	r3, [r0, #20]
8780212a:	2201      	movs	r2, #1
8780212c:	408a      	lsls	r2, r1
8780212e:	4313      	orrs	r3, r2
87802130:	6143      	str	r3, [r0, #20]
87802132:	4770      	bx	lr

87802134 <gpio_disableint>:
87802134:	6943      	ldr	r3, [r0, #20]
87802136:	2201      	movs	r2, #1
87802138:	408a      	lsls	r2, r1
8780213a:	ea23 0302 	bic.w	r3, r3, r2
8780213e:	6143      	str	r3, [r0, #20]
87802140:	4770      	bx	lr
87802142:	bf00      	nop

87802144 <gpio_clearintflags>:
87802144:	6983      	ldr	r3, [r0, #24]
87802146:	2201      	movs	r2, #1
87802148:	408a      	lsls	r2, r1
8780214a:	4313      	orrs	r3, r2
8780214c:	6183      	str	r3, [r0, #24]
8780214e:	4770      	bx	lr

87802150 <clock_enable>:
87802150:	f44f 4380 	mov.w	r3, #16384	; 0x4000
87802154:	f04f 32ff 	mov.w	r2, #4294967295	; 0xffffffff
87802158:	f2c0 230c 	movt	r3, #524	; 0x20c
8780215c:	66da      	str	r2, [r3, #108]	; 0x6c
8780215e:	671a      	str	r2, [r3, #112]	; 0x70
87802160:	675a      	str	r2, [r3, #116]	; 0x74
87802162:	679a      	str	r2, [r3, #120]	; 0x78
87802164:	67da      	str	r2, [r3, #124]	; 0x7c
87802166:	f8c3 2080 	str.w	r2, [r3, #128]	; 0x80
8780216a:	4770      	bx	lr

8780216c <imx6u_clk_init>:
8780216c:	f44f 4380 	mov.w	r3, #16384	; 0x4000
87802170:	b430      	push	{r4, r5}
87802172:	f2c0 230c 	movt	r3, #524	; 0x20c
87802176:	68da      	ldr	r2, [r3, #12]
87802178:	0754      	lsls	r4, r2, #29
8780217a:	d407      	bmi.n	8780218c <imx6u_clk_init+0x20>
8780217c:	68da      	ldr	r2, [r3, #12]
8780217e:	f422 7280 	bic.w	r2, r2, #256	; 0x100
87802182:	60da      	str	r2, [r3, #12]
87802184:	68da      	ldr	r2, [r3, #12]
87802186:	f042 0204 	orr.w	r2, r2, #4
8780218a:	60da      	str	r2, [r3, #12]
8780218c:	f44f 4200 	mov.w	r2, #32768	; 0x8000
87802190:	f44f 4380 	mov.w	r3, #16384	; 0x4000
87802194:	f2c0 230c 	movt	r3, #524	; 0x20c
87802198:	f2c0 220c 	movt	r2, #524	; 0x20c
8780219c:	f242 0058 	movw	r0, #8280	; 0x2058
878021a0:	2101      	movs	r1, #1
878021a2:	6010      	str	r0, [r2, #0]
878021a4:	f241 041b 	movw	r4, #4123	; 0x101b
878021a8:	6119      	str	r1, [r3, #16]
878021aa:	f2c2 0418 	movt	r4, #8216	; 0x2018
878021ae:	68dd      	ldr	r5, [r3, #12]
878021b0:	f241 000c 	movw	r0, #4108	; 0x100c
878021b4:	f2c1 3011 	movt	r0, #4881	; 0x1311
878021b8:	4619      	mov	r1, r3
878021ba:	f025 0504 	bic.w	r5, r5, #4
878021be:	60dd      	str	r5, [r3, #12]
878021c0:	f8d2 5100 	ldr.w	r5, [r2, #256]	; 0x100
878021c4:	f005 35c0 	and.w	r5, r5, #3233857728	; 0xc0c0c0c0
878021c8:	432c      	orrs	r4, r5
878021ca:	f8c2 4100 	str.w	r4, [r2, #256]	; 0x100
878021ce:	f8d2 40f0 	ldr.w	r4, [r2, #240]	; 0xf0
878021d2:	f004 34c0 	and.w	r4, r4, #3233857728	; 0xc0c0c0c0
878021d6:	4320      	orrs	r0, r4
878021d8:	f8c2 00f0 	str.w	r0, [r2, #240]	; 0xf0
878021dc:	699a      	ldr	r2, [r3, #24]
878021de:	f422 2240 	bic.w	r2, r2, #786432	; 0xc0000
878021e2:	619a      	str	r2, [r3, #24]
878021e4:	699a      	ldr	r2, [r3, #24]
878021e6:	f442 2280 	orr.w	r2, r2, #262144	; 0x40000
878021ea:	619a      	str	r2, [r3, #24]
878021ec:	695a      	ldr	r2, [r3, #20]
878021ee:	f022 7200 	bic.w	r2, r2, #33554432	; 0x2000000
878021f2:	615a      	str	r2, [r3, #20]
878021f4:	6c8a      	ldr	r2, [r1, #72]	; 0x48
878021f6:	f44f 4380 	mov.w	r3, #16384	; 0x4000
878021fa:	f2c0 230c 	movt	r3, #524	; 0x20c
878021fe:	0690      	lsls	r0, r2, #26
87802200:	d4f8      	bmi.n	878021f4 <imx6u_clk_init+0x88>
87802202:	695a      	ldr	r2, [r3, #20]
87802204:	4619      	mov	r1, r3
87802206:	f422 52e0 	bic.w	r2, r2, #7168	; 0x1c00
8780220a:	f442 6200 	orr.w	r2, r2, #2048	; 0x800
8780220e:	615a      	str	r2, [r3, #20]
87802210:	6c8a      	ldr	r2, [r1, #72]	; 0x48
87802212:	f44f 4380 	mov.w	r3, #16384	; 0x4000
87802216:	f2c0 230c 	movt	r3, #524	; 0x20c
8780221a:	0792      	lsls	r2, r2, #30
8780221c:	d4f8      	bmi.n	87802210 <imx6u_clk_init+0xa4>
8780221e:	695a      	ldr	r2, [r3, #20]
87802220:	bc30      	pop	{r4, r5}
87802222:	f422 7240 	bic.w	r2, r2, #768	; 0x300
87802226:	f442 7280 	orr.w	r2, r2, #256	; 0x100
8780222a:	615a      	str	r2, [r3, #20]
8780222c:	69da      	ldr	r2, [r3, #28]
8780222e:	f022 0240 	bic.w	r2, r2, #64	; 0x40
87802232:	61da      	str	r2, [r3, #28]
87802234:	69da      	ldr	r2, [r3, #28]
87802236:	f022 023f 	bic.w	r2, r2, #63	; 0x3f
8780223a:	61da      	str	r2, [r3, #28]
8780223c:	6a5a      	ldr	r2, [r3, #36]	; 0x24
8780223e:	f022 0240 	bic.w	r2, r2, #64	; 0x40
87802242:	625a      	str	r2, [r3, #36]	; 0x24
87802244:	6a5a      	ldr	r2, [r3, #36]	; 0x24
87802246:	f022 023f 	bic.w	r2, r2, #63	; 0x3f
8780224a:	625a      	str	r2, [r3, #36]	; 0x24
8780224c:	4770      	bx	lr
8780224e:	bf00      	nop

87802250 <led_init>:
87802250:	2068      	movs	r0, #104	; 0x68
87802252:	f44f 713d 	mov.w	r1, #756	; 0x2f4
87802256:	f44f 4340 	mov.w	r3, #49152	; 0xc000
8780225a:	b430      	push	{r4, r5}
8780225c:	f2c0 2309 	movt	r3, #521	; 0x209
87802260:	2505      	movs	r5, #5
87802262:	f241 04b0 	movw	r4, #4272	; 0x10b0
87802266:	2208      	movs	r2, #8
87802268:	f2c0 200e 	movt	r0, #526	; 0x20e
8780226c:	f2c0 210e 	movt	r1, #526	; 0x20e
87802270:	6005      	str	r5, [r0, #0]
87802272:	600c      	str	r4, [r1, #0]
87802274:	605a      	str	r2, [r3, #4]
87802276:	bc30      	pop	{r4, r5}
87802278:	601a      	str	r2, [r3, #0]
8780227a:	4770      	bx	lr

8780227c <led_on>:
8780227c:	f44f 4340 	mov.w	r3, #49152	; 0xc000
87802280:	f2c0 2309 	movt	r3, #521	; 0x209
87802284:	681a      	ldr	r2, [r3, #0]
87802286:	f022 0208 	bic.w	r2, r2, #8
8780228a:	601a      	str	r2, [r3, #0]
8780228c:	4770      	bx	lr
8780228e:	bf00      	nop

87802290 <led_off>:
87802290:	f44f 4340 	mov.w	r3, #49152	; 0xc000
87802294:	f2c0 2309 	movt	r3, #521	; 0x209
87802298:	681a      	ldr	r2, [r3, #0]
8780229a:	f042 0208 	orr.w	r2, r2, #8
8780229e:	601a      	str	r2, [r3, #0]
878022a0:	4770      	bx	lr
878022a2:	bf00      	nop

878022a4 <led_switch>:
878022a4:	b950      	cbnz	r0, 878022bc <led_switch+0x18>
878022a6:	2901      	cmp	r1, #1
878022a8:	d009      	beq.n	878022be <led_switch+0x1a>
878022aa:	b939      	cbnz	r1, 878022bc <led_switch+0x18>
878022ac:	f44f 4340 	mov.w	r3, #49152	; 0xc000
878022b0:	f2c0 2309 	movt	r3, #521	; 0x209
878022b4:	681a      	ldr	r2, [r3, #0]
878022b6:	f042 0208 	orr.w	r2, r2, #8
878022ba:	601a      	str	r2, [r3, #0]
878022bc:	4770      	bx	lr
878022be:	f44f 4340 	mov.w	r3, #49152	; 0xc000
878022c2:	f2c0 2309 	movt	r3, #521	; 0x209
878022c6:	681a      	ldr	r2, [r3, #0]
878022c8:	f022 0208 	bic.w	r2, r2, #8
878022cc:	601a      	str	r2, [r3, #0]
878022ce:	4770      	bx	lr

878022d0 <HPdelay_init>:
878022d0:	f44f 4300 	mov.w	r3, #32768	; 0x8000
878022d4:	2000      	movs	r0, #0
878022d6:	f2c0 2309 	movt	r3, #521	; 0x209
878022da:	f44f 4200 	mov.w	r2, #32768	; 0x8000
878022de:	4619      	mov	r1, r3
878022e0:	6018      	str	r0, [r3, #0]
878022e2:	601a      	str	r2, [r3, #0]
878022e4:	680a      	ldr	r2, [r1, #0]
878022e6:	f44f 4300 	mov.w	r3, #32768	; 0x8000
878022ea:	f2c0 2309 	movt	r3, #521	; 0x209
878022ee:	0412      	lsls	r2, r2, #16
878022f0:	d4f8      	bmi.n	878022e4 <HPdelay_init+0x14>
878022f2:	681a      	ldr	r2, [r3, #0]
878022f4:	2041      	movs	r0, #65	; 0x41
878022f6:	f04f 31ff 	mov.w	r1, #4294967295	; 0xffffffff
878022fa:	f042 0242 	orr.w	r2, r2, #66	; 0x42
878022fe:	601a      	str	r2, [r3, #0]
87802300:	6058      	str	r0, [r3, #4]
87802302:	6119      	str	r1, [r3, #16]
87802304:	681a      	ldr	r2, [r3, #0]
87802306:	f042 0201 	orr.w	r2, r2, #1
8780230a:	601a      	str	r2, [r3, #0]
8780230c:	4770      	bx	lr
8780230e:	bf00      	nop

87802310 <HPdelay_us>:
87802310:	f44f 4100 	mov.w	r1, #32768	; 0x8000
87802314:	b430      	push	{r4, r5}
87802316:	f2c0 2109 	movt	r1, #521	; 0x209
8780231a:	2400      	movs	r4, #0
8780231c:	6a4a      	ldr	r2, [r1, #36]	; 0x24
8780231e:	6a4b      	ldr	r3, [r1, #36]	; 0x24
87802320:	4293      	cmp	r3, r2
87802322:	d0fc      	beq.n	8780231e <HPdelay_us+0xe>
87802324:	1e65      	subs	r5, r4, #1
87802326:	429a      	cmp	r2, r3
87802328:	eba4 0402 	sub.w	r4, r4, r2
8780232c:	eba5 0502 	sub.w	r5, r5, r2
87802330:	bf34      	ite	cc
87802332:	18e4      	addcc	r4, r4, r3
87802334:	18ec      	addcs	r4, r5, r3
87802336:	4284      	cmp	r4, r0
87802338:	461a      	mov	r2, r3
8780233a:	d3f0      	bcc.n	8780231e <HPdelay_us+0xe>
8780233c:	bc30      	pop	{r4, r5}
8780233e:	4770      	bx	lr

87802340 <HPdelay_ms>:
87802340:	b1d8      	cbz	r0, 8780237a <HPdelay_ms+0x3a>
87802342:	f44f 4100 	mov.w	r1, #32768	; 0x8000
87802346:	b470      	push	{r4, r5, r6}
87802348:	f2c0 2109 	movt	r1, #521	; 0x209
8780234c:	2600      	movs	r6, #0
8780234e:	2400      	movs	r4, #0
87802350:	6a4a      	ldr	r2, [r1, #36]	; 0x24
87802352:	6a4b      	ldr	r3, [r1, #36]	; 0x24
87802354:	4293      	cmp	r3, r2
87802356:	d0fc      	beq.n	87802352 <HPdelay_ms+0x12>
87802358:	1e65      	subs	r5, r4, #1
8780235a:	429a      	cmp	r2, r3
8780235c:	eba4 0402 	sub.w	r4, r4, r2
87802360:	eba5 0502 	sub.w	r5, r5, r2
87802364:	bf34      	ite	cc
87802366:	18e4      	addcc	r4, r4, r3
87802368:	18ec      	addcs	r4, r5, r3
8780236a:	f5b4 7f7a 	cmp.w	r4, #1000	; 0x3e8
8780236e:	461a      	mov	r2, r3
87802370:	d3ef      	bcc.n	87802352 <HPdelay_ms+0x12>
87802372:	3601      	adds	r6, #1
87802374:	4286      	cmp	r6, r0
87802376:	d1ea      	bne.n	8780234e <HPdelay_ms+0xe>
87802378:	bc70      	pop	{r4, r5, r6}
8780237a:	4770      	bx	lr

8780237c <delay_short>:
8780237c:	b082      	sub	sp, #8
8780237e:	9001      	str	r0, [sp, #4]
87802380:	9b01      	ldr	r3, [sp, #4]
87802382:	1e5a      	subs	r2, r3, #1
87802384:	9201      	str	r2, [sp, #4]
87802386:	2b00      	cmp	r3, #0
87802388:	d1fa      	bne.n	87802380 <delay_short+0x4>
8780238a:	b002      	add	sp, #8
8780238c:	4770      	bx	lr
8780238e:	bf00      	nop

87802390 <delay_ms>:
87802390:	b082      	sub	sp, #8
87802392:	9001      	str	r0, [sp, #4]
87802394:	9b01      	ldr	r3, [sp, #4]
87802396:	1e5a      	subs	r2, r3, #1
87802398:	9201      	str	r2, [sp, #4]
8780239a:	b153      	cbz	r3, 878023b2 <delay_ms+0x22>
8780239c:	f240 73ff 	movw	r3, #2047	; 0x7ff
878023a0:	461a      	mov	r2, r3
878023a2:	3b01      	subs	r3, #1
878023a4:	2a00      	cmp	r2, #0
878023a6:	d1fb      	bne.n	878023a0 <delay_ms+0x10>
878023a8:	9b01      	ldr	r3, [sp, #4]
878023aa:	1e5a      	subs	r2, r3, #1
878023ac:	9201      	str	r2, [sp, #4]
878023ae:	2b00      	cmp	r3, #0
878023b0:	d1f4      	bne.n	8780239c <delay_ms+0xc>
878023b2:	b002      	add	sp, #8
878023b4:	4770      	bx	lr
878023b6:	bf00      	nop

878023b8 <beep_init>:
878023b8:	210c      	movs	r1, #12
878023ba:	2250      	movs	r2, #80	; 0x50
878023bc:	f44f 4340 	mov.w	r3, #49152	; 0xc000
878023c0:	b410      	push	{r4}
878023c2:	f2c0 230a 	movt	r3, #522	; 0x20a
878023c6:	2405      	movs	r4, #5
878023c8:	f2c0 2229 	movt	r2, #553	; 0x229
878023cc:	f2c0 2129 	movt	r1, #553	; 0x229
878023d0:	f241 00b0 	movw	r0, #4272	; 0x10b0
878023d4:	600c      	str	r4, [r1, #0]
878023d6:	6010      	str	r0, [r2, #0]
878023d8:	685a      	ldr	r2, [r3, #4]
878023da:	f85d 4b04 	ldr.w	r4, [sp], #4
878023de:	f042 0202 	orr.w	r2, r2, #2
878023e2:	605a      	str	r2, [r3, #4]
878023e4:	681a      	ldr	r2, [r3, #0]
878023e6:	f042 0202 	orr.w	r2, r2, #2
878023ea:	601a      	str	r2, [r3, #0]
878023ec:	4770      	bx	lr
878023ee:	bf00      	nop

878023f0 <beep_switch>:
878023f0:	2801      	cmp	r0, #1
878023f2:	d009      	beq.n	87802408 <beep_switch+0x18>
878023f4:	b938      	cbnz	r0, 87802406 <beep_switch+0x16>
878023f6:	f44f 4340 	mov.w	r3, #49152	; 0xc000
878023fa:	f2c0 230a 	movt	r3, #522	; 0x20a
878023fe:	681a      	ldr	r2, [r3, #0]
87802400:	f042 0202 	orr.w	r2, r2, #2
87802404:	601a      	str	r2, [r3, #0]
87802406:	4770      	bx	lr
87802408:	f44f 4340 	mov.w	r3, #49152	; 0xc000
8780240c:	f2c0 230a 	movt	r3, #522	; 0x20a
87802410:	681a      	ldr	r2, [r3, #0]
87802412:	f022 0202 	bic.w	r2, r2, #2
87802416:	601a      	str	r2, [r3, #0]
87802418:	4770      	bx	lr
8780241a:	bf00      	nop

8780241c <epit2_irqhandler>:
8780241c:	f44f 4380 	mov.w	r3, #16384	; 0x4000
87802420:	f2c0 230d 	movt	r3, #525	; 0x20d
87802424:	685b      	ldr	r3, [r3, #4]
87802426:	07db      	lsls	r3, r3, #31
87802428:	d50a      	bpl.n	87802440 <epit2_irqhandler+0x24>
8780242a:	f244 13b0 	movw	r3, #16816	; 0x41b0
8780242e:	f2c8 7382 	movt	r3, #34690	; 0x8782
87802432:	e9d3 0100 	ldrd	r0, r1, [r3]
87802436:	3001      	adds	r0, #1
87802438:	f141 0100 	adc.w	r1, r1, #0
8780243c:	e9c3 0100 	strd	r0, r1, [r3]
87802440:	f44f 4380 	mov.w	r3, #16384	; 0x4000
87802444:	f2c0 230d 	movt	r3, #525	; 0x20d
87802448:	685a      	ldr	r2, [r3, #4]
8780244a:	f042 0201 	orr.w	r2, r2, #1
8780244e:	605a      	str	r2, [r3, #4]
87802450:	4770      	bx	lr
87802452:	bf00      	nop

87802454 <vInitialiseTimerForRunTimeStats>:
87802454:	efc0 0010 	vmov.i32	d16, #0	; 0x00000000
87802458:	210e      	movs	r1, #14
8780245a:	b538      	push	{r3, r4, r5, lr}
8780245c:	f244 13b0 	movw	r3, #16816	; 0x41b0
87802460:	f44f 4480 	mov.w	r4, #16384	; 0x4000
87802464:	2200      	movs	r2, #0
87802466:	f2c0 240d 	movt	r4, #525	; 0x20d
8780246a:	f2c8 7382 	movt	r3, #34690	; 0x8782
8780246e:	f2c0 1100 	movt	r1, #256	; 0x100
87802472:	f640 40e4 	movw	r0, #3300	; 0xce4
87802476:	edc3 0b00 	vstr	d16, [r3]
8780247a:	6022      	str	r2, [r4, #0]
8780247c:	6021      	str	r1, [r4, #0]
8780247e:	60a0      	str	r0, [r4, #8]
87802480:	60e2      	str	r2, [r4, #12]
87802482:	ee9f 3f10 	mrc	15, 4, r3, cr15, cr0, {0}
87802486:	0c1b      	lsrs	r3, r3, #16
87802488:	f241 1008 	movw	r0, #4360	; 0x1108
8780248c:	f04f 7500 	mov.w	r5, #33554432	; 0x2000000
87802490:	041b      	lsls	r3, r3, #16
87802492:	f242 411d 	movw	r1, #9245	; 0x241d
87802496:	f2c8 7180 	movt	r1, #34688	; 0x8780
8780249a:	501d      	str	r5, [r3, r0]
8780249c:	2059      	movs	r0, #89	; 0x59
8780249e:	f7ff fd1d 	bl	87801edc <system_register_irqhandler>
878024a2:	6823      	ldr	r3, [r4, #0]
878024a4:	f043 0301 	orr.w	r3, r3, #1
878024a8:	6023      	str	r3, [r4, #0]
878024aa:	bd38      	pop	{r3, r4, r5, pc}

878024ac <vConfigureTickInterrupt>:
878024ac:	b538      	push	{r3, r4, r5, lr}
878024ae:	210a      	movs	r1, #10
878024b0:	2400      	movs	r4, #0
878024b2:	f44f 73e8 	mov.w	r3, #464	; 0x1d0
878024b6:	f2c0 240d 	movt	r4, #525	; 0x20d
878024ba:	2200      	movs	r2, #0
878024bc:	f2c0 1100 	movt	r1, #256	; 0x100
878024c0:	f2c0 0301 	movt	r3, #1
878024c4:	6022      	str	r2, [r4, #0]
878024c6:	6021      	str	r1, [r4, #0]
878024c8:	60a3      	str	r3, [r4, #8]
878024ca:	60e2      	str	r2, [r4, #12]
878024cc:	ee9f 3f10 	mrc	15, 4, r3, cr15, cr0, {0}
878024d0:	0c1b      	lsrs	r3, r3, #16
878024d2:	f241 4058 	movw	r0, #5208	; 0x1458
878024d6:	2580      	movs	r5, #128	; 0x80
878024d8:	041b      	lsls	r3, r3, #16
878024da:	f646 71cd 	movw	r1, #28621	; 0x6fcd
878024de:	f2c8 7180 	movt	r1, #34688	; 0x8780
878024e2:	541d      	strb	r5, [r3, r0]
878024e4:	2058      	movs	r0, #88	; 0x58
878024e6:	f7ff fcf9 	bl	87801edc <system_register_irqhandler>
878024ea:	6823      	ldr	r3, [r4, #0]
878024ec:	f043 0301 	orr.w	r3, r3, #1
878024f0:	6023      	str	r3, [r4, #0]
878024f2:	ee9f 3f10 	mrc	15, 4, r3, cr15, cr0, {0}
878024f6:	0c1b      	lsrs	r3, r3, #16
878024f8:	f241 1208 	movw	r2, #4360	; 0x1108
878024fc:	f04f 7180 	mov.w	r1, #16777216	; 0x1000000
87802500:	041b      	lsls	r3, r3, #16
87802502:	5099      	str	r1, [r3, r2]
87802504:	6863      	ldr	r3, [r4, #4]
87802506:	f043 0301 	orr.w	r3, r3, #1
8780250a:	6063      	str	r3, [r4, #4]
8780250c:	6823      	ldr	r3, [r4, #0]
8780250e:	f043 0304 	orr.w	r3, r3, #4
87802512:	6023      	str	r3, [r4, #0]
87802514:	bd38      	pop	{r3, r4, r5, pc}
87802516:	bf00      	nop

87802518 <vClearTickInterrupt>:
87802518:	2300      	movs	r3, #0
8780251a:	f2c0 230d 	movt	r3, #525	; 0x20d
8780251e:	685a      	ldr	r2, [r3, #4]
87802520:	f042 0201 	orr.w	r2, r2, #1
87802524:	605a      	str	r2, [r3, #4]
87802526:	4770      	bx	lr

87802528 <uart1_init>:
87802528:	b4f0      	push	{r4, r5, r6, r7}
8780252a:	2300      	movs	r3, #0
8780252c:	2784      	movs	r7, #132	; 0x84
8780252e:	461e      	mov	r6, r3
87802530:	f2c0 270e 	movt	r7, #526	; 0x20e
87802534:	f44f 7144 	mov.w	r1, #784	; 0x310
87802538:	2588      	movs	r5, #136	; 0x88
8780253a:	f240 6424 	movw	r4, #1572	; 0x624
8780253e:	f44f 7245 	mov.w	r2, #788	; 0x314
87802542:	603e      	str	r6, [r7, #0]
87802544:	f2c0 2302 	movt	r3, #514	; 0x202
87802548:	f2c0 210e 	movt	r1, #526	; 0x20e
8780254c:	f2c0 220e 	movt	r2, #526	; 0x20e
87802550:	f241 00b0 	movw	r0, #4272	; 0x10b0
87802554:	f2c0 250e 	movt	r5, #526	; 0x20e
87802558:	f2c0 240e 	movt	r4, #526	; 0x20e
8780255c:	2703      	movs	r7, #3
8780255e:	6008      	str	r0, [r1, #0]
87802560:	602e      	str	r6, [r5, #0]
87802562:	4619      	mov	r1, r3
87802564:	6027      	str	r7, [r4, #0]
87802566:	6010      	str	r0, [r2, #0]
87802568:	f8d3 2080 	ldr.w	r2, [r3, #128]	; 0x80
8780256c:	f022 0201 	bic.w	r2, r2, #1
87802570:	f8c3 2080 	str.w	r2, [r3, #128]	; 0x80
87802574:	f8d3 2084 	ldr.w	r2, [r3, #132]	; 0x84
87802578:	f022 0201 	bic.w	r2, r2, #1
8780257c:	f8c3 2084 	str.w	r2, [r3, #132]	; 0x84
87802580:	f8d1 2084 	ldr.w	r2, [r1, #132]	; 0x84
87802584:	2300      	movs	r3, #0
87802586:	f2c0 2302 	movt	r3, #514	; 0x202
8780258a:	07d2      	lsls	r2, r2, #31
8780258c:	d5f8      	bpl.n	87802580 <uart1_init+0x58>
8780258e:	2100      	movs	r1, #0
87802590:	f44f 7520 	mov.w	r5, #640	; 0x280
87802594:	f8c3 1080 	str.w	r1, [r3, #128]	; 0x80
87802598:	2447      	movs	r4, #71	; 0x47
8780259a:	f8c3 1084 	str.w	r1, [r3, #132]	; 0x84
8780259e:	f640 4034 	movw	r0, #3124	; 0xc34
878025a2:	f8d3 2084 	ldr.w	r2, [r3, #132]	; 0x84
878025a6:	f442 4280 	orr.w	r2, r2, #16384	; 0x4000
878025aa:	f042 0226 	orr.w	r2, r2, #38	; 0x26
878025ae:	f8c3 2084 	str.w	r2, [r3, #132]	; 0x84
878025b2:	f8c3 1088 	str.w	r1, [r3, #136]	; 0x88
878025b6:	f8d3 2088 	ldr.w	r2, [r3, #136]	; 0x88
878025ba:	f042 0204 	orr.w	r2, r2, #4
878025be:	f8c3 2088 	str.w	r2, [r3, #136]	; 0x88
878025c2:	f8c3 5090 	str.w	r5, [r3, #144]	; 0x90
878025c6:	f8c3 40a4 	str.w	r4, [r3, #164]	; 0xa4
878025ca:	f8c3 00a8 	str.w	r0, [r3, #168]	; 0xa8
878025ce:	f8d3 2080 	ldr.w	r2, [r3, #128]	; 0x80
878025d2:	bcf0      	pop	{r4, r5, r6, r7}
878025d4:	f042 0201 	orr.w	r2, r2, #1
878025d8:	f8c3 2080 	str.w	r2, [r3, #128]	; 0x80
878025dc:	4770      	bx	lr
878025de:	bf00      	nop

878025e0 <uart_disable>:
878025e0:	f8d0 3080 	ldr.w	r3, [r0, #128]	; 0x80
878025e4:	f023 0301 	bic.w	r3, r3, #1
878025e8:	f8c0 3080 	str.w	r3, [r0, #128]	; 0x80
878025ec:	4770      	bx	lr
878025ee:	bf00      	nop

878025f0 <uart_enable>:
878025f0:	f8d0 3080 	ldr.w	r3, [r0, #128]	; 0x80
878025f4:	f043 0301 	orr.w	r3, r3, #1
878025f8:	f8c0 3080 	str.w	r3, [r0, #128]	; 0x80
878025fc:	4770      	bx	lr
878025fe:	bf00      	nop

87802600 <uart_softreset>:
87802600:	f8d0 3084 	ldr.w	r3, [r0, #132]	; 0x84
87802604:	f023 0301 	bic.w	r3, r3, #1
87802608:	f8c0 3084 	str.w	r3, [r0, #132]	; 0x84
8780260c:	f8d0 3084 	ldr.w	r3, [r0, #132]	; 0x84
87802610:	07db      	lsls	r3, r3, #31
87802612:	d5fb      	bpl.n	8780260c <uart_softreset+0xc>
87802614:	4770      	bx	lr
87802616:	bf00      	nop

87802618 <uart1_io_init>:
87802618:	b4f0      	push	{r4, r5, r6, r7}
8780261a:	2088      	movs	r0, #136	; 0x88
8780261c:	2684      	movs	r6, #132	; 0x84
8780261e:	f44f 7544 	mov.w	r5, #784	; 0x310
87802622:	f240 6124 	movw	r1, #1572	; 0x624
87802626:	f44f 7345 	mov.w	r3, #788	; 0x314
8780262a:	2400      	movs	r4, #0
8780262c:	f2c0 260e 	movt	r6, #526	; 0x20e
87802630:	f2c0 250e 	movt	r5, #526	; 0x20e
87802634:	f241 02b0 	movw	r2, #4272	; 0x10b0
87802638:	2703      	movs	r7, #3
8780263a:	f2c0 200e 	movt	r0, #526	; 0x20e
8780263e:	f2c0 210e 	movt	r1, #526	; 0x20e
87802642:	f2c0 230e 	movt	r3, #526	; 0x20e
87802646:	6034      	str	r4, [r6, #0]
87802648:	602a      	str	r2, [r5, #0]
8780264a:	6004      	str	r4, [r0, #0]
8780264c:	600f      	str	r7, [r1, #0]
8780264e:	601a      	str	r2, [r3, #0]
87802650:	bcf0      	pop	{r4, r5, r6, r7}
87802652:	4770      	bx	lr

87802654 <putc>:
87802654:	2100      	movs	r1, #0
87802656:	f2c0 2102 	movt	r1, #514	; 0x202
8780265a:	f8d1 2098 	ldr.w	r2, [r1, #152]	; 0x98
8780265e:	2300      	movs	r3, #0
87802660:	f2c0 2302 	movt	r3, #514	; 0x202
87802664:	0712      	lsls	r2, r2, #28
87802666:	d5f8      	bpl.n	8780265a <putc+0x6>
87802668:	6418      	str	r0, [r3, #64]	; 0x40
8780266a:	4770      	bx	lr

8780266c <getc>:
8780266c:	2100      	movs	r1, #0
8780266e:	f2c0 2102 	movt	r1, #514	; 0x202
87802672:	f8d1 2098 	ldr.w	r2, [r1, #152]	; 0x98
87802676:	2300      	movs	r3, #0
87802678:	f2c0 2302 	movt	r3, #514	; 0x202
8780267c:	07d2      	lsls	r2, r2, #31
8780267e:	d5f8      	bpl.n	87802672 <getc+0x6>
87802680:	6818      	ldr	r0, [r3, #0]
87802682:	b2c0      	uxtb	r0, r0
87802684:	4770      	bx	lr
87802686:	bf00      	nop

87802688 <puts>:
87802688:	7801      	ldrb	r1, [r0, #0]
8780268a:	b179      	cbz	r1, 878026ac <puts+0x24>
8780268c:	2200      	movs	r2, #0
8780268e:	b410      	push	{r4}
87802690:	f2c0 2202 	movt	r2, #514	; 0x202
87802694:	4614      	mov	r4, r2
87802696:	f8d2 3098 	ldr.w	r3, [r2, #152]	; 0x98
8780269a:	071b      	lsls	r3, r3, #28
8780269c:	d5fb      	bpl.n	87802696 <puts+0xe>
8780269e:	6421      	str	r1, [r4, #64]	; 0x40
878026a0:	f810 1f01 	ldrb.w	r1, [r0, #1]!
878026a4:	2900      	cmp	r1, #0
878026a6:	d1f6      	bne.n	87802696 <puts+0xe>
878026a8:	f85d 4b04 	ldr.w	r4, [sp], #4
878026ac:	4770      	bx	lr
878026ae:	bf00      	nop

878026b0 <raise>:
878026b0:	4770      	bx	lr
878026b2:	bf00      	nop

878026b4 <LCD_CLK_init>:
878026b4:	b430      	push	{r4, r5}
878026b6:	f44f 4400 	mov.w	r4, #32768	; 0x8000
878026ba:	f2c0 240c 	movt	r4, #524	; 0x20c
878026be:	2500      	movs	r5, #0
878026c0:	f440 1081 	orr.w	r0, r0, #1056768	; 0x102000
878026c4:	f44f 4380 	mov.w	r3, #16384	; 0x4000
878026c8:	f8c4 50b0 	str.w	r5, [r4, #176]	; 0xb0
878026cc:	f2c0 230c 	movt	r3, #524	; 0x20c
878026d0:	f8c4 50c0 	str.w	r5, [r4, #192]	; 0xc0
878026d4:	3901      	subs	r1, #1
878026d6:	f8c4 00a0 	str.w	r0, [r4, #160]	; 0xa0
878026da:	3a01      	subs	r2, #1
878026dc:	f8d4 0170 	ldr.w	r0, [r4, #368]	; 0x170
878026e0:	f020 4040 	bic.w	r0, r0, #3221225472	; 0xc0000000
878026e4:	f8c4 0170 	str.w	r0, [r4, #368]	; 0x170
878026e8:	6b98      	ldr	r0, [r3, #56]	; 0x38
878026ea:	bc30      	pop	{r4, r5}
878026ec:	f420 3060 	bic.w	r0, r0, #229376	; 0x38000
878026f0:	6398      	str	r0, [r3, #56]	; 0x38
878026f2:	6b98      	ldr	r0, [r3, #56]	; 0x38
878026f4:	f440 3080 	orr.w	r0, r0, #65536	; 0x10000
878026f8:	6398      	str	r0, [r3, #56]	; 0x38
878026fa:	6b98      	ldr	r0, [r3, #56]	; 0x38
878026fc:	f420 40e0 	bic.w	r0, r0, #28672	; 0x7000
87802700:	6398      	str	r0, [r3, #56]	; 0x38
87802702:	6b98      	ldr	r0, [r3, #56]	; 0x38
87802704:	ea40 3101 	orr.w	r1, r0, r1, lsl #12
87802708:	6399      	str	r1, [r3, #56]	; 0x38
8780270a:	6999      	ldr	r1, [r3, #24]
8780270c:	f021 7160 	bic.w	r1, r1, #58720256	; 0x3800000
87802710:	6199      	str	r1, [r3, #24]
87802712:	6999      	ldr	r1, [r3, #24]
87802714:	ea41 52c2 	orr.w	r2, r1, r2, lsl #23
87802718:	619a      	str	r2, [r3, #24]
8780271a:	6b9a      	ldr	r2, [r3, #56]	; 0x38
8780271c:	f422 6260 	bic.w	r2, r2, #3584	; 0xe00
87802720:	639a      	str	r2, [r3, #56]	; 0x38
87802722:	6b9a      	ldr	r2, [r3, #56]	; 0x38
87802724:	639a      	str	r2, [r3, #56]	; 0x38
87802726:	4770      	bx	lr

87802728 <LCD_reset>:
87802728:	f44f 4300 	mov.w	r3, #32768	; 0x8000
8780272c:	f2c0 231c 	movt	r3, #540	; 0x21c
87802730:	681a      	ldr	r2, [r3, #0]
87802732:	f042 4200 	orr.w	r2, r2, #2147483648	; 0x80000000
87802736:	601a      	str	r2, [r3, #0]
87802738:	4770      	bx	lr
8780273a:	bf00      	nop

8780273c <LCD_noreset>:
8780273c:	f44f 4300 	mov.w	r3, #32768	; 0x8000
87802740:	f2c0 231c 	movt	r3, #540	; 0x21c
87802744:	681a      	ldr	r2, [r3, #0]
87802746:	f022 4200 	bic.w	r2, r2, #2147483648	; 0x80000000
8780274a:	601a      	str	r2, [r3, #0]
8780274c:	4770      	bx	lr
8780274e:	bf00      	nop

87802750 <LCD_enable>:
87802750:	f44f 4300 	mov.w	r3, #32768	; 0x8000
87802754:	f2c0 231c 	movt	r3, #540	; 0x21c
87802758:	681a      	ldr	r2, [r3, #0]
8780275a:	f042 0201 	orr.w	r2, r2, #1
8780275e:	601a      	str	r2, [r3, #0]
87802760:	4770      	bx	lr
87802762:	bf00      	nop

87802764 <LCD_read_ID>:
87802764:	f44f 7288 	mov.w	r2, #272	; 0x110
87802768:	f44f 7367 	mov.w	r3, #924	; 0x39c
8780276c:	b570      	push	{r4, r5, r6, lr}
8780276e:	f2c0 220e 	movt	r2, #526	; 0x20e
87802772:	b084      	sub	sp, #16
87802774:	2405      	movs	r4, #5
87802776:	f2c0 230e 	movt	r3, #526	; 0x20e
8780277a:	f241 01b0 	movw	r1, #4272	; 0x10b0
8780277e:	f44f 4080 	mov.w	r0, #16384	; 0x4000
87802782:	6014      	str	r4, [r2, #0]
87802784:	f2c0 200a 	movt	r0, #522	; 0x20a
87802788:	6019      	str	r1, [r3, #0]
8780278a:	aa01      	add	r2, sp, #4
8780278c:	2301      	movs	r3, #1
8780278e:	2103      	movs	r1, #3
87802790:	9301      	str	r3, [sp, #4]
87802792:	f88d 3008 	strb.w	r3, [sp, #8]
87802796:	f24f 0680 	movw	r6, #61568	; 0xf080
8780279a:	f7ff fca1 	bl	878020e0 <gpio_init>
8780279e:	f44f 729a 	mov.w	r2, #308	; 0x134
878027a2:	f44f 7370 	mov.w	r3, #960	; 0x3c0
878027a6:	f2c0 230e 	movt	r3, #526	; 0x20e
878027aa:	f2c0 220e 	movt	r2, #526	; 0x20e
878027ae:	f44f 4080 	mov.w	r0, #16384	; 0x4000
878027b2:	6014      	str	r4, [r2, #0]
878027b4:	2500      	movs	r5, #0
878027b6:	601e      	str	r6, [r3, #0]
878027b8:	aa01      	add	r2, sp, #4
878027ba:	f2c0 200a 	movt	r0, #522	; 0x20a
878027be:	210c      	movs	r1, #12
878027c0:	9501      	str	r5, [sp, #4]
878027c2:	f7ff fc8d 	bl	878020e0 <gpio_init>
878027c6:	f44f 72aa 	mov.w	r2, #340	; 0x154
878027ca:	f44f 7378 	mov.w	r3, #992	; 0x3e0
878027ce:	f2c0 230e 	movt	r3, #526	; 0x20e
878027d2:	f2c0 220e 	movt	r2, #526	; 0x20e
878027d6:	f44f 4080 	mov.w	r0, #16384	; 0x4000
878027da:	6014      	str	r4, [r2, #0]
878027dc:	f2c0 200a 	movt	r0, #522	; 0x20a
878027e0:	601e      	str	r6, [r3, #0]
878027e2:	aa01      	add	r2, sp, #4
878027e4:	2114      	movs	r1, #20
878027e6:	9501      	str	r5, [sp, #4]
878027e8:	f7ff fc7a 	bl	878020e0 <gpio_init>
878027ec:	f44f 71ba 	mov.w	r1, #372	; 0x174
878027f0:	f44f 6380 	mov.w	r3, #1024	; 0x400
878027f4:	f2c0 230e 	movt	r3, #526	; 0x20e
878027f8:	f2c0 210e 	movt	r1, #526	; 0x20e
878027fc:	f44f 4080 	mov.w	r0, #16384	; 0x4000
87802800:	600c      	str	r4, [r1, #0]
87802802:	aa01      	add	r2, sp, #4
87802804:	601e      	str	r6, [r3, #0]
87802806:	f2c0 200a 	movt	r0, #522	; 0x20a
8780280a:	211c      	movs	r1, #28
8780280c:	9501      	str	r5, [sp, #4]
8780280e:	f7ff fc67 	bl	878020e0 <gpio_init>
87802812:	f44f 4080 	mov.w	r0, #16384	; 0x4000
87802816:	211c      	movs	r1, #28
87802818:	f2c0 200a 	movt	r0, #522	; 0x20a
8780281c:	f7ff fc0c 	bl	87802038 <gpio_pinread>
87802820:	4604      	mov	r4, r0
87802822:	f44f 4080 	mov.w	r0, #16384	; 0x4000
87802826:	2114      	movs	r1, #20
87802828:	f2c0 200a 	movt	r0, #522	; 0x20a
8780282c:	f7ff fc04 	bl	87802038 <gpio_pinread>
87802830:	4605      	mov	r5, r0
87802832:	f44f 4080 	mov.w	r0, #16384	; 0x4000
87802836:	f2c0 200a 	movt	r0, #522	; 0x20a
8780283a:	210c      	movs	r1, #12
8780283c:	f7ff fbfc 	bl	87802038 <gpio_pinread>
87802840:	b2c0      	uxtb	r0, r0
87802842:	b2ed      	uxtb	r5, r5
87802844:	0080      	lsls	r0, r0, #2
87802846:	ea40 0045 	orr.w	r0, r0, r5, lsl #1
8780284a:	4320      	orrs	r0, r4
8780284c:	f010 00ff 	ands.w	r0, r0, #255	; 0xff
87802850:	bf08      	it	eq
87802852:	f244 3042 	movweq	r0, #17218	; 0x4342
87802856:	d101      	bne.n	8780285c <LCD_read_ID+0xf8>
87802858:	b004      	add	sp, #16
8780285a:	bd70      	pop	{r4, r5, r6, pc}
8780285c:	2801      	cmp	r0, #1
8780285e:	bf08      	it	eq
87802860:	f247 0084 	movweq	r0, #28804	; 0x7084
87802864:	d0f8      	beq.n	87802858 <LCD_read_ID+0xf4>
87802866:	2802      	cmp	r0, #2
87802868:	bf08      	it	eq
8780286a:	f247 0016 	movweq	r0, #28694	; 0x7016
8780286e:	d0f3      	beq.n	87802858 <LCD_read_ID+0xf4>
87802870:	2804      	cmp	r0, #4
87802872:	bf08      	it	eq
87802874:	f244 3084 	movweq	r0, #17284	; 0x4384
87802878:	d0ee      	beq.n	87802858 <LCD_read_ID+0xf4>
8780287a:	2805      	cmp	r0, #5
8780287c:	f241 0018 	movw	r0, #4120	; 0x1018
87802880:	bf18      	it	ne
87802882:	2000      	movne	r0, #0
87802884:	e7e8      	b.n	87802858 <LCD_read_ID+0xf4>
87802886:	bf00      	nop

87802888 <LCD_IO_init>:
87802888:	f44f 728c 	mov.w	r2, #280	; 0x118
8780288c:	2300      	movs	r3, #0
8780288e:	f2c0 220e 	movt	r2, #526	; 0x20e
87802892:	f44f 718e 	mov.w	r1, #284	; 0x11c
87802896:	b5f0      	push	{r4, r5, r6, r7, lr}
87802898:	f2c0 210e 	movt	r1, #526	; 0x20e
8780289c:	6013      	str	r3, [r2, #0]
8780289e:	f44f 7590 	mov.w	r5, #288	; 0x120
878028a2:	f44f 7792 	mov.w	r7, #292	; 0x124
878028a6:	f44f 7094 	mov.w	r0, #296	; 0x128
878028aa:	f44f 7696 	mov.w	r6, #300	; 0x12c
878028ae:	f44f 7498 	mov.w	r4, #304	; 0x130
878028b2:	f44f 729a 	mov.w	r2, #308	; 0x134
878028b6:	600b      	str	r3, [r1, #0]
878028b8:	f2c0 250e 	movt	r5, #526	; 0x20e
878028bc:	f2c0 270e 	movt	r7, #526	; 0x20e
878028c0:	f2c0 200e 	movt	r0, #526	; 0x20e
878028c4:	f2c0 260e 	movt	r6, #526	; 0x20e
878028c8:	f2c0 240e 	movt	r4, #526	; 0x20e
878028cc:	f2c0 220e 	movt	r2, #526	; 0x20e
878028d0:	f44f 719c 	mov.w	r1, #312	; 0x138
878028d4:	602b      	str	r3, [r5, #0]
878028d6:	f2c0 210e 	movt	r1, #526	; 0x20e
878028da:	603b      	str	r3, [r7, #0]
878028dc:	f44f 759e 	mov.w	r5, #316	; 0x13c
878028e0:	6003      	str	r3, [r0, #0]
878028e2:	f44f 77a0 	mov.w	r7, #320	; 0x140
878028e6:	6033      	str	r3, [r6, #0]
878028e8:	f44f 70a2 	mov.w	r0, #324	; 0x144
878028ec:	6023      	str	r3, [r4, #0]
878028ee:	f44f 76a4 	mov.w	r6, #328	; 0x148
878028f2:	6013      	str	r3, [r2, #0]
878028f4:	f44f 74a6 	mov.w	r4, #332	; 0x14c
878028f8:	f44f 72a8 	mov.w	r2, #336	; 0x150
878028fc:	600b      	str	r3, [r1, #0]
878028fe:	f2c0 250e 	movt	r5, #526	; 0x20e
87802902:	f2c0 270e 	movt	r7, #526	; 0x20e
87802906:	f2c0 200e 	movt	r0, #526	; 0x20e
8780290a:	f2c0 260e 	movt	r6, #526	; 0x20e
8780290e:	f2c0 240e 	movt	r4, #526	; 0x20e
87802912:	f2c0 220e 	movt	r2, #526	; 0x20e
87802916:	f44f 71aa 	mov.w	r1, #340	; 0x154
8780291a:	602b      	str	r3, [r5, #0]
8780291c:	f2c0 210e 	movt	r1, #526	; 0x20e
87802920:	603b      	str	r3, [r7, #0]
87802922:	f44f 75ac 	mov.w	r5, #344	; 0x158
87802926:	6003      	str	r3, [r0, #0]
87802928:	f44f 77ae 	mov.w	r7, #348	; 0x15c
8780292c:	6033      	str	r3, [r6, #0]
8780292e:	f44f 70b0 	mov.w	r0, #352	; 0x160
87802932:	6023      	str	r3, [r4, #0]
87802934:	f44f 76b2 	mov.w	r6, #356	; 0x164
87802938:	6013      	str	r3, [r2, #0]
8780293a:	f44f 74b4 	mov.w	r4, #360	; 0x168
8780293e:	f44f 72b6 	mov.w	r2, #364	; 0x16c
87802942:	600b      	str	r3, [r1, #0]
87802944:	f2c0 250e 	movt	r5, #526	; 0x20e
87802948:	f2c0 270e 	movt	r7, #526	; 0x20e
8780294c:	f2c0 200e 	movt	r0, #526	; 0x20e
87802950:	f2c0 260e 	movt	r6, #526	; 0x20e
87802954:	f2c0 240e 	movt	r4, #526	; 0x20e
87802958:	f2c0 220e 	movt	r2, #526	; 0x20e
8780295c:	f44f 71b8 	mov.w	r1, #368	; 0x170
87802960:	602b      	str	r3, [r5, #0]
87802962:	f2c0 210e 	movt	r1, #526	; 0x20e
87802966:	603b      	str	r3, [r7, #0]
87802968:	f44f 75ba 	mov.w	r5, #372	; 0x174
8780296c:	6003      	str	r3, [r0, #0]
8780296e:	f44f 7782 	mov.w	r7, #260	; 0x104
87802972:	6033      	str	r3, [r6, #0]
87802974:	f44f 7084 	mov.w	r0, #264	; 0x108
87802978:	6023      	str	r3, [r4, #0]
8780297a:	f44f 7686 	mov.w	r6, #268	; 0x10c
8780297e:	6013      	str	r3, [r2, #0]
87802980:	f240 54dc 	movw	r4, #1500	; 0x5dc
87802984:	f44f 7288 	mov.w	r2, #272	; 0x110
87802988:	600b      	str	r3, [r1, #0]
8780298a:	f2c0 250e 	movt	r5, #526	; 0x20e
8780298e:	f2c0 270e 	movt	r7, #526	; 0x20e
87802992:	f2c0 200e 	movt	r0, #526	; 0x20e
87802996:	f2c0 260e 	movt	r6, #526	; 0x20e
8780299a:	f2c0 240e 	movt	r4, #526	; 0x20e
8780299e:	f2c0 220e 	movt	r2, #526	; 0x20e
878029a2:	217c      	movs	r1, #124	; 0x7c
878029a4:	602b      	str	r3, [r5, #0]
878029a6:	f2c0 210e 	movt	r1, #526	; 0x20e
878029aa:	603b      	str	r3, [r7, #0]
878029ac:	f44f 7569 	mov.w	r5, #932	; 0x3a4
878029b0:	6003      	str	r3, [r0, #0]
878029b2:	f2c0 250e 	movt	r5, #526	; 0x20e
878029b6:	6033      	str	r3, [r6, #0]
878029b8:	f44f 776a 	mov.w	r7, #936	; 0x3a8
878029bc:	6023      	str	r3, [r4, #0]
878029be:	f44f 706b 	mov.w	r0, #940	; 0x3ac
878029c2:	6013      	str	r3, [r2, #0]
878029c4:	2305      	movs	r3, #5
878029c6:	600b      	str	r3, [r1, #0]
878029c8:	23b9      	movs	r3, #185	; 0xb9
878029ca:	602b      	str	r3, [r5, #0]
878029cc:	f2c0 270e 	movt	r7, #526	; 0x20e
878029d0:	f2c0 200e 	movt	r0, #526	; 0x20e
878029d4:	f44f 766c 	mov.w	r6, #944	; 0x3b0
878029d8:	f44f 746d 	mov.w	r4, #948	; 0x3b4
878029dc:	f44f 726e 	mov.w	r2, #952	; 0x3b8
878029e0:	f44f 716f 	mov.w	r1, #956	; 0x3bc
878029e4:	f44f 7570 	mov.w	r5, #960	; 0x3c0
878029e8:	603b      	str	r3, [r7, #0]
878029ea:	f2c0 260e 	movt	r6, #526	; 0x20e
878029ee:	6003      	str	r3, [r0, #0]
878029f0:	f2c0 240e 	movt	r4, #526	; 0x20e
878029f4:	f2c0 220e 	movt	r2, #526	; 0x20e
878029f8:	f2c0 210e 	movt	r1, #526	; 0x20e
878029fc:	f2c0 250e 	movt	r5, #526	; 0x20e
87802a00:	f44f 7771 	mov.w	r7, #964	; 0x3c4
87802a04:	f44f 7072 	mov.w	r0, #968	; 0x3c8
87802a08:	6033      	str	r3, [r6, #0]
87802a0a:	f2c0 270e 	movt	r7, #526	; 0x20e
87802a0e:	6023      	str	r3, [r4, #0]
87802a10:	f2c0 200e 	movt	r0, #526	; 0x20e
87802a14:	6013      	str	r3, [r2, #0]
87802a16:	f44f 7673 	mov.w	r6, #972	; 0x3cc
87802a1a:	600b      	str	r3, [r1, #0]
87802a1c:	f44f 7474 	mov.w	r4, #976	; 0x3d0
87802a20:	602b      	str	r3, [r5, #0]
87802a22:	f44f 7275 	mov.w	r2, #980	; 0x3d4
87802a26:	f44f 7176 	mov.w	r1, #984	; 0x3d8
87802a2a:	f44f 7577 	mov.w	r5, #988	; 0x3dc
87802a2e:	603b      	str	r3, [r7, #0]
87802a30:	f2c0 260e 	movt	r6, #526	; 0x20e
87802a34:	6003      	str	r3, [r0, #0]
87802a36:	f2c0 240e 	movt	r4, #526	; 0x20e
87802a3a:	f2c0 220e 	movt	r2, #526	; 0x20e
87802a3e:	f2c0 210e 	movt	r1, #526	; 0x20e
87802a42:	f2c0 250e 	movt	r5, #526	; 0x20e
87802a46:	f44f 7778 	mov.w	r7, #992	; 0x3e0
87802a4a:	f44f 7079 	mov.w	r0, #996	; 0x3e4
87802a4e:	6033      	str	r3, [r6, #0]
87802a50:	f2c0 270e 	movt	r7, #526	; 0x20e
87802a54:	6023      	str	r3, [r4, #0]
87802a56:	f2c0 200e 	movt	r0, #526	; 0x20e
87802a5a:	6013      	str	r3, [r2, #0]
87802a5c:	f44f 767a 	mov.w	r6, #1000	; 0x3e8
87802a60:	600b      	str	r3, [r1, #0]
87802a62:	f44f 747b 	mov.w	r4, #1004	; 0x3ec
87802a66:	602b      	str	r3, [r5, #0]
87802a68:	f44f 727c 	mov.w	r2, #1008	; 0x3f0
87802a6c:	f44f 717d 	mov.w	r1, #1012	; 0x3f4
87802a70:	f44f 757e 	mov.w	r5, #1016	; 0x3f8
87802a74:	603b      	str	r3, [r7, #0]
87802a76:	f2c0 260e 	movt	r6, #526	; 0x20e
87802a7a:	6003      	str	r3, [r0, #0]
87802a7c:	f2c0 240e 	movt	r4, #526	; 0x20e
87802a80:	f2c0 220e 	movt	r2, #526	; 0x20e
87802a84:	f2c0 210e 	movt	r1, #526	; 0x20e
87802a88:	f2c0 250e 	movt	r5, #526	; 0x20e
87802a8c:	f44f 777f 	mov.w	r7, #1020	; 0x3fc
87802a90:	f44f 6080 	mov.w	r0, #1024	; 0x400
87802a94:	6033      	str	r3, [r6, #0]
87802a96:	f2c0 270e 	movt	r7, #526	; 0x20e
87802a9a:	6023      	str	r3, [r4, #0]
87802a9c:	f2c0 200e 	movt	r0, #526	; 0x20e
87802aa0:	6013      	str	r3, [r2, #0]
87802aa2:	f44f 7664 	mov.w	r6, #912	; 0x390
87802aa6:	600b      	str	r3, [r1, #0]
87802aa8:	f44f 7465 	mov.w	r4, #916	; 0x394
87802aac:	602b      	str	r3, [r5, #0]
87802aae:	f44f 7266 	mov.w	r2, #920	; 0x398
87802ab2:	f44f 7167 	mov.w	r1, #924	; 0x39c
87802ab6:	f44f 7542 	mov.w	r5, #776	; 0x308
87802aba:	603b      	str	r3, [r7, #0]
87802abc:	b085      	sub	sp, #20
87802abe:	6003      	str	r3, [r0, #0]
87802ac0:	f2c0 260e 	movt	r6, #526	; 0x20e
87802ac4:	f2c0 240e 	movt	r4, #526	; 0x20e
87802ac8:	f2c0 220e 	movt	r2, #526	; 0x20e
87802acc:	f2c0 210e 	movt	r1, #526	; 0x20e
87802ad0:	f2c0 250e 	movt	r5, #526	; 0x20e
87802ad4:	f241 07b0 	movw	r7, #4272	; 0x10b0
87802ad8:	f44f 4040 	mov.w	r0, #49152	; 0xc000
87802adc:	6033      	str	r3, [r6, #0]
87802ade:	f2c0 2009 	movt	r0, #521	; 0x209
87802ae2:	6023      	str	r3, [r4, #0]
87802ae4:	6013      	str	r3, [r2, #0]
87802ae6:	2401      	movs	r4, #1
87802ae8:	600b      	str	r3, [r1, #0]
87802aea:	aa01      	add	r2, sp, #4
87802aec:	602f      	str	r7, [r5, #0]
87802aee:	2108      	movs	r1, #8
87802af0:	9401      	str	r4, [sp, #4]
87802af2:	f88d 4008 	strb.w	r4, [sp, #8]
87802af6:	f7ff faf3 	bl	878020e0 <gpio_init>
87802afa:	b005      	add	sp, #20
87802afc:	bdf0      	pop	{r4, r5, r6, r7, pc}
87802afe:	bf00      	nop

87802b00 <LCD_init>:
87802b00:	e92d 4ff8 	stmdb	sp!, {r3, r4, r5, r6, r7, r8, r9, sl, fp, lr}
87802b04:	f44f 4400 	mov.w	r4, #32768	; 0x8000
87802b08:	f2c0 241c 	movt	r4, #540	; 0x21c
87802b0c:	f7ff fe2a 	bl	87802764 <LCD_read_ID>
87802b10:	4605      	mov	r5, r0
87802b12:	f7ff feb9 	bl	87802888 <LCD_IO_init>
87802b16:	6823      	ldr	r3, [r4, #0]
87802b18:	200a      	movs	r0, #10
87802b1a:	f043 4300 	orr.w	r3, r3, #2147483648	; 0x80000000
87802b1e:	6023      	str	r3, [r4, #0]
87802b20:	f7ff fc0e 	bl	87802340 <HPdelay_ms>
87802b24:	6823      	ldr	r3, [r4, #0]
87802b26:	f244 3242 	movw	r2, #17218	; 0x4342
87802b2a:	4295      	cmp	r5, r2
87802b2c:	f023 4300 	bic.w	r3, r3, #2147483648	; 0x80000000
87802b30:	6023      	str	r3, [r4, #0]
87802b32:	d07a      	beq.n	87802c2a <LCD_init+0x12a>
87802b34:	f244 3384 	movw	r3, #17284	; 0x4384
87802b38:	429d      	cmp	r5, r3
87802b3a:	f000 8090 	beq.w	87802c5e <LCD_init+0x15e>
87802b3e:	f247 0384 	movw	r3, #28804	; 0x7084
87802b42:	429d      	cmp	r5, r3
87802b44:	f000 80a7 	beq.w	87802c96 <LCD_init+0x196>
87802b48:	f247 0316 	movw	r3, #28694	; 0x7016
87802b4c:	f244 14bc 	movw	r4, #16828	; 0x41bc
87802b50:	429d      	cmp	r5, r3
87802b52:	bf18      	it	ne
87802b54:	f2c8 7482 	movtne	r4, #34690	; 0x8782
87802b58:	f000 80b8 	beq.w	87802ccc <LCD_init+0x1cc>
87802b5c:	f44f 4300 	mov.w	r3, #32768	; 0x8000
87802b60:	f04f 4809 	mov.w	r8, #2298478592	; 0x89000000
87802b64:	f2c0 231c 	movt	r3, #540	; 0x21c
87802b68:	2200      	movs	r2, #0
87802b6a:	2104      	movs	r1, #4
87802b6c:	f06f 457f 	mvn.w	r5, #4278190080	; 0xff000000
87802b70:	7121      	strb	r1, [r4, #4]
87802b72:	2014      	movs	r0, #20
87802b74:	f8c4 8014 	str.w	r8, [r4, #20]
87802b78:	61a5      	str	r5, [r4, #24]
87802b7a:	61e2      	str	r2, [r4, #28]
87802b7c:	601a      	str	r2, [r3, #0]
87802b7e:	681a      	ldr	r2, [r3, #0]
87802b80:	8867      	ldrh	r7, [r4, #2]
87802b82:	f8b4 a00c 	ldrh.w	sl, [r4, #12]
87802b86:	f442 2220 	orr.w	r2, r2, #655360	; 0xa0000
87802b8a:	f8b4 c000 	ldrh.w	ip, [r4]
87802b8e:	f442 6272 	orr.w	r2, r2, #3872	; 0xf20
87802b92:	88e1      	ldrh	r1, [r4, #6]
87802b94:	601a      	str	r2, [r3, #0]
87802b96:	691e      	ldr	r6, [r3, #16]
87802b98:	f8b4 e008 	ldrh.w	lr, [r4, #8]
87802b9c:	f8b4 900e 	ldrh.w	r9, [r4, #14]
87802ba0:	f426 2270 	bic.w	r2, r6, #983040	; 0xf0000
87802ba4:	611a      	str	r2, [r3, #16]
87802ba6:	eb01 020e 	add.w	r2, r1, lr
87802baa:	f8d3 b010 	ldr.w	fp, [r3, #16]
87802bae:	eb0a 0609 	add.w	r6, sl, r9
87802bb2:	f8b4 e010 	ldrh.w	lr, [r4, #16]
87802bb6:	f041 5189 	orr.w	r1, r1, #287309824	; 0x11200000
87802bba:	f8b4 900a 	ldrh.w	r9, [r4, #10]
87802bbe:	f441 1180 	orr.w	r1, r1, #1048576	; 0x100000
87802bc2:	f44b 2be0 	orr.w	fp, fp, #458752	; 0x70000
87802bc6:	f8c3 b010 	str.w	fp, [r3, #16]
87802bca:	ea47 4b0c 	orr.w	fp, r7, ip, lsl #16
87802bce:	4494      	add	ip, r2
87802bd0:	ea42 4206 	orr.w	r2, r2, r6, lsl #16
87802bd4:	443e      	add	r6, r7
87802bd6:	f8c3 b030 	str.w	fp, [r3, #48]	; 0x30
87802bda:	4476      	add	r6, lr
87802bdc:	44cc      	add	ip, r9
87802bde:	ea46 468a 	orr.w	r6, r6, sl, lsl #18
87802be2:	f447 2780 	orr.w	r7, r7, #262144	; 0x40000
87802be6:	6719      	str	r1, [r3, #112]	; 0x70
87802be8:	f8c3 c080 	str.w	ip, [r3, #128]	; 0x80
87802bec:	f8c3 6090 	str.w	r6, [r3, #144]	; 0x90
87802bf0:	f8c3 20a0 	str.w	r2, [r3, #160]	; 0xa0
87802bf4:	f8c3 70b0 	str.w	r7, [r3, #176]	; 0xb0
87802bf8:	f8c3 8040 	str.w	r8, [r3, #64]	; 0x40
87802bfc:	f8c3 8050 	str.w	r8, [r3, #80]	; 0x50
87802c00:	681a      	ldr	r2, [r3, #0]
87802c02:	f042 0201 	orr.w	r2, r2, #1
87802c06:	601a      	str	r2, [r3, #0]
87802c08:	f7ff fb9a 	bl	87802340 <HPdelay_ms>
87802c0c:	8821      	ldrh	r1, [r4, #0]
87802c0e:	8862      	ldrh	r2, [r4, #2]
87802c10:	6963      	ldr	r3, [r4, #20]
87802c12:	fb02 f201 	mul.w	r2, r2, r1
87802c16:	b132      	cbz	r2, 87802c26 <LCD_init+0x126>
87802c18:	eb03 0282 	add.w	r2, r3, r2, lsl #2
87802c1c:	4629      	mov	r1, r5
87802c1e:	f843 1b04 	str.w	r1, [r3], #4
87802c22:	4293      	cmp	r3, r2
87802c24:	d1fb      	bne.n	87802c1e <LCD_init+0x11e>
87802c26:	e8bd 8ff8 	ldmia.w	sp!, {r3, r4, r5, r6, r7, r8, r9, sl, fp, pc}
87802c2a:	f244 14bc 	movw	r4, #16828	; 0x41bc
87802c2e:	2308      	movs	r3, #8
87802c30:	f2c8 7482 	movt	r4, #34690	; 0x8782
87802c34:	f44f 7188 	mov.w	r1, #272	; 0x110
87802c38:	f44f 70f0 	mov.w	r0, #480	; 0x1e0
87802c3c:	2501      	movs	r5, #1
87802c3e:	2728      	movs	r7, #40	; 0x28
87802c40:	2605      	movs	r6, #5
87802c42:	8021      	strh	r1, [r4, #0]
87802c44:	461a      	mov	r2, r3
87802c46:	8060      	strh	r0, [r4, #2]
87802c48:	4619      	mov	r1, r3
87802c4a:	201b      	movs	r0, #27
87802c4c:	81e7      	strh	r7, [r4, #14]
87802c4e:	8226      	strh	r6, [r4, #16]
87802c50:	80e5      	strh	r5, [r4, #6]
87802c52:	81a5      	strh	r5, [r4, #12]
87802c54:	8123      	strh	r3, [r4, #8]
87802c56:	8163      	strh	r3, [r4, #10]
87802c58:	f7ff fd2c 	bl	878026b4 <LCD_CLK_init>
87802c5c:	e77e      	b.n	87802b5c <LCD_init+0x5c>
87802c5e:	f244 14bc 	movw	r4, #16828	; 0x41bc
87802c62:	f44f 73f0 	mov.w	r3, #480	; 0x1e0
87802c66:	f2c8 7482 	movt	r4, #34690	; 0x8782
87802c6a:	f44f 7248 	mov.w	r2, #800	; 0x320
87802c6e:	2103      	movs	r1, #3
87802c70:	2020      	movs	r0, #32
87802c72:	270d      	movs	r7, #13
87802c74:	2630      	movs	r6, #48	; 0x30
87802c76:	2558      	movs	r5, #88	; 0x58
87802c78:	8023      	strh	r3, [r4, #0]
87802c7a:	8062      	strh	r2, [r4, #2]
87802c7c:	2328      	movs	r3, #40	; 0x28
87802c7e:	80e1      	strh	r1, [r4, #6]
87802c80:	2208      	movs	r2, #8
87802c82:	8120      	strh	r0, [r4, #8]
87802c84:	2104      	movs	r1, #4
87802c86:	202a      	movs	r0, #42	; 0x2a
87802c88:	8167      	strh	r7, [r4, #10]
87802c8a:	81a6      	strh	r6, [r4, #12]
87802c8c:	81e5      	strh	r5, [r4, #14]
87802c8e:	8223      	strh	r3, [r4, #16]
87802c90:	f7ff fd10 	bl	878026b4 <LCD_CLK_init>
87802c94:	e762      	b.n	87802b5c <LCD_init+0x5c>
87802c96:	f244 14bc 	movw	r4, #16828	; 0x41bc
87802c9a:	f44f 72f0 	mov.w	r2, #480	; 0x1e0
87802c9e:	f2c8 7482 	movt	r4, #34690	; 0x8782
87802ca2:	f44f 7148 	mov.w	r1, #800	; 0x320
87802ca6:	2017      	movs	r0, #23
87802ca8:	2301      	movs	r3, #1
87802caa:	2716      	movs	r7, #22
87802cac:	262e      	movs	r6, #46	; 0x2e
87802cae:	25d2      	movs	r5, #210	; 0xd2
87802cb0:	8022      	strh	r2, [r4, #0]
87802cb2:	8061      	strh	r1, [r4, #2]
87802cb4:	2207      	movs	r2, #7
87802cb6:	8120      	strh	r0, [r4, #8]
87802cb8:	2103      	movs	r1, #3
87802cba:	201e      	movs	r0, #30
87802cbc:	8167      	strh	r7, [r4, #10]
87802cbe:	81e6      	strh	r6, [r4, #14]
87802cc0:	8225      	strh	r5, [r4, #16]
87802cc2:	80e3      	strh	r3, [r4, #6]
87802cc4:	81a3      	strh	r3, [r4, #12]
87802cc6:	f7ff fcf5 	bl	878026b4 <LCD_CLK_init>
87802cca:	e747      	b.n	87802b5c <LCD_init+0x5c>
87802ccc:	f2c8 7482 	movt	r4, #34690	; 0x8782
87802cd0:	2503      	movs	r5, #3
87802cd2:	f44f 7316 	mov.w	r3, #600	; 0x258
87802cd6:	f44f 6280 	mov.w	r2, #1024	; 0x400
87802cda:	200c      	movs	r0, #12
87802cdc:	278c      	movs	r7, #140	; 0x8c
87802cde:	26a0      	movs	r6, #160	; 0xa0
87802ce0:	8023      	strh	r3, [r4, #0]
87802ce2:	8062      	strh	r2, [r4, #2]
87802ce4:	2314      	movs	r3, #20
87802ce6:	8160      	strh	r0, [r4, #10]
87802ce8:	4629      	mov	r1, r5
87802cea:	2205      	movs	r2, #5
87802cec:	2020      	movs	r0, #32
87802cee:	81e7      	strh	r7, [r4, #14]
87802cf0:	8226      	strh	r6, [r4, #16]
87802cf2:	80e5      	strh	r5, [r4, #6]
87802cf4:	8123      	strh	r3, [r4, #8]
87802cf6:	81a3      	strh	r3, [r4, #12]
87802cf8:	f7ff fcdc 	bl	878026b4 <LCD_CLK_init>
87802cfc:	e72e      	b.n	87802b5c <LCD_init+0x5c>
87802cfe:	bf00      	nop

87802d00 <LCD_DrawPoint>:
87802d00:	f244 13bc 	movw	r3, #16828	; 0x41bc
87802d04:	b410      	push	{r4}
87802d06:	f2c8 7382 	movt	r3, #34690	; 0x8782
87802d0a:	885c      	ldrh	r4, [r3, #2]
87802d0c:	695b      	ldr	r3, [r3, #20]
87802d0e:	fb04 0101 	mla	r1, r4, r1, r0
87802d12:	f85d 4b04 	ldr.w	r4, [sp], #4
87802d16:	f843 2021 	str.w	r2, [r3, r1, lsl #2]
87802d1a:	4770      	bx	lr

87802d1c <LCD_ReadPoint>:
87802d1c:	f244 13bc 	movw	r3, #16828	; 0x41bc
87802d20:	f2c8 7382 	movt	r3, #34690	; 0x8782
87802d24:	885a      	ldrh	r2, [r3, #2]
87802d26:	695b      	ldr	r3, [r3, #20]
87802d28:	fb02 0101 	mla	r1, r2, r1, r0
87802d2c:	f853 0021 	ldr.w	r0, [r3, r1, lsl #2]
87802d30:	4770      	bx	lr
87802d32:	bf00      	nop

87802d34 <LCD_Clear>:
87802d34:	f244 13bc 	movw	r3, #16828	; 0x41bc
87802d38:	f2c8 7382 	movt	r3, #34690	; 0x8782
87802d3c:	8819      	ldrh	r1, [r3, #0]
87802d3e:	885a      	ldrh	r2, [r3, #2]
87802d40:	695b      	ldr	r3, [r3, #20]
87802d42:	fb02 f201 	mul.w	r2, r2, r1
87802d46:	b12a      	cbz	r2, 87802d54 <LCD_Clear+0x20>
87802d48:	eb03 0282 	add.w	r2, r3, r2, lsl #2
87802d4c:	f843 0b04 	str.w	r0, [r3], #4
87802d50:	4293      	cmp	r3, r2
87802d52:	d1fb      	bne.n	87802d4c <LCD_Clear+0x18>
87802d54:	4770      	bx	lr
87802d56:	bf00      	nop

87802d58 <LCD_Fill>:
87802d58:	f244 1cbc 	movw	ip, #16828	; 0x41bc
87802d5c:	e92d 43f0 	stmdb	sp!, {r4, r5, r6, r7, r8, r9, lr}
87802d60:	f2c8 7c82 	movt	ip, #34690	; 0x8782
87802d64:	4699      	mov	r9, r3
87802d66:	f8bc 8002 	ldrh.w	r8, [ip, #2]
87802d6a:	f8bc 4000 	ldrh.w	r4, [ip]
87802d6e:	9b07      	ldr	r3, [sp, #28]
87802d70:	4590      	cmp	r8, r2
87802d72:	bf9c      	itt	ls
87802d74:	f108 32ff 	addls.w	r2, r8, #4294967295	; 0xffffffff
87802d78:	b292      	uxthls	r2, r2
87802d7a:	454c      	cmp	r4, r9
87802d7c:	bf9c      	itt	ls
87802d7e:	f104 34ff 	addls.w	r4, r4, #4294967295	; 0xffffffff
87802d82:	fa1f f984 	uxthls.w	r9, r4
87802d86:	4589      	cmp	r9, r1
87802d88:	d314      	bcc.n	87802db4 <LCD_Fill+0x5c>
87802d8a:	4282      	cmp	r2, r0
87802d8c:	d30c      	bcc.n	87802da8 <LCD_Fill+0x50>
87802d8e:	fb08 fe01 	mul.w	lr, r8, r1
87802d92:	4604      	mov	r4, r0
87802d94:	1c67      	adds	r7, r4, #1
87802d96:	eb04 060e 	add.w	r6, r4, lr
87802d9a:	b2bc      	uxth	r4, r7
87802d9c:	f8dc 5014 	ldr.w	r5, [ip, #20]
87802da0:	42a2      	cmp	r2, r4
87802da2:	f845 3026 	str.w	r3, [r5, r6, lsl #2]
87802da6:	d2f5      	bcs.n	87802d94 <LCD_Fill+0x3c>
87802da8:	3101      	adds	r1, #1
87802daa:	b289      	uxth	r1, r1
87802dac:	4589      	cmp	r9, r1
87802dae:	d2ec      	bcs.n	87802d8a <LCD_Fill+0x32>
87802db0:	e8bd 83f0 	ldmia.w	sp!, {r4, r5, r6, r7, r8, r9, pc}
87802db4:	e8bd 83f0 	ldmia.w	sp!, {r4, r5, r6, r7, r8, r9, pc}

87802db8 <lcd_drawline>:
87802db8:	e92d 4ff0 	stmdb	sp!, {r4, r5, r6, r7, r8, r9, sl, fp, lr}
87802dbc:	ebc0 0902 	rsb	r9, r0, r2
87802dc0:	f1b9 0f00 	cmp.w	r9, #0
87802dc4:	b085      	sub	sp, #20
87802dc6:	ebc1 0a03 	rsb	sl, r1, r3
87802dca:	bfc8      	it	gt
87802dcc:	2301      	movgt	r3, #1
87802dce:	4607      	mov	r7, r0
87802dd0:	4688      	mov	r8, r1
87802dd2:	bfc8      	it	gt
87802dd4:	9302      	strgt	r3, [sp, #8]
87802dd6:	dd33      	ble.n	87802e40 <lcd_drawline+0x88>
87802dd8:	f1ba 0f00 	cmp.w	sl, #0
87802ddc:	bfc4      	itt	gt
87802dde:	2301      	movgt	r3, #1
87802de0:	9303      	strgt	r3, [sp, #12]
87802de2:	dd36      	ble.n	87802e52 <lcd_drawline+0x9a>
87802de4:	2500      	movs	r5, #0
87802de6:	45ca      	cmp	sl, r9
87802de8:	46d3      	mov	fp, sl
87802dea:	f244 13bc 	movw	r3, #16828	; 0x41bc
87802dee:	bfb8      	it	lt
87802df0:	46cb      	movlt	fp, r9
87802df2:	462e      	mov	r6, r5
87802df4:	462c      	mov	r4, r5
87802df6:	f10b 0201 	add.w	r2, fp, #1
87802dfa:	f2c8 7382 	movt	r3, #34690	; 0x8782
87802dfe:	9200      	str	r2, [sp, #0]
87802e00:	9301      	str	r3, [sp, #4]
87802e02:	9b01      	ldr	r3, [sp, #4]
87802e04:	444e      	add	r6, r9
87802e06:	fa1f f188 	uxth.w	r1, r8
87802e0a:	b2b8      	uxth	r0, r7
87802e0c:	699a      	ldr	r2, [r3, #24]
87802e0e:	4455      	add	r5, sl
87802e10:	f7ff ff76 	bl	87802d00 <LCD_DrawPoint>
87802e14:	455e      	cmp	r6, fp
87802e16:	f104 0401 	add.w	r4, r4, #1
87802e1a:	bfc4      	itt	gt
87802e1c:	9b02      	ldrgt	r3, [sp, #8]
87802e1e:	ebcb 0606 	rsbgt	r6, fp, r6
87802e22:	b2a4      	uxth	r4, r4
87802e24:	bfc8      	it	gt
87802e26:	18ff      	addgt	r7, r7, r3
87802e28:	455d      	cmp	r5, fp
87802e2a:	bfc2      	ittt	gt
87802e2c:	9b03      	ldrgt	r3, [sp, #12]
87802e2e:	ebcb 0505 	rsbgt	r5, fp, r5
87802e32:	4498      	addgt	r8, r3
87802e34:	9b00      	ldr	r3, [sp, #0]
87802e36:	429c      	cmp	r4, r3
87802e38:	dde3      	ble.n	87802e02 <lcd_drawline+0x4a>
87802e3a:	b005      	add	sp, #20
87802e3c:	e8bd 8ff0 	ldmia.w	sp!, {r4, r5, r6, r7, r8, r9, sl, fp, pc}
87802e40:	bf1d      	ittte	ne
87802e42:	f04f 33ff 	movne.w	r3, #4294967295	; 0xffffffff
87802e46:	f1c9 0900 	rsbne	r9, r9, #0
87802e4a:	9302      	strne	r3, [sp, #8]
87802e4c:	f8cd 9008 	streq.w	r9, [sp, #8]
87802e50:	e7c2      	b.n	87802dd8 <lcd_drawline+0x20>
87802e52:	bf1d      	ittte	ne
87802e54:	f04f 33ff 	movne.w	r3, #4294967295	; 0xffffffff
87802e58:	f1ca 0a00 	rsbne	sl, sl, #0
87802e5c:	9303      	strne	r3, [sp, #12]
87802e5e:	f8cd a00c 	streq.w	sl, [sp, #12]
87802e62:	e7bf      	b.n	87802de4 <lcd_drawline+0x2c>

87802e64 <lcd_draw_rectangle>:
87802e64:	e92d 41f0 	stmdb	sp!, {r4, r5, r6, r7, r8, lr}
87802e68:	461c      	mov	r4, r3
87802e6a:	4606      	mov	r6, r0
87802e6c:	460d      	mov	r5, r1
87802e6e:	460b      	mov	r3, r1
87802e70:	4617      	mov	r7, r2
87802e72:	f7ff ffa1 	bl	87802db8 <lcd_drawline>
87802e76:	4623      	mov	r3, r4
87802e78:	4632      	mov	r2, r6
87802e7a:	4629      	mov	r1, r5
87802e7c:	4630      	mov	r0, r6
87802e7e:	f7ff ff9b 	bl	87802db8 <lcd_drawline>
87802e82:	4623      	mov	r3, r4
87802e84:	463a      	mov	r2, r7
87802e86:	4621      	mov	r1, r4
87802e88:	4630      	mov	r0, r6
87802e8a:	f7ff ff95 	bl	87802db8 <lcd_drawline>
87802e8e:	4623      	mov	r3, r4
87802e90:	463a      	mov	r2, r7
87802e92:	4629      	mov	r1, r5
87802e94:	4638      	mov	r0, r7
87802e96:	e8bd 41f0 	ldmia.w	sp!, {r4, r5, r6, r7, r8, lr}
87802e9a:	f7ff bf8d 	b.w	87802db8 <lcd_drawline>
87802e9e:	bf00      	nop

87802ea0 <lcd_draw_Circle>:
87802ea0:	4613      	mov	r3, r2
87802ea2:	e92d 4ff0 	stmdb	sp!, {r4, r5, r6, r7, r8, r9, sl, fp, lr}
87802ea6:	f1c2 0201 	rsb	r2, r2, #1
87802eaa:	b085      	sub	sp, #20
87802eac:	9000      	str	r0, [sp, #0]
87802eae:	9201      	str	r2, [sp, #4]
87802eb0:	2b00      	cmp	r3, #0
87802eb2:	d066      	beq.n	87802f82 <lcd_draw_Circle+0xe2>
87802eb4:	f244 16bc 	movw	r6, #16828	; 0x41bc
87802eb8:	2700      	movs	r7, #0
87802eba:	f2c8 7682 	movt	r6, #34690	; 0x8782
87802ebe:	468b      	mov	fp, r1
87802ec0:	b29d      	uxth	r5, r3
87802ec2:	9303      	str	r3, [sp, #12]
87802ec4:	9b00      	ldr	r3, [sp, #0]
87802ec6:	b2bc      	uxth	r4, r7
87802ec8:	eb05 0a0b 	add.w	sl, r5, fp
87802ecc:	69b2      	ldr	r2, [r6, #24]
87802ece:	fa1f fa8a 	uxth.w	sl, sl
87802ed2:	eb0b 0904 	add.w	r9, fp, r4
87802ed6:	18e1      	adds	r1, r4, r3
87802ed8:	fa1f f989 	uxth.w	r9, r9
87802edc:	b289      	uxth	r1, r1
87802ede:	4608      	mov	r0, r1
87802ee0:	9102      	str	r1, [sp, #8]
87802ee2:	4651      	mov	r1, sl
87802ee4:	f7ff ff0c 	bl	87802d00 <LCD_DrawPoint>
87802ee8:	9a00      	ldr	r2, [sp, #0]
87802eea:	4649      	mov	r1, r9
87802eec:	eb05 0802 	add.w	r8, r5, r2
87802ef0:	69b2      	ldr	r2, [r6, #24]
87802ef2:	fa1f f888 	uxth.w	r8, r8
87802ef6:	4640      	mov	r0, r8
87802ef8:	f7ff ff02 	bl	87802d00 <LCD_DrawPoint>
87802efc:	9a00      	ldr	r2, [sp, #0]
87802efe:	4651      	mov	r1, sl
87802f00:	1b12      	subs	r2, r2, r4
87802f02:	ebc4 040b 	rsb	r4, r4, fp
87802f06:	fa1f fa82 	uxth.w	sl, r2
87802f0a:	69b2      	ldr	r2, [r6, #24]
87802f0c:	b2a4      	uxth	r4, r4
87802f0e:	4650      	mov	r0, sl
87802f10:	f7ff fef6 	bl	87802d00 <LCD_DrawPoint>
87802f14:	9a00      	ldr	r2, [sp, #0]
87802f16:	4649      	mov	r1, r9
87802f18:	1b52      	subs	r2, r2, r5
87802f1a:	ebc5 050b 	rsb	r5, r5, fp
87802f1e:	fa1f f982 	uxth.w	r9, r2
87802f22:	b2ad      	uxth	r5, r5
87802f24:	69b2      	ldr	r2, [r6, #24]
87802f26:	4648      	mov	r0, r9
87802f28:	f7ff feea 	bl	87802d00 <LCD_DrawPoint>
87802f2c:	4650      	mov	r0, sl
87802f2e:	69b2      	ldr	r2, [r6, #24]
87802f30:	4629      	mov	r1, r5
87802f32:	f7ff fee5 	bl	87802d00 <LCD_DrawPoint>
87802f36:	4648      	mov	r0, r9
87802f38:	69b2      	ldr	r2, [r6, #24]
87802f3a:	4621      	mov	r1, r4
87802f3c:	f7ff fee0 	bl	87802d00 <LCD_DrawPoint>
87802f40:	4629      	mov	r1, r5
87802f42:	9802      	ldr	r0, [sp, #8]
87802f44:	69b2      	ldr	r2, [r6, #24]
87802f46:	f7ff fedb 	bl	87802d00 <LCD_DrawPoint>
87802f4a:	4621      	mov	r1, r4
87802f4c:	69b2      	ldr	r2, [r6, #24]
87802f4e:	4640      	mov	r0, r8
87802f50:	f7ff fed6 	bl	87802d00 <LCD_DrawPoint>
87802f54:	9901      	ldr	r1, [sp, #4]
87802f56:	9b03      	ldr	r3, [sp, #12]
87802f58:	2900      	cmp	r1, #0
87802f5a:	eba7 0203 	sub.w	r2, r7, r3
87802f5e:	bfa8      	it	ge
87802f60:	f103 33ff 	addge.w	r3, r3, #4294967295	; 0xffffffff
87802f64:	eb01 0242 	add.w	r2, r1, r2, lsl #1
87802f68:	bfba      	itte	lt
87802f6a:	460a      	movlt	r2, r1
87802f6c:	eb02 0247 	addlt.w	r2, r2, r7, lsl #1
87802f70:	3205      	addge	r2, #5
87802f72:	f107 0701 	add.w	r7, r7, #1
87802f76:	bfae      	itee	ge
87802f78:	9201      	strge	r2, [sp, #4]
87802f7a:	3203      	addlt	r2, #3
87802f7c:	9201      	strlt	r2, [sp, #4]
87802f7e:	42bb      	cmp	r3, r7
87802f80:	dc9e      	bgt.n	87802ec0 <lcd_draw_Circle+0x20>
87802f82:	b005      	add	sp, #20
87802f84:	e8bd 8ff0 	ldmia.w	sp!, {r4, r5, r6, r7, r8, r9, sl, fp, pc}

87802f88 <lcd_showchar>:
87802f88:	e92d 4ff0 	stmdb	sp!, {r4, r5, r6, r7, r8, r9, sl, fp, lr}
87802f8c:	461e      	mov	r6, r3
87802f8e:	f013 0307 	ands.w	r3, r3, #7
87802f92:	ea4f 0456 	mov.w	r4, r6, lsr #1
87802f96:	bf18      	it	ne
87802f98:	2301      	movne	r3, #1
87802f9a:	eb03 05d6 	add.w	r5, r3, r6, lsr #3
87802f9e:	4689      	mov	r9, r1
87802fa0:	b087      	sub	sp, #28
87802fa2:	fb15 f104 	smulbb	r1, r5, r4
87802fa6:	3a20      	subs	r2, #32
87802fa8:	b2d2      	uxtb	r2, r2
87802faa:	9001      	str	r0, [sp, #4]
87802fac:	f89d b040 	ldrb.w	fp, [sp, #64]	; 0x40
87802fb0:	f011 01ff 	ands.w	r1, r1, #255	; 0xff
87802fb4:	d06c      	beq.n	87803090 <lcd_showchar+0x108>
87802fb6:	b217      	sxth	r7, r2
87802fb8:	483d      	ldr	r0, [pc, #244]	; (878030b0 <lcd_showchar+0x128>)
87802fba:	3901      	subs	r1, #1
87802fbc:	ea4f 0887 	mov.w	r8, r7, lsl #2
87802fc0:	b2c9      	uxtb	r1, r1
87802fc2:	013c      	lsls	r4, r7, #4
87802fc4:	eb08 1e47 	add.w	lr, r8, r7, lsl #5
87802fc8:	f247 455c 	movw	r5, #29788	; 0x745c
87802fcc:	f500 6cbe 	add.w	ip, r0, #1520	; 0x5f0
87802fd0:	eb0c 13c7 	add.w	r3, ip, r7, lsl #7
87802fd4:	f2c8 7580 	movt	r5, #34688	; 0x8780
87802fd8:	f10e 0201 	add.w	r2, lr, #1
87802fdc:	440a      	add	r2, r1
87802fde:	f205 4a74 	addw	sl, r5, #1140	; 0x474
87802fe2:	ebc8 0104 	rsb	r1, r8, r4
87802fe6:	9302      	str	r3, [sp, #8]
87802fe8:	eb0a 0302 	add.w	r3, sl, r2
87802fec:	f244 17bc 	movw	r7, #16828	; 0x41bc
87802ff0:	9305      	str	r3, [sp, #20]
87802ff2:	186b      	adds	r3, r5, r1
87802ff4:	9303      	str	r3, [sp, #12]
87802ff6:	1903      	adds	r3, r0, r4
87802ff8:	44f2      	add	sl, lr
87802ffa:	9304      	str	r3, [sp, #16]
87802ffc:	465b      	mov	r3, fp
87802ffe:	f2c8 7782 	movt	r7, #34690	; 0x8782
87803002:	46d3      	mov	fp, sl
87803004:	464c      	mov	r4, r9
87803006:	469a      	mov	sl, r3
87803008:	2e0c      	cmp	r6, #12
8780300a:	d04a      	beq.n	878030a2 <lcd_showchar+0x11a>
8780300c:	2e10      	cmp	r6, #16
8780300e:	d04b      	beq.n	878030a8 <lcd_showchar+0x120>
87803010:	2e18      	cmp	r6, #24
87803012:	bf08      	it	eq
87803014:	f89b 5000 	ldrbeq.w	r5, [fp]
87803018:	d003      	beq.n	87803022 <lcd_showchar+0x9a>
8780301a:	2e20      	cmp	r6, #32
8780301c:	d138      	bne.n	87803090 <lcd_showchar+0x108>
8780301e:	9b02      	ldr	r3, [sp, #8]
87803020:	781d      	ldrb	r5, [r3, #0]
87803022:	f104 0808 	add.w	r8, r4, #8
87803026:	fa1f f888 	uxth.w	r8, r8
8780302a:	e00c      	b.n	87803046 <lcd_showchar+0xbe>
8780302c:	3401      	adds	r4, #1
8780302e:	883b      	ldrh	r3, [r7, #0]
87803030:	b2a4      	uxth	r4, r4
87803032:	006d      	lsls	r5, r5, #1
87803034:	42a3      	cmp	r3, r4
87803036:	ebc9 0204 	rsb	r2, r9, r4
8780303a:	b2ed      	uxtb	r5, r5
8780303c:	d928      	bls.n	87803090 <lcd_showchar+0x108>
8780303e:	42b2      	cmp	r2, r6
87803040:	d00c      	beq.n	8780305c <lcd_showchar+0xd4>
87803042:	4544      	cmp	r4, r8
87803044:	d016      	beq.n	87803074 <lcd_showchar+0xec>
87803046:	062b      	lsls	r3, r5, #24
87803048:	d425      	bmi.n	87803096 <lcd_showchar+0x10e>
8780304a:	f1ba 0f00 	cmp.w	sl, #0
8780304e:	d1ed      	bne.n	8780302c <lcd_showchar+0xa4>
87803050:	69fa      	ldr	r2, [r7, #28]
87803052:	4621      	mov	r1, r4
87803054:	9801      	ldr	r0, [sp, #4]
87803056:	f7ff fe53 	bl	87802d00 <LCD_DrawPoint>
8780305a:	e7e7      	b.n	8780302c <lcd_showchar+0xa4>
8780305c:	9b01      	ldr	r3, [sp, #4]
8780305e:	f244 12bc 	movw	r2, #16828	; 0x41bc
87803062:	f2c8 7282 	movt	r2, #34690	; 0x8782
87803066:	8852      	ldrh	r2, [r2, #2]
87803068:	3301      	adds	r3, #1
8780306a:	b29b      	uxth	r3, r3
8780306c:	429a      	cmp	r2, r3
8780306e:	9301      	str	r3, [sp, #4]
87803070:	d90e      	bls.n	87803090 <lcd_showchar+0x108>
87803072:	464c      	mov	r4, r9
87803074:	9b03      	ldr	r3, [sp, #12]
87803076:	f10b 0b01 	add.w	fp, fp, #1
8780307a:	3301      	adds	r3, #1
8780307c:	9303      	str	r3, [sp, #12]
8780307e:	9b04      	ldr	r3, [sp, #16]
87803080:	3301      	adds	r3, #1
87803082:	9304      	str	r3, [sp, #16]
87803084:	9b02      	ldr	r3, [sp, #8]
87803086:	3301      	adds	r3, #1
87803088:	9302      	str	r3, [sp, #8]
8780308a:	9b05      	ldr	r3, [sp, #20]
8780308c:	459b      	cmp	fp, r3
8780308e:	d1bb      	bne.n	87803008 <lcd_showchar+0x80>
87803090:	b007      	add	sp, #28
87803092:	e8bd 8ff0 	ldmia.w	sp!, {r4, r5, r6, r7, r8, r9, sl, fp, pc}
87803096:	69ba      	ldr	r2, [r7, #24]
87803098:	4621      	mov	r1, r4
8780309a:	9801      	ldr	r0, [sp, #4]
8780309c:	f7ff fe30 	bl	87802d00 <LCD_DrawPoint>
878030a0:	e7c4      	b.n	8780302c <lcd_showchar+0xa4>
878030a2:	9b03      	ldr	r3, [sp, #12]
878030a4:	781d      	ldrb	r5, [r3, #0]
878030a6:	e7bc      	b.n	87803022 <lcd_showchar+0x9a>
878030a8:	9b04      	ldr	r3, [sp, #16]
878030aa:	781d      	ldrb	r5, [r3, #0]
878030ac:	e7b9      	b.n	87803022 <lcd_showchar+0x9a>
878030ae:	bf00      	nop
878030b0:	8780862c 	strhi	r8, [r0, ip, lsr #12]

878030b4 <lcd_pow>:
878030b4:	1e4b      	subs	r3, r1, #1
878030b6:	2201      	movs	r2, #1
878030b8:	b2db      	uxtb	r3, r3
878030ba:	b129      	cbz	r1, 878030c8 <lcd_pow+0x14>
878030bc:	3b01      	subs	r3, #1
878030be:	fb00 f202 	mul.w	r2, r0, r2
878030c2:	b2db      	uxtb	r3, r3
878030c4:	2bff      	cmp	r3, #255	; 0xff
878030c6:	d1f9      	bne.n	878030bc <lcd_pow+0x8>
878030c8:	4610      	mov	r0, r2
878030ca:	4770      	bx	lr

878030cc <lcd_shownum>:
878030cc:	e92d 4ff0 	stmdb	sp!, {r4, r5, r6, r7, r8, r9, sl, fp, lr}
878030d0:	b087      	sub	sp, #28
878030d2:	f89d a040 	ldrb.w	sl, [sp, #64]	; 0x40
878030d6:	2b00      	cmp	r3, #0
878030d8:	d042      	beq.n	87803160 <lcd_shownum+0x94>
878030da:	4617      	mov	r7, r2
878030dc:	1e5a      	subs	r2, r3, #1
878030de:	2500      	movs	r5, #0
878030e0:	fa5f f982 	uxtb.w	r9, r2
878030e4:	f64c 48cd 	movw	r8, #52429	; 0xcccd
878030e8:	ea4f 0b5a 	mov.w	fp, sl, lsr #1
878030ec:	3b02      	subs	r3, #2
878030ee:	9104      	str	r1, [sp, #16]
878030f0:	4604      	mov	r4, r0
878030f2:	462e      	mov	r6, r5
878030f4:	f6cc 48cc 	movt	r8, #52428	; 0xcccc
878030f8:	9303      	str	r3, [sp, #12]
878030fa:	f109 0301 	add.w	r3, r9, #1
878030fe:	9205      	str	r2, [sp, #20]
87803100:	9302      	str	r3, [sp, #8]
87803102:	b2ea      	uxtb	r2, r5
87803104:	9b03      	ldr	r3, [sp, #12]
87803106:	2101      	movs	r1, #1
87803108:	454a      	cmp	r2, r9
8780310a:	eba3 0302 	sub.w	r3, r3, r2
8780310e:	b2db      	uxtb	r3, r3
87803110:	d006      	beq.n	87803120 <lcd_shownum+0x54>
87803112:	3b01      	subs	r3, #1
87803114:	00ca      	lsls	r2, r1, #3
87803116:	b2db      	uxtb	r3, r3
87803118:	eb02 0141 	add.w	r1, r2, r1, lsl #1
8780311c:	2bff      	cmp	r3, #255	; 0xff
8780311e:	d1f8      	bne.n	87803112 <lcd_shownum+0x46>
87803120:	4638      	mov	r0, r7
87803122:	f004 f815 	bl	87807150 <__aeabi_uidiv>
87803126:	fba0 2308 	umull	r2, r3, r0, r8
8780312a:	08db      	lsrs	r3, r3, #3
8780312c:	00da      	lsls	r2, r3, #3
8780312e:	eb02 0343 	add.w	r3, r2, r3, lsl #1
87803132:	1ac3      	subs	r3, r0, r3
87803134:	b2da      	uxtb	r2, r3
87803136:	b91e      	cbnz	r6, 87803140 <lcd_shownum+0x74>
87803138:	9905      	ldr	r1, [sp, #20]
8780313a:	42a9      	cmp	r1, r5
8780313c:	dd01      	ble.n	87803142 <lcd_shownum+0x76>
8780313e:	b193      	cbz	r3, 87803166 <lcd_shownum+0x9a>
87803140:	2601      	movs	r6, #1
87803142:	2300      	movs	r3, #0
87803144:	3230      	adds	r2, #48	; 0x30
87803146:	9300      	str	r3, [sp, #0]
87803148:	b2d2      	uxtb	r2, r2
8780314a:	4653      	mov	r3, sl
8780314c:	9904      	ldr	r1, [sp, #16]
8780314e:	4620      	mov	r0, r4
87803150:	f7ff ff1a 	bl	87802f88 <lcd_showchar>
87803154:	9b02      	ldr	r3, [sp, #8]
87803156:	3501      	adds	r5, #1
87803158:	445c      	add	r4, fp
8780315a:	b2a4      	uxth	r4, r4
8780315c:	429d      	cmp	r5, r3
8780315e:	d1d0      	bne.n	87803102 <lcd_shownum+0x36>
87803160:	b007      	add	sp, #28
87803162:	e8bd 8ff0 	ldmia.w	sp!, {r4, r5, r6, r7, r8, r9, sl, fp, pc}
87803166:	9600      	str	r6, [sp, #0]
87803168:	4653      	mov	r3, sl
8780316a:	2220      	movs	r2, #32
8780316c:	9904      	ldr	r1, [sp, #16]
8780316e:	4620      	mov	r0, r4
87803170:	f7ff ff0a 	bl	87802f88 <lcd_showchar>
87803174:	e7ee      	b.n	87803154 <lcd_shownum+0x88>
87803176:	bf00      	nop

87803178 <lcd_showxnum>:
87803178:	e92d 4ff0 	stmdb	sp!, {r4, r5, r6, r7, r8, r9, sl, fp, lr}
8780317c:	b089      	sub	sp, #36	; 0x24
8780317e:	f89d a048 	ldrb.w	sl, [sp, #72]	; 0x48
87803182:	f89d e04c 	ldrb.w	lr, [sp, #76]	; 0x4c
87803186:	2b00      	cmp	r3, #0
87803188:	d04a      	beq.n	87803220 <lcd_showxnum+0xa8>
8780318a:	4617      	mov	r7, r2
8780318c:	1e5a      	subs	r2, r3, #1
8780318e:	fa5f f982 	uxtb.w	r9, r2
87803192:	3b02      	subs	r3, #2
87803194:	2500      	movs	r5, #0
87803196:	ea4f 0b5a 	mov.w	fp, sl, lsr #1
8780319a:	f64c 48cd 	movw	r8, #52429	; 0xcccd
8780319e:	9206      	str	r2, [sp, #24]
878031a0:	9303      	str	r3, [sp, #12]
878031a2:	fa4f f28e 	sxtb.w	r2, lr
878031a6:	f109 0301 	add.w	r3, r9, #1
878031aa:	9105      	str	r1, [sp, #20]
878031ac:	4604      	mov	r4, r0
878031ae:	462e      	mov	r6, r5
878031b0:	f6cc 48cc 	movt	r8, #52428	; 0xcccc
878031b4:	9302      	str	r3, [sp, #8]
878031b6:	f00e 0301 	and.w	r3, lr, #1
878031ba:	9207      	str	r2, [sp, #28]
878031bc:	9304      	str	r3, [sp, #16]
878031be:	b2ea      	uxtb	r2, r5
878031c0:	9b03      	ldr	r3, [sp, #12]
878031c2:	2101      	movs	r1, #1
878031c4:	454a      	cmp	r2, r9
878031c6:	eba3 0302 	sub.w	r3, r3, r2
878031ca:	b2db      	uxtb	r3, r3
878031cc:	d006      	beq.n	878031dc <lcd_showxnum+0x64>
878031ce:	3b01      	subs	r3, #1
878031d0:	00ca      	lsls	r2, r1, #3
878031d2:	b2db      	uxtb	r3, r3
878031d4:	eb02 0141 	add.w	r1, r2, r1, lsl #1
878031d8:	2bff      	cmp	r3, #255	; 0xff
878031da:	d1f8      	bne.n	878031ce <lcd_showxnum+0x56>
878031dc:	4638      	mov	r0, r7
878031de:	f003 ffb7 	bl	87807150 <__aeabi_uidiv>
878031e2:	fba0 2308 	umull	r2, r3, r0, r8
878031e6:	08db      	lsrs	r3, r3, #3
878031e8:	00da      	lsls	r2, r3, #3
878031ea:	eb02 0343 	add.w	r3, r2, r3, lsl #1
878031ee:	1ac3      	subs	r3, r0, r3
878031f0:	b2da      	uxtb	r2, r3
878031f2:	b9c6      	cbnz	r6, 87803226 <lcd_showxnum+0xae>
878031f4:	9906      	ldr	r1, [sp, #24]
878031f6:	42a9      	cmp	r1, r5
878031f8:	dd16      	ble.n	87803228 <lcd_showxnum+0xb0>
878031fa:	b9a3      	cbnz	r3, 87803226 <lcd_showxnum+0xae>
878031fc:	9b07      	ldr	r3, [sp, #28]
878031fe:	4620      	mov	r0, r4
87803200:	9905      	ldr	r1, [sp, #20]
87803202:	2b00      	cmp	r3, #0
87803204:	9b04      	ldr	r3, [sp, #16]
87803206:	bfb4      	ite	lt
87803208:	2230      	movlt	r2, #48	; 0x30
8780320a:	2220      	movge	r2, #32
8780320c:	9300      	str	r3, [sp, #0]
8780320e:	4653      	mov	r3, sl
87803210:	f7ff feba 	bl	87802f88 <lcd_showchar>
87803214:	9b02      	ldr	r3, [sp, #8]
87803216:	3501      	adds	r5, #1
87803218:	445c      	add	r4, fp
8780321a:	b2a4      	uxth	r4, r4
8780321c:	429d      	cmp	r5, r3
8780321e:	d1ce      	bne.n	878031be <lcd_showxnum+0x46>
87803220:	b009      	add	sp, #36	; 0x24
87803222:	e8bd 8ff0 	ldmia.w	sp!, {r4, r5, r6, r7, r8, r9, sl, fp, pc}
87803226:	2601      	movs	r6, #1
87803228:	9b04      	ldr	r3, [sp, #16]
8780322a:	3230      	adds	r2, #48	; 0x30
8780322c:	b2d2      	uxtb	r2, r2
8780322e:	9905      	ldr	r1, [sp, #20]
87803230:	4620      	mov	r0, r4
87803232:	9300      	str	r3, [sp, #0]
87803234:	4653      	mov	r3, sl
87803236:	f7ff fea7 	bl	87802f88 <lcd_showchar>
8780323a:	e7eb      	b.n	87803214 <lcd_showxnum+0x9c>

8780323c <lcd_show_string>:
8780323c:	e92d 4ff0 	stmdb	sp!, {r4, r5, r6, r7, r8, r9, sl, fp, lr}
87803240:	b085      	sub	sp, #20
87803242:	9f0f      	ldr	r7, [sp, #60]	; 0x3c
87803244:	4402      	add	r2, r0
87803246:	fa1f f882 	uxth.w	r8, r2
8780324a:	440b      	add	r3, r1
8780324c:	fa1f f983 	uxth.w	r9, r3
87803250:	460d      	mov	r5, r1
87803252:	783a      	ldrb	r2, [r7, #0]
87803254:	f89d 6038 	ldrb.w	r6, [sp, #56]	; 0x38
87803258:	f1a2 0320 	sub.w	r3, r2, #32
8780325c:	2b5e      	cmp	r3, #94	; 0x5e
8780325e:	d81e      	bhi.n	8780329e <lcd_show_string+0x62>
87803260:	b2c3      	uxtb	r3, r0
87803262:	4604      	mov	r4, r0
87803264:	ea4f 0b56 	mov.w	fp, r6, lsr #1
87803268:	f04f 0a00 	mov.w	sl, #0
8780326c:	9303      	str	r3, [sp, #12]
8780326e:	e00b      	b.n	87803288 <lcd_show_string+0x4c>
87803270:	f8cd a000 	str.w	sl, [sp]
87803274:	445c      	add	r4, fp
87803276:	f7ff fe87 	bl	87802f88 <lcd_showchar>
8780327a:	f817 2f01 	ldrb.w	r2, [r7, #1]!
8780327e:	b2a4      	uxth	r4, r4
87803280:	f1a2 0320 	sub.w	r3, r2, #32
87803284:	2b5e      	cmp	r3, #94	; 0x5e
87803286:	d80a      	bhi.n	8780329e <lcd_show_string+0x62>
87803288:	45a0      	cmp	r8, r4
8780328a:	eb05 0106 	add.w	r1, r5, r6
8780328e:	bf9c      	itt	ls
87803290:	b28d      	uxthls	r5, r1
87803292:	9c03      	ldrls	r4, [sp, #12]
87803294:	4633      	mov	r3, r6
87803296:	454d      	cmp	r5, r9
87803298:	4629      	mov	r1, r5
8780329a:	4620      	mov	r0, r4
8780329c:	d3e8      	bcc.n	87803270 <lcd_show_string+0x34>
8780329e:	b005      	add	sp, #20
878032a0:	e8bd 8ff0 	ldmia.w	sp!, {r4, r5, r6, r7, r8, r9, sl, fp, pc}

878032a4 <rtc_isleapyear.part.0>:
878032a4:	0783      	lsls	r3, r0, #30
878032a6:	d111      	bne.n	878032cc <rtc_isleapyear.part.0+0x28>
878032a8:	f248 521f 	movw	r2, #34079	; 0x851f
878032ac:	f2c5 12eb 	movt	r2, #20971	; 0x51eb
878032b0:	fba0 2302 	umull	r2, r3, r0, r2
878032b4:	095a      	lsrs	r2, r3, #5
878032b6:	0113      	lsls	r3, r2, #4
878032b8:	eb03 0382 	add.w	r3, r3, r2, lsl #2
878032bc:	eb03 0383 	add.w	r3, r3, r3, lsl #2
878032c0:	1ac0      	subs	r0, r0, r3
878032c2:	b280      	uxth	r0, r0
878032c4:	3000      	adds	r0, #0
878032c6:	bf18      	it	ne
878032c8:	2001      	movne	r0, #1
878032ca:	4770      	bx	lr
878032cc:	2000      	movs	r0, #0
878032ce:	4770      	bx	lr

878032d0 <rtc_enable>:
878032d0:	f44f 4340 	mov.w	r3, #49152	; 0xc000
878032d4:	f2c0 230c 	movt	r3, #524	; 0x20c
878032d8:	6b99      	ldr	r1, [r3, #56]	; 0x38
878032da:	461a      	mov	r2, r3
878032dc:	f041 0101 	orr.w	r1, r1, #1
878032e0:	6399      	str	r1, [r3, #56]	; 0x38
878032e2:	6b93      	ldr	r3, [r2, #56]	; 0x38
878032e4:	07db      	lsls	r3, r3, #31
878032e6:	d5fc      	bpl.n	878032e2 <rtc_enable+0x12>
878032e8:	4770      	bx	lr
878032ea:	bf00      	nop

878032ec <rtc_disable>:
878032ec:	f44f 4340 	mov.w	r3, #49152	; 0xc000
878032f0:	f2c0 230c 	movt	r3, #524	; 0x20c
878032f4:	6b99      	ldr	r1, [r3, #56]	; 0x38
878032f6:	461a      	mov	r2, r3
878032f8:	f021 0101 	bic.w	r1, r1, #1
878032fc:	6399      	str	r1, [r3, #56]	; 0x38
878032fe:	6b93      	ldr	r3, [r2, #56]	; 0x38
87803300:	07db      	lsls	r3, r3, #31
87803302:	d4fc      	bmi.n	878032fe <rtc_disable+0x12>
87803304:	4770      	bx	lr
87803306:	bf00      	nop

87803308 <rtc_isleapyear>:
87803308:	b430      	push	{r4, r5}
8780330a:	f248 541f 	movw	r4, #34079	; 0x851f
8780330e:	f2c5 14eb 	movt	r4, #20971	; 0x51eb
87803312:	fba0 4504 	umull	r4, r5, r0, r4
87803316:	09e9      	lsrs	r1, r5, #7
87803318:	018a      	lsls	r2, r1, #6
8780331a:	eb02 1201 	add.w	r2, r2, r1, lsl #4
8780331e:	eb02 0282 	add.w	r2, r2, r2, lsl #2
87803322:	1a83      	subs	r3, r0, r2
87803324:	b29b      	uxth	r3, r3
87803326:	b10b      	cbz	r3, 8780332c <rtc_isleapyear+0x24>
87803328:	bc30      	pop	{r4, r5}
8780332a:	e7bb      	b.n	878032a4 <rtc_isleapyear.part.0>
8780332c:	2001      	movs	r0, #1
8780332e:	bc30      	pop	{r4, r5}
87803330:	4770      	bx	lr
87803332:	bf00      	nop

87803334 <rtc_coverdate_to_seconds>:
87803334:	e92d 41f0 	stmdb	sp!, {r4, r5, r6, r7, r8, lr}
87803338:	f64b 3e9c 	movw	lr, #48028	; 0xbb9c
8780333c:	f2c8 7e80 	movt	lr, #34688	; 0x8780
87803340:	4606      	mov	r6, r0
87803342:	b088      	sub	sp, #32
87803344:	f240 74b2 	movw	r4, #1970	; 0x7b2
87803348:	f8de 0000 	ldr.w	r0, [lr]
8780334c:	ad01      	add	r5, sp, #4
8780334e:	f8de 1004 	ldr.w	r1, [lr, #4]
87803352:	f8de 2008 	ldr.w	r2, [lr, #8]
87803356:	f8de 300c 	ldr.w	r3, [lr, #12]
8780335a:	6837      	ldr	r7, [r6, #0]
8780335c:	f8be c018 	ldrh.w	ip, [lr, #24]
87803360:	c50f      	stmia	r5!, {r0, r1, r2, r3}
87803362:	f8de 0010 	ldr.w	r0, [lr, #16]
87803366:	42a7      	cmp	r7, r4
87803368:	f8de 1014 	ldr.w	r1, [lr, #20]
8780336c:	c503      	stmia	r5!, {r0, r1}
8780336e:	f8a5 c000 	strh.w	ip, [r5]
87803372:	d955      	bls.n	87803420 <rtc_coverdate_to_seconds+0xec>
87803374:	f248 581f 	movw	r8, #34079	; 0x851f
87803378:	2500      	movs	r5, #0
8780337a:	f2c5 18eb 	movt	r8, #20971	; 0x51eb
8780337e:	e008      	b.n	87803392 <rtc_coverdate_to_seconds+0x5e>
87803380:	f7ff ff90 	bl	878032a4 <rtc_isleapyear.part.0>
87803384:	b990      	cbnz	r0, 878033ac <rtc_coverdate_to_seconds+0x78>
87803386:	3401      	adds	r4, #1
87803388:	f205 156d 	addw	r5, r5, #365	; 0x16d
8780338c:	b2a4      	uxth	r4, r4
8780338e:	42bc      	cmp	r4, r7
87803390:	d212      	bcs.n	878033b8 <rtc_coverdate_to_seconds+0x84>
87803392:	fba4 2308 	umull	r2, r3, r4, r8
87803396:	4620      	mov	r0, r4
87803398:	09da      	lsrs	r2, r3, #7
8780339a:	0193      	lsls	r3, r2, #6
8780339c:	eb03 1302 	add.w	r3, r3, r2, lsl #4
878033a0:	eb03 0383 	add.w	r3, r3, r3, lsl #2
878033a4:	1ae3      	subs	r3, r4, r3
878033a6:	b29b      	uxth	r3, r3
878033a8:	2b00      	cmp	r3, #0
878033aa:	d1e9      	bne.n	87803380 <rtc_coverdate_to_seconds+0x4c>
878033ac:	3401      	adds	r4, #1
878033ae:	f505 75b7 	add.w	r5, r5, #366	; 0x16e
878033b2:	b2a4      	uxth	r4, r4
878033b4:	42bc      	cmp	r4, r7
878033b6:	d3ec      	bcc.n	87803392 <rtc_coverdate_to_seconds+0x5e>
878033b8:	f248 521f 	movw	r2, #34079	; 0x851f
878033bc:	7937      	ldrb	r7, [r6, #4]
878033be:	f2c5 12eb 	movt	r2, #20971	; 0x51eb
878033c2:	a908      	add	r1, sp, #32
878033c4:	fba4 2302 	umull	r2, r3, r4, r2
878033c8:	eb01 0247 	add.w	r2, r1, r7, lsl #1
878033cc:	f832 0c1c 	ldrh.w	r0, [r2, #-28]
878033d0:	09da      	lsrs	r2, r3, #7
878033d2:	0193      	lsls	r3, r2, #6
878033d4:	4405      	add	r5, r0
878033d6:	eb03 1302 	add.w	r3, r3, r2, lsl #4
878033da:	eb03 0383 	add.w	r3, r3, r3, lsl #2
878033de:	1ae3      	subs	r3, r4, r3
878033e0:	b29b      	uxth	r3, r3
878033e2:	bb1b      	cbnz	r3, 8780342c <rtc_coverdate_to_seconds+0xf8>
878033e4:	2f02      	cmp	r7, #2
878033e6:	bf88      	it	hi
878033e8:	3501      	addhi	r5, #1
878033ea:	79b2      	ldrb	r2, [r6, #6]
878033ec:	f44f 47a3 	mov.w	r7, #20864	; 0x5180
878033f0:	f896 e007 	ldrb.w	lr, [r6, #7]
878033f4:	f2c0 0701 	movt	r7, #1
878033f8:	7973      	ldrb	r3, [r6, #5]
878033fa:	7a30      	ldrb	r0, [r6, #8]
878033fc:	0211      	lsls	r1, r2, #8
878033fe:	ea4f 148e 	mov.w	r4, lr, lsl #6
87803402:	3b01      	subs	r3, #1
87803404:	eba1 1202 	sub.w	r2, r1, r2, lsl #4
87803408:	441d      	add	r5, r3
8780340a:	eba4 038e 	sub.w	r3, r4, lr, lsl #2
8780340e:	ebc2 1202 	rsb	r2, r2, r2, lsl #4
87803412:	441a      	add	r2, r3
87803414:	4402      	add	r2, r0
87803416:	fb07 2005 	mla	r0, r7, r5, r2
8780341a:	b008      	add	sp, #32
8780341c:	e8bd 81f0 	ldmia.w	sp!, {r4, r5, r6, r7, r8, pc}
87803420:	7937      	ldrb	r7, [r6, #4]
87803422:	ab08      	add	r3, sp, #32
87803424:	eb03 0347 	add.w	r3, r3, r7, lsl #1
87803428:	f833 5c1c 	ldrh.w	r5, [r3, #-28]
8780342c:	4620      	mov	r0, r4
8780342e:	f7ff ff39 	bl	878032a4 <rtc_isleapyear.part.0>
87803432:	2800      	cmp	r0, #0
87803434:	d0d9      	beq.n	878033ea <rtc_coverdate_to_seconds+0xb6>
87803436:	e7d5      	b.n	878033e4 <rtc_coverdate_to_seconds+0xb0>

87803438 <rtc_setdatetime>:
87803438:	b538      	push	{r3, r4, r5, lr}
8780343a:	f44f 4340 	mov.w	r3, #49152	; 0xc000
8780343e:	f2c0 230c 	movt	r3, #524	; 0x20c
87803442:	461a      	mov	r2, r3
87803444:	6b9d      	ldr	r5, [r3, #56]	; 0x38
87803446:	6b99      	ldr	r1, [r3, #56]	; 0x38
87803448:	f021 0101 	bic.w	r1, r1, #1
8780344c:	6399      	str	r1, [r3, #56]	; 0x38
8780344e:	6b93      	ldr	r3, [r2, #56]	; 0x38
87803450:	f44f 4440 	mov.w	r4, #49152	; 0xc000
87803454:	f2c0 240c 	movt	r4, #524	; 0x20c
87803458:	07d9      	lsls	r1, r3, #31
8780345a:	d4f8      	bmi.n	8780344e <rtc_setdatetime+0x16>
8780345c:	f7ff ff6a 	bl	87803334 <rtc_coverdate_to_seconds>
87803460:	07ea      	lsls	r2, r5, #31
87803462:	ea4f 4350 	mov.w	r3, r0, lsr #17
87803466:	ea4f 30c0 	mov.w	r0, r0, lsl #15
8780346a:	6523      	str	r3, [r4, #80]	; 0x50
8780346c:	6560      	str	r0, [r4, #84]	; 0x54
8780346e:	d507      	bpl.n	87803480 <rtc_setdatetime+0x48>
87803470:	6ba3      	ldr	r3, [r4, #56]	; 0x38
87803472:	4622      	mov	r2, r4
87803474:	f043 0301 	orr.w	r3, r3, #1
87803478:	63a3      	str	r3, [r4, #56]	; 0x38
8780347a:	6b93      	ldr	r3, [r2, #56]	; 0x38
8780347c:	07db      	lsls	r3, r3, #31
8780347e:	d5fc      	bpl.n	8780347a <rtc_setdatetime+0x42>
87803480:	bd38      	pop	{r3, r4, r5, pc}
87803482:	bf00      	nop

87803484 <rtc_init>:
87803484:	b5f0      	push	{r4, r5, r6, r7, lr}
87803486:	f44f 4440 	mov.w	r4, #49152	; 0xc000
8780348a:	f2c0 240c 	movt	r4, #524	; 0x20c
8780348e:	b085      	sub	sp, #20
87803490:	2200      	movs	r2, #0
87803492:	f240 7ee5 	movw	lr, #2021	; 0x7e5
87803496:	6863      	ldr	r3, [r4, #4]
87803498:	211f      	movs	r1, #31
8780349a:	2707      	movs	r7, #7
8780349c:	260b      	movs	r6, #11
8780349e:	2510      	movs	r5, #16
878034a0:	a801      	add	r0, sp, #4
878034a2:	f043 4300 	orr.w	r3, r3, #2147483648	; 0x80000000
878034a6:	f443 7380 	orr.w	r3, r3, #256	; 0x100
878034aa:	6063      	str	r3, [r4, #4]
878034ac:	f88d 200c 	strb.w	r2, [sp, #12]
878034b0:	f8cd e004 	str.w	lr, [sp, #4]
878034b4:	f88d 7008 	strb.w	r7, [sp, #8]
878034b8:	f88d 6009 	strb.w	r6, [sp, #9]
878034bc:	f88d 500a 	strb.w	r5, [sp, #10]
878034c0:	f88d 100b 	strb.w	r1, [sp, #11]
878034c4:	f7ff ffb8 	bl	87803438 <rtc_setdatetime>
878034c8:	6ba3      	ldr	r3, [r4, #56]	; 0x38
878034ca:	4622      	mov	r2, r4
878034cc:	f043 0301 	orr.w	r3, r3, #1
878034d0:	63a3      	str	r3, [r4, #56]	; 0x38
878034d2:	6b93      	ldr	r3, [r2, #56]	; 0x38
878034d4:	07db      	lsls	r3, r3, #31
878034d6:	d5fc      	bpl.n	878034d2 <rtc_init+0x4e>
878034d8:	b005      	add	sp, #20
878034da:	bdf0      	pop	{r4, r5, r6, r7, pc}

878034dc <rtc_convertseconds_to_datetime>:
878034dc:	f244 5207 	movw	r2, #17671	; 0x4507
878034e0:	e92d 47f0 	stmdb	sp!, {r4, r5, r6, r7, r8, r9, sl, lr}
878034e4:	f2cc 222e 	movt	r2, #49710	; 0xc22e
878034e8:	f44f 4ca3 	mov.w	ip, #20864	; 0x5180
878034ec:	fba0 2302 	umull	r2, r3, r0, r2
878034f0:	f2c0 0c01 	movt	ip, #1
878034f4:	f24b 38c5 	movw	r8, #46021	; 0xb3c5
878034f8:	f8df e100 	ldr.w	lr, [pc, #256]	; 878035fc <rtc_convertseconds_to_datetime+0x120>
878034fc:	f2c9 18a2 	movt	r8, #37282	; 0x91a2
87803500:	460e      	mov	r6, r1
87803502:	b084      	sub	sp, #16
87803504:	f8de 1004 	ldr.w	r1, [lr, #4]
87803508:	466d      	mov	r5, sp
8780350a:	0c1c      	lsrs	r4, r3, #16
8780350c:	f8de 2008 	ldr.w	r2, [lr, #8]
87803510:	f648 0789 	movw	r7, #34953	; 0x8889
87803514:	fb0c 0314 	mls	r3, ip, r4, r0
87803518:	f8de 0000 	ldr.w	r0, [lr]
8780351c:	f89e e00c 	ldrb.w	lr, [lr, #12]
87803520:	f6c8 0788 	movt	r7, #34952	; 0x8888
87803524:	c507      	stmia	r5!, {r0, r1, r2}
87803526:	f248 5a1f 	movw	sl, #34079	; 0x851f
8780352a:	fba3 8908 	umull	r8, r9, r3, r8
8780352e:	3401      	adds	r4, #1
87803530:	f2c5 1aeb 	movt	sl, #20971	; 0x51eb
87803534:	f885 e000 	strb.w	lr, [r5]
87803538:	f240 75b2 	movw	r5, #1970	; 0x7b2
8780353c:	6035      	str	r5, [r6, #0]
8780353e:	ea4f 21d9 	mov.w	r1, r9, lsr #11
87803542:	020a      	lsls	r2, r1, #8
87803544:	71b1      	strb	r1, [r6, #6]
87803546:	eba2 1001 	sub.w	r0, r2, r1, lsl #4
8780354a:	f240 116d 	movw	r1, #365	; 0x16d
8780354e:	ebc0 1000 	rsb	r0, r0, r0, lsl #4
87803552:	1a18      	subs	r0, r3, r0
87803554:	fba0 2307 	umull	r2, r3, r0, r7
87803558:	460f      	mov	r7, r1
8780355a:	095a      	lsrs	r2, r3, #5
8780355c:	0193      	lsls	r3, r2, #6
8780355e:	71f2      	strb	r2, [r6, #7]
87803560:	eba3 0382 	sub.w	r3, r3, r2, lsl #2
87803564:	1ac3      	subs	r3, r0, r3
87803566:	7233      	strb	r3, [r6, #8]
87803568:	428c      	cmp	r4, r1
8780356a:	d91d      	bls.n	878035a8 <rtc_convertseconds_to_datetime+0xcc>
8780356c:	3501      	adds	r5, #1
8780356e:	1a64      	subs	r4, r4, r1
87803570:	b2ab      	uxth	r3, r5
87803572:	f44f 71b7 	mov.w	r1, #366	; 0x16e
87803576:	6035      	str	r5, [r6, #0]
87803578:	fba3 890a 	umull	r8, r9, r3, sl
8780357c:	4618      	mov	r0, r3
8780357e:	ea4f 1ed9 	mov.w	lr, r9, lsr #7
87803582:	ea4f 128e 	mov.w	r2, lr, lsl #6
87803586:	eb02 120e 	add.w	r2, r2, lr, lsl #4
8780358a:	eb02 0282 	add.w	r2, r2, r2, lsl #2
8780358e:	1a9b      	subs	r3, r3, r2
87803590:	b29b      	uxth	r3, r3
87803592:	2b00      	cmp	r3, #0
87803594:	d0e8      	beq.n	87803568 <rtc_convertseconds_to_datetime+0x8c>
87803596:	f7ff fe85 	bl	878032a4 <rtc_isleapyear.part.0>
8780359a:	2800      	cmp	r0, #0
8780359c:	bf0c      	ite	eq
8780359e:	4639      	moveq	r1, r7
878035a0:	f44f 71b7 	movne.w	r1, #366	; 0x16e
878035a4:	428c      	cmp	r4, r1
878035a6:	d8e1      	bhi.n	8780356c <rtc_convertseconds_to_datetime+0x90>
878035a8:	b2a8      	uxth	r0, r5
878035aa:	f248 521f 	movw	r2, #34079	; 0x851f
878035ae:	f2c5 12eb 	movt	r2, #20971	; 0x51eb
878035b2:	fba0 2302 	umull	r2, r3, r0, r2
878035b6:	09da      	lsrs	r2, r3, #7
878035b8:	0193      	lsls	r3, r2, #6
878035ba:	eb03 1302 	add.w	r3, r3, r2, lsl #4
878035be:	eb03 0383 	add.w	r3, r3, r3, lsl #2
878035c2:	1ac3      	subs	r3, r0, r3
878035c4:	b29b      	uxth	r3, r3
878035c6:	b183      	cbz	r3, 878035ea <rtc_convertseconds_to_datetime+0x10e>
878035c8:	f7ff fe6c 	bl	878032a4 <rtc_isleapyear.part.0>
878035cc:	b968      	cbnz	r0, 878035ea <rtc_convertseconds_to_datetime+0x10e>
878035ce:	4669      	mov	r1, sp
878035d0:	2301      	movs	r3, #1
878035d2:	f811 2f01 	ldrb.w	r2, [r1, #1]!
878035d6:	42a2      	cmp	r2, r4
878035d8:	d20b      	bcs.n	878035f2 <rtc_convertseconds_to_datetime+0x116>
878035da:	3301      	adds	r3, #1
878035dc:	1aa4      	subs	r4, r4, r2
878035de:	2b0d      	cmp	r3, #13
878035e0:	d1f7      	bne.n	878035d2 <rtc_convertseconds_to_datetime+0xf6>
878035e2:	7174      	strb	r4, [r6, #5]
878035e4:	b004      	add	sp, #16
878035e6:	e8bd 87f0 	ldmia.w	sp!, {r4, r5, r6, r7, r8, r9, sl, pc}
878035ea:	231d      	movs	r3, #29
878035ec:	f88d 3002 	strb.w	r3, [sp, #2]
878035f0:	e7ed      	b.n	878035ce <rtc_convertseconds_to_datetime+0xf2>
878035f2:	7133      	strb	r3, [r6, #4]
878035f4:	7174      	strb	r4, [r6, #5]
878035f6:	b004      	add	sp, #16
878035f8:	e8bd 87f0 	ldmia.w	sp!, {r4, r5, r6, r7, r8, r9, sl, pc}
878035fc:	8780bbb8 			; <UNDEFINED> instruction: 0x8780bbb8

87803600 <rtc_getseconds>:
87803600:	f44f 4240 	mov.w	r2, #49152	; 0xc000
87803604:	f2c0 220c 	movt	r2, #524	; 0x20c
87803608:	6d13      	ldr	r3, [r2, #80]	; 0x50
8780360a:	6d50      	ldr	r0, [r2, #84]	; 0x54
8780360c:	045b      	lsls	r3, r3, #17
8780360e:	ea43 30d0 	orr.w	r0, r3, r0, lsr #15
87803612:	4770      	bx	lr

87803614 <rtc_getdatetime>:
87803614:	f44f 4240 	mov.w	r2, #49152	; 0xc000
87803618:	4601      	mov	r1, r0
8780361a:	f2c0 220c 	movt	r2, #524	; 0x20c
8780361e:	6d13      	ldr	r3, [r2, #80]	; 0x50
87803620:	6d50      	ldr	r0, [r2, #84]	; 0x54
87803622:	045b      	lsls	r3, r3, #17
87803624:	ea43 30d0 	orr.w	r0, r3, r0, lsr #15
87803628:	f7ff bf58 	b.w	878034dc <rtc_convertseconds_to_datetime>

8780362c <filtertimer_irqhandler>:
8780362c:	b508      	push	{r3, lr}
8780362e:	2300      	movs	r3, #0
87803630:	f2c0 230d 	movt	r3, #525	; 0x20d
87803634:	685a      	ldr	r2, [r3, #4]
87803636:	07d2      	lsls	r2, r2, #31
87803638:	d407      	bmi.n	8780364a <filtertimer_irqhandler+0x1e>
8780363a:	2300      	movs	r3, #0
8780363c:	f2c0 230d 	movt	r3, #525	; 0x20d
87803640:	685a      	ldr	r2, [r3, #4]
87803642:	f042 0201 	orr.w	r2, r2, #1
87803646:	605a      	str	r2, [r3, #4]
87803648:	bd08      	pop	{r3, pc}
8780364a:	681a      	ldr	r2, [r3, #0]
8780364c:	f44f 4040 	mov.w	r0, #49152	; 0xc000
87803650:	f2c0 2009 	movt	r0, #521	; 0x209
87803654:	2112      	movs	r1, #18
87803656:	f022 0201 	bic.w	r2, r2, #1
8780365a:	601a      	str	r2, [r3, #0]
8780365c:	f7fe fcec 	bl	87802038 <gpio_pinread>
87803660:	2800      	cmp	r0, #0
87803662:	d1ea      	bne.n	8780363a <filtertimer_irqhandler+0xe>
87803664:	f24d 7274 	movw	r2, #55156	; 0xd774
87803668:	f2c8 7280 	movt	r2, #34688	; 0x8780
8780366c:	7813      	ldrb	r3, [r2, #0]
8780366e:	fab3 f383 	clz	r3, r3
87803672:	095b      	lsrs	r3, r3, #5
87803674:	4618      	mov	r0, r3
87803676:	7013      	strb	r3, [r2, #0]
87803678:	f7fe feba 	bl	878023f0 <beep_switch>
8780367c:	e7dd      	b.n	8780363a <filtertimer_irqhandler+0xe>
8780367e:	bf00      	nop

87803680 <GPIO1_16_31_irqhandler>:
87803680:	2300      	movs	r3, #0
87803682:	b410      	push	{r4}
87803684:	f2c0 230d 	movt	r3, #525	; 0x20d
87803688:	f44f 5491 	mov.w	r4, #4640	; 0x1220
8780368c:	f2c0 040a 	movt	r4, #10
87803690:	f44f 4040 	mov.w	r0, #49152	; 0xc000
87803694:	681a      	ldr	r2, [r3, #0]
87803696:	f2c0 2009 	movt	r0, #521	; 0x209
8780369a:	2112      	movs	r1, #18
8780369c:	f022 0201 	bic.w	r2, r2, #1
878036a0:	601a      	str	r2, [r3, #0]
878036a2:	609c      	str	r4, [r3, #8]
878036a4:	681a      	ldr	r2, [r3, #0]
878036a6:	f85d 4b04 	ldr.w	r4, [sp], #4
878036aa:	f042 0201 	orr.w	r2, r2, #1
878036ae:	601a      	str	r2, [r3, #0]
878036b0:	f7fe bd48 	b.w	87802144 <gpio_clearintflags>

878036b4 <filtertimer_init>:
878036b4:	2300      	movs	r3, #0
878036b6:	210e      	movs	r1, #14
878036b8:	f2c0 230d 	movt	r3, #525	; 0x20d
878036bc:	2200      	movs	r2, #0
878036be:	f2c0 1100 	movt	r1, #256	; 0x100
878036c2:	b410      	push	{r4}
878036c4:	601a      	str	r2, [r3, #0]
878036c6:	6019      	str	r1, [r3, #0]
878036c8:	6098      	str	r0, [r3, #8]
878036ca:	60da      	str	r2, [r3, #12]
878036cc:	ee9f 3f10 	mrc	15, 4, r3, cr15, cr0, {0}
878036d0:	0c1b      	lsrs	r3, r3, #16
878036d2:	f241 1008 	movw	r0, #4360	; 0x1108
878036d6:	f04f 7480 	mov.w	r4, #16777216	; 0x1000000
878036da:	041b      	lsls	r3, r3, #16
878036dc:	f243 612d 	movw	r1, #13869	; 0x362d
878036e0:	f2c8 7180 	movt	r1, #34688	; 0x8780
878036e4:	501c      	str	r4, [r3, r0]
878036e6:	2058      	movs	r0, #88	; 0x58
878036e8:	f85d 4b04 	ldr.w	r4, [sp], #4
878036ec:	f7fe bbf6 	b.w	87801edc <system_register_irqhandler>

878036f0 <keyfilter_init>:
878036f0:	228c      	movs	r2, #140	; 0x8c
878036f2:	f44f 7346 	mov.w	r3, #792	; 0x318
878036f6:	b570      	push	{r4, r5, r6, lr}
878036f8:	f2c0 220e 	movt	r2, #526	; 0x20e
878036fc:	2005      	movs	r0, #5
878036fe:	f2c0 230e 	movt	r3, #526	; 0x20e
87803702:	f24f 0180 	movw	r1, #61568	; 0xf080
87803706:	f44f 4440 	mov.w	r4, #49152	; 0xc000
8780370a:	6010      	str	r0, [r2, #0]
8780370c:	b084      	sub	sp, #16
8780370e:	6019      	str	r1, [r3, #0]
87803710:	f2c0 2409 	movt	r4, #521	; 0x209
87803714:	2304      	movs	r3, #4
87803716:	4620      	mov	r0, r4
87803718:	2500      	movs	r5, #0
8780371a:	eb0d 0203 	add.w	r2, sp, r3
8780371e:	2112      	movs	r1, #18
87803720:	9501      	str	r5, [sp, #4]
87803722:	9303      	str	r3, [sp, #12]
87803724:	f7fe fcdc 	bl	878020e0 <gpio_init>
87803728:	ee9f 3f10 	mrc	15, 4, r3, cr15, cr0, {0}
8780372c:	0c1b      	lsrs	r3, r3, #16
8780372e:	f241 100c 	movw	r0, #4364	; 0x110c
87803732:	2608      	movs	r6, #8
87803734:	041b      	lsls	r3, r3, #16
87803736:	f243 6181 	movw	r1, #13953	; 0x3681
8780373a:	462a      	mov	r2, r5
8780373c:	501e      	str	r6, [r3, r0]
8780373e:	f2c8 7180 	movt	r1, #34688	; 0x8780
87803742:	2063      	movs	r0, #99	; 0x63
87803744:	f7fe fbca 	bl	87801edc <system_register_irqhandler>
87803748:	4620      	mov	r0, r4
8780374a:	2112      	movs	r1, #18
8780374c:	f7fe fcec 	bl	87802128 <gpio_enableint>
87803750:	f44f 5091 	mov.w	r0, #4640	; 0x1220
87803754:	f2c0 000a 	movt	r0, #10
87803758:	f7ff ffac 	bl	878036b4 <filtertimer_init>
8780375c:	b004      	add	sp, #16
8780375e:	bd70      	pop	{r4, r5, r6, pc}

87803760 <filtertimer_stop>:
87803760:	2300      	movs	r3, #0
87803762:	f2c0 230d 	movt	r3, #525	; 0x20d
87803766:	681a      	ldr	r2, [r3, #0]
87803768:	f022 0201 	bic.w	r2, r2, #1
8780376c:	601a      	str	r2, [r3, #0]
8780376e:	4770      	bx	lr

87803770 <filtertimer_restart>:
87803770:	2300      	movs	r3, #0
87803772:	f2c0 230d 	movt	r3, #525	; 0x20d
87803776:	681a      	ldr	r2, [r3, #0]
87803778:	f022 0201 	bic.w	r2, r2, #1
8780377c:	601a      	str	r2, [r3, #0]
8780377e:	6098      	str	r0, [r3, #8]
87803780:	681a      	ldr	r2, [r3, #0]
87803782:	f042 0201 	orr.w	r2, r2, #1
87803786:	601a      	str	r2, [r3, #0]
87803788:	4770      	bx	lr
8780378a:	bf00      	nop

8780378c <key_init>:
8780378c:	218c      	movs	r1, #140	; 0x8c
8780378e:	f44f 7246 	mov.w	r2, #792	; 0x318
87803792:	f44f 4340 	mov.w	r3, #49152	; 0xc000
87803796:	b410      	push	{r4}
87803798:	f2c0 220e 	movt	r2, #526	; 0x20e
8780379c:	2405      	movs	r4, #5
8780379e:	f2c0 2309 	movt	r3, #521	; 0x209
878037a2:	f2c0 210e 	movt	r1, #526	; 0x20e
878037a6:	f24f 0080 	movw	r0, #61568	; 0xf080
878037aa:	600c      	str	r4, [r1, #0]
878037ac:	6010      	str	r0, [r2, #0]
878037ae:	685a      	ldr	r2, [r3, #4]
878037b0:	f85d 4b04 	ldr.w	r4, [sp], #4
878037b4:	f422 2280 	bic.w	r2, r2, #262144	; 0x40000
878037b8:	605a      	str	r2, [r3, #4]
878037ba:	4770      	bx	lr

878037bc <read_key>:
878037bc:	f44f 4340 	mov.w	r3, #49152	; 0xc000
878037c0:	f2c0 2309 	movt	r3, #521	; 0x209
878037c4:	6818      	ldr	r0, [r3, #0]
878037c6:	f3c0 4080 	ubfx	r0, r0, #18, #1
878037ca:	4770      	bx	lr

878037cc <key_getVal>:
878037cc:	b570      	push	{r4, r5, r6, lr}
878037ce:	f64b 54f8 	movw	r4, #48632	; 0xbdf8
878037d2:	f2c8 7480 	movt	r4, #34688	; 0x8780
878037d6:	7823      	ldrb	r3, [r4, #0]
878037d8:	2b01      	cmp	r3, #1
878037da:	d00c      	beq.n	878037f6 <key_getVal+0x2a>
878037dc:	f44f 4340 	mov.w	r3, #49152	; 0xc000
878037e0:	f2c0 2309 	movt	r3, #521	; 0x209
878037e4:	681b      	ldr	r3, [r3, #0]
878037e6:	f3c3 4380 	ubfx	r3, r3, #18, #1
878037ea:	b90b      	cbnz	r3, 878037f0 <key_getVal+0x24>
878037ec:	2000      	movs	r0, #0
878037ee:	bd70      	pop	{r4, r5, r6, pc}
878037f0:	7023      	strb	r3, [r4, #0]
878037f2:	2000      	movs	r0, #0
878037f4:	bd70      	pop	{r4, r5, r6, pc}
878037f6:	f44f 4640 	mov.w	r6, #49152	; 0xc000
878037fa:	f2c0 2609 	movt	r6, #521	; 0x209
878037fe:	6835      	ldr	r5, [r6, #0]
87803800:	f3c5 4580 	ubfx	r5, r5, #18, #1
87803804:	2d00      	cmp	r5, #0
87803806:	d1e9      	bne.n	878037dc <key_getVal+0x10>
87803808:	200a      	movs	r0, #10
8780380a:	f7fe fdc1 	bl	87802390 <delay_ms>
8780380e:	7025      	strb	r5, [r4, #0]
87803810:	6830      	ldr	r0, [r6, #0]
87803812:	f3c0 4080 	ubfx	r0, r0, #18, #1
87803816:	f080 0001 	eor.w	r0, r0, #1
8780381a:	bd70      	pop	{r4, r5, r6, pc}

8780381c <imx6ul_hardfpu_enable>:
8780381c:	ee11 3f50 	mrc	15, 0, r3, cr1, cr0, {2}
87803820:	f023 4340 	bic.w	r3, r3, #3221225472	; 0xc0000000
87803824:	f423 0370 	bic.w	r3, r3, #15728640	; 0xf00000
87803828:	f443 0370 	orr.w	r3, r3, #15728640	; 0xf00000
8780382c:	ee01 3f50 	mcr	15, 0, r3, cr1, cr0, {2}
87803830:	eef8 3a10 	vmrs	r3, fpexc
87803834:	f043 4380 	orr.w	r3, r3, #1073741824	; 0x40000000
87803838:	eee8 3a10 	vmsr	fpexc, r3
8780383c:	4770      	bx	lr
8780383e:	bf00      	nop

87803840 <prvCopyDataToQueue>:
87803840:	b570      	push	{r4, r5, r6, lr}
87803842:	4616      	mov	r6, r2
87803844:	6c02      	ldr	r2, [r0, #64]	; 0x40
87803846:	4604      	mov	r4, r0
87803848:	6b85      	ldr	r5, [r0, #56]	; 0x38
8780384a:	b932      	cbnz	r2, 8780385a <prvCopyDataToQueue+0x1a>
8780384c:	6806      	ldr	r6, [r0, #0]
8780384e:	2e00      	cmp	r6, #0
87803850:	d031      	beq.n	878038b6 <prvCopyDataToQueue+0x76>
87803852:	3501      	adds	r5, #1
87803854:	4610      	mov	r0, r2
87803856:	63a5      	str	r5, [r4, #56]	; 0x38
87803858:	bd70      	pop	{r4, r5, r6, pc}
8780385a:	b99e      	cbnz	r6, 87803884 <prvCopyDataToQueue+0x44>
8780385c:	6880      	ldr	r0, [r0, #8]
8780385e:	f7fd f8b1 	bl	878009c4 <memcpy>
87803862:	68a1      	ldr	r1, [r4, #8]
87803864:	6c23      	ldr	r3, [r4, #64]	; 0x40
87803866:	6862      	ldr	r2, [r4, #4]
87803868:	440b      	add	r3, r1
8780386a:	4293      	cmp	r3, r2
8780386c:	60a3      	str	r3, [r4, #8]
8780386e:	bf2b      	itete	cs
87803870:	6823      	ldrcs	r3, [r4, #0]
87803872:	3501      	addcc	r5, #1
87803874:	3501      	addcs	r5, #1
87803876:	4630      	movcc	r0, r6
87803878:	bf28      	it	cs
8780387a:	4630      	movcs	r0, r6
8780387c:	63a5      	str	r5, [r4, #56]	; 0x38
8780387e:	bf28      	it	cs
87803880:	60a3      	strcs	r3, [r4, #8]
87803882:	bd70      	pop	{r4, r5, r6, pc}
87803884:	68c0      	ldr	r0, [r0, #12]
87803886:	f7fd f89d 	bl	878009c4 <memcpy>
8780388a:	6c23      	ldr	r3, [r4, #64]	; 0x40
8780388c:	68e2      	ldr	r2, [r4, #12]
8780388e:	6821      	ldr	r1, [r4, #0]
87803890:	425b      	negs	r3, r3
87803892:	441a      	add	r2, r3
87803894:	428a      	cmp	r2, r1
87803896:	60e2      	str	r2, [r4, #12]
87803898:	bf3e      	ittt	cc
8780389a:	6862      	ldrcc	r2, [r4, #4]
8780389c:	189b      	addcc	r3, r3, r2
8780389e:	60e3      	strcc	r3, [r4, #12]
878038a0:	2e02      	cmp	r6, #2
878038a2:	bf1c      	itt	ne
878038a4:	3501      	addne	r5, #1
878038a6:	2000      	movne	r0, #0
878038a8:	d1d5      	bne.n	87803856 <prvCopyDataToQueue+0x16>
878038aa:	2d00      	cmp	r5, #0
878038ac:	f04f 0000 	mov.w	r0, #0
878038b0:	bf08      	it	eq
878038b2:	2501      	moveq	r5, #1
878038b4:	e7cf      	b.n	87803856 <prvCopyDataToQueue+0x16>
878038b6:	6840      	ldr	r0, [r0, #4]
878038b8:	3501      	adds	r5, #1
878038ba:	f002 fb03 	bl	87805ec4 <xTaskPriorityDisinherit>
878038be:	6066      	str	r6, [r4, #4]
878038c0:	e7c9      	b.n	87803856 <prvCopyDataToQueue+0x16>
878038c2:	bf00      	nop

878038c4 <prvNotifyQueueSetContainer>:
878038c4:	b570      	push	{r4, r5, r6, lr}
878038c6:	b082      	sub	sp, #8
878038c8:	6c84      	ldr	r4, [r0, #72]	; 0x48
878038ca:	460e      	mov	r6, r1
878038cc:	9001      	str	r0, [sp, #4]
878038ce:	2c00      	cmp	r4, #0
878038d0:	d030      	beq.n	87803934 <prvNotifyQueueSetContainer+0x70>
878038d2:	6ba1      	ldr	r1, [r4, #56]	; 0x38
878038d4:	6be3      	ldr	r3, [r4, #60]	; 0x3c
878038d6:	4299      	cmp	r1, r3
878038d8:	d222      	bcs.n	87803920 <prvNotifyQueueSetContainer+0x5c>
878038da:	6ba1      	ldr	r1, [r4, #56]	; 0x38
878038dc:	4299      	cmp	r1, r3
878038de:	bf28      	it	cs
878038e0:	2600      	movcs	r6, #0
878038e2:	d302      	bcc.n	878038ea <prvNotifyQueueSetContainer+0x26>
878038e4:	4630      	mov	r0, r6
878038e6:	b002      	add	sp, #8
878038e8:	bd70      	pop	{r4, r5, r6, pc}
878038ea:	f894 5045 	ldrb.w	r5, [r4, #69]	; 0x45
878038ee:	4632      	mov	r2, r6
878038f0:	a901      	add	r1, sp, #4
878038f2:	4620      	mov	r0, r4
878038f4:	f7ff ffa4 	bl	87803840 <prvCopyDataToQueue>
878038f8:	4606      	mov	r6, r0
878038fa:	b2ed      	uxtb	r5, r5
878038fc:	2dff      	cmp	r5, #255	; 0xff
878038fe:	bf1e      	ittt	ne
87803900:	3501      	addne	r5, #1
87803902:	b2ed      	uxtbne	r5, r5
87803904:	f884 5045 	strbne.w	r5, [r4, #69]	; 0x45
87803908:	d1ec      	bne.n	878038e4 <prvNotifyQueueSetContainer+0x20>
8780390a:	6a63      	ldr	r3, [r4, #36]	; 0x24
8780390c:	2b00      	cmp	r3, #0
8780390e:	d0e9      	beq.n	878038e4 <prvNotifyQueueSetContainer+0x20>
87803910:	f104 0024 	add.w	r0, r4, #36	; 0x24
87803914:	f002 f866 	bl	878059e4 <xTaskRemoveFromEventList>
87803918:	2800      	cmp	r0, #0
8780391a:	bf18      	it	ne
8780391c:	2601      	movne	r6, #1
8780391e:	e7e1      	b.n	878038e4 <prvNotifyQueueSetContainer+0x20>
87803920:	f64b 4024 	movw	r0, #48164	; 0xbc24
87803924:	f640 11cf 	movw	r1, #2511	; 0x9cf
87803928:	f2c8 7080 	movt	r0, #34688	; 0x8780
8780392c:	f7fc fdf8 	bl	87800520 <vAssertCalled>
87803930:	6be3      	ldr	r3, [r4, #60]	; 0x3c
87803932:	e7d2      	b.n	878038da <prvNotifyQueueSetContainer+0x16>
87803934:	f64b 4024 	movw	r0, #48164	; 0xbc24
87803938:	f640 11ce 	movw	r1, #2510	; 0x9ce
8780393c:	f2c8 7080 	movt	r0, #34688	; 0x8780
87803940:	f7fc fdee 	bl	87800520 <vAssertCalled>
87803944:	e7c5      	b.n	878038d2 <prvNotifyQueueSetContainer+0xe>
87803946:	bf00      	nop

87803948 <prvCopyDataFromQueue>:
87803948:	6c02      	ldr	r2, [r0, #64]	; 0x40
8780394a:	b172      	cbz	r2, 8780396a <prvCopyDataFromQueue+0x22>
8780394c:	b410      	push	{r4}
8780394e:	460b      	mov	r3, r1
87803950:	68c1      	ldr	r1, [r0, #12]
87803952:	6844      	ldr	r4, [r0, #4]
87803954:	4411      	add	r1, r2
87803956:	60c1      	str	r1, [r0, #12]
87803958:	42a1      	cmp	r1, r4
8780395a:	bf24      	itt	cs
8780395c:	6801      	ldrcs	r1, [r0, #0]
8780395e:	60c1      	strcs	r1, [r0, #12]
87803960:	4618      	mov	r0, r3
87803962:	f85d 4b04 	ldr.w	r4, [sp], #4
87803966:	f7fd b82d 	b.w	878009c4 <memcpy>
8780396a:	4770      	bx	lr

8780396c <prvUnlockQueue>:
8780396c:	b570      	push	{r4, r5, r6, lr}
8780396e:	4605      	mov	r5, r0
87803970:	f003 fb9e 	bl	878070b0 <vPortEnterCritical>
87803974:	f895 4045 	ldrb.w	r4, [r5, #69]	; 0x45
87803978:	b2e4      	uxtb	r4, r4
8780397a:	b263      	sxtb	r3, r4
8780397c:	2b00      	cmp	r3, #0
8780397e:	bfc8      	it	gt
87803980:	f105 0624 	addgt.w	r6, r5, #36	; 0x24
87803984:	dc07      	bgt.n	87803996 <prvUnlockQueue+0x2a>
87803986:	e019      	b.n	878039bc <prvUnlockQueue+0x50>
87803988:	f7ff ff9c 	bl	878038c4 <prvNotifyQueueSetContainer>
8780398c:	b978      	cbnz	r0, 878039ae <prvUnlockQueue+0x42>
8780398e:	3c01      	subs	r4, #1
87803990:	b2e3      	uxtb	r3, r4
87803992:	b2dc      	uxtb	r4, r3
87803994:	b193      	cbz	r3, 878039bc <prvUnlockQueue+0x50>
87803996:	6cab      	ldr	r3, [r5, #72]	; 0x48
87803998:	2100      	movs	r1, #0
8780399a:	4628      	mov	r0, r5
8780399c:	2b00      	cmp	r3, #0
8780399e:	d1f3      	bne.n	87803988 <prvUnlockQueue+0x1c>
878039a0:	6a6b      	ldr	r3, [r5, #36]	; 0x24
878039a2:	4630      	mov	r0, r6
878039a4:	b153      	cbz	r3, 878039bc <prvUnlockQueue+0x50>
878039a6:	f002 f81d 	bl	878059e4 <xTaskRemoveFromEventList>
878039aa:	2800      	cmp	r0, #0
878039ac:	d0ef      	beq.n	8780398e <prvUnlockQueue+0x22>
878039ae:	3c01      	subs	r4, #1
878039b0:	f002 f910 	bl	87805bd4 <vTaskMissedYield>
878039b4:	b2e3      	uxtb	r3, r4
878039b6:	b2dc      	uxtb	r4, r3
878039b8:	2b00      	cmp	r3, #0
878039ba:	d1ec      	bne.n	87803996 <prvUnlockQueue+0x2a>
878039bc:	23ff      	movs	r3, #255	; 0xff
878039be:	f885 3045 	strb.w	r3, [r5, #69]	; 0x45
878039c2:	f003 fae3 	bl	87806f8c <vPortExitCritical>
878039c6:	f003 fb73 	bl	878070b0 <vPortEnterCritical>
878039ca:	f895 4044 	ldrb.w	r4, [r5, #68]	; 0x44
878039ce:	b2e4      	uxtb	r4, r4
878039d0:	b263      	sxtb	r3, r4
878039d2:	2b00      	cmp	r3, #0
878039d4:	dd16      	ble.n	87803a04 <prvUnlockQueue+0x98>
878039d6:	692b      	ldr	r3, [r5, #16]
878039d8:	b1a3      	cbz	r3, 87803a04 <prvUnlockQueue+0x98>
878039da:	f105 0610 	add.w	r6, r5, #16
878039de:	e005      	b.n	878039ec <prvUnlockQueue+0x80>
878039e0:	3c01      	subs	r4, #1
878039e2:	b2e3      	uxtb	r3, r4
878039e4:	b2dc      	uxtb	r4, r3
878039e6:	b16b      	cbz	r3, 87803a04 <prvUnlockQueue+0x98>
878039e8:	692b      	ldr	r3, [r5, #16]
878039ea:	b15b      	cbz	r3, 87803a04 <prvUnlockQueue+0x98>
878039ec:	4630      	mov	r0, r6
878039ee:	f001 fff9 	bl	878059e4 <xTaskRemoveFromEventList>
878039f2:	2800      	cmp	r0, #0
878039f4:	d0f4      	beq.n	878039e0 <prvUnlockQueue+0x74>
878039f6:	3c01      	subs	r4, #1
878039f8:	f002 f8ec 	bl	87805bd4 <vTaskMissedYield>
878039fc:	b2e3      	uxtb	r3, r4
878039fe:	b2dc      	uxtb	r4, r3
87803a00:	2b00      	cmp	r3, #0
87803a02:	d1f1      	bne.n	878039e8 <prvUnlockQueue+0x7c>
87803a04:	23ff      	movs	r3, #255	; 0xff
87803a06:	f885 3044 	strb.w	r3, [r5, #68]	; 0x44
87803a0a:	e8bd 4070 	ldmia.w	sp!, {r4, r5, r6, lr}
87803a0e:	f003 babd 	b.w	87806f8c <vPortExitCritical>
87803a12:	bf00      	nop

87803a14 <xQueueGenericReset>:
87803a14:	b570      	push	{r4, r5, r6, lr}
87803a16:	460d      	mov	r5, r1
87803a18:	4604      	mov	r4, r0
87803a1a:	b388      	cbz	r0, 87803a80 <xQueueGenericReset+0x6c>
87803a1c:	2600      	movs	r6, #0
87803a1e:	f003 fb47 	bl	878070b0 <vPortEnterCritical>
87803a22:	6c23      	ldr	r3, [r4, #64]	; 0x40
87803a24:	20ff      	movs	r0, #255	; 0xff
87803a26:	6be2      	ldr	r2, [r4, #60]	; 0x3c
87803a28:	6821      	ldr	r1, [r4, #0]
87803a2a:	63a6      	str	r6, [r4, #56]	; 0x38
87803a2c:	f884 0044 	strb.w	r0, [r4, #68]	; 0x44
87803a30:	fb02 f203 	mul.w	r2, r2, r3
87803a34:	60a1      	str	r1, [r4, #8]
87803a36:	f884 0045 	strb.w	r0, [r4, #69]	; 0x45
87803a3a:	1ad3      	subs	r3, r2, r3
87803a3c:	440a      	add	r2, r1
87803a3e:	440b      	add	r3, r1
87803a40:	6062      	str	r2, [r4, #4]
87803a42:	60e3      	str	r3, [r4, #12]
87803a44:	b985      	cbnz	r5, 87803a68 <xQueueGenericReset+0x54>
87803a46:	6923      	ldr	r3, [r4, #16]
87803a48:	b91b      	cbnz	r3, 87803a52 <xQueueGenericReset+0x3e>
87803a4a:	f003 fa9f 	bl	87806f8c <vPortExitCritical>
87803a4e:	2001      	movs	r0, #1
87803a50:	bd70      	pop	{r4, r5, r6, pc}
87803a52:	f104 0010 	add.w	r0, r4, #16
87803a56:	f001 ffc5 	bl	878059e4 <xTaskRemoveFromEventList>
87803a5a:	2800      	cmp	r0, #0
87803a5c:	d0f5      	beq.n	87803a4a <xQueueGenericReset+0x36>
87803a5e:	df00      	svc	0
87803a60:	f003 fa94 	bl	87806f8c <vPortExitCritical>
87803a64:	2001      	movs	r0, #1
87803a66:	bd70      	pop	{r4, r5, r6, pc}
87803a68:	f104 0010 	add.w	r0, r4, #16
87803a6c:	f000 fda0 	bl	878045b0 <vListInitialise>
87803a70:	f104 0024 	add.w	r0, r4, #36	; 0x24
87803a74:	f000 fd9c 	bl	878045b0 <vListInitialise>
87803a78:	f003 fa88 	bl	87806f8c <vPortExitCritical>
87803a7c:	2001      	movs	r0, #1
87803a7e:	bd70      	pop	{r4, r5, r6, pc}
87803a80:	f64b 4024 	movw	r0, #48164	; 0xbc24
87803a84:	f240 111b 	movw	r1, #283	; 0x11b
87803a88:	f2c8 7080 	movt	r0, #34688	; 0x8780
87803a8c:	f7fc fd48 	bl	87800520 <vAssertCalled>
87803a90:	e7c4      	b.n	87803a1c <xQueueGenericReset+0x8>
87803a92:	bf00      	nop

87803a94 <xQueueGenericCreateStatic>:
87803a94:	e92d 43f0 	stmdb	sp!, {r4, r5, r6, r7, r8, r9, lr}
87803a98:	b083      	sub	sp, #12
87803a9a:	460f      	mov	r7, r1
87803a9c:	4615      	mov	r5, r2
87803a9e:	461c      	mov	r4, r3
87803aa0:	4681      	mov	r9, r0
87803aa2:	f89d 8028 	ldrb.w	r8, [sp, #40]	; 0x28
87803aa6:	2800      	cmp	r0, #0
87803aa8:	d037      	beq.n	87803b1a <xQueueGenericCreateStatic+0x86>
87803aaa:	2c00      	cmp	r4, #0
87803aac:	d050      	beq.n	87803b50 <xQueueGenericCreateStatic+0xbc>
87803aae:	1c3b      	adds	r3, r7, #0
87803ab0:	bf18      	it	ne
87803ab2:	2301      	movne	r3, #1
87803ab4:	2d00      	cmp	r5, #0
87803ab6:	bf08      	it	eq
87803ab8:	f043 0301 	orreq.w	r3, r3, #1
87803abc:	2b00      	cmp	r3, #0
87803abe:	d03e      	beq.n	87803b3e <xQueueGenericCreateStatic+0xaa>
87803ac0:	fab7 f687 	clz	r6, r7
87803ac4:	0976      	lsrs	r6, r6, #5
87803ac6:	2d00      	cmp	r5, #0
87803ac8:	bf0c      	ite	eq
87803aca:	4633      	moveq	r3, r6
87803acc:	f046 0301 	orrne.w	r3, r6, #1
87803ad0:	b363      	cbz	r3, 87803b2c <xQueueGenericCreateStatic+0x98>
87803ad2:	2354      	movs	r3, #84	; 0x54
87803ad4:	9301      	str	r3, [sp, #4]
87803ad6:	9b01      	ldr	r3, [sp, #4]
87803ad8:	2b54      	cmp	r3, #84	; 0x54
87803ada:	d007      	beq.n	87803aec <xQueueGenericCreateStatic+0x58>
87803adc:	f64b 4024 	movw	r0, #48164	; 0xbc24
87803ae0:	f240 1163 	movw	r1, #355	; 0x163
87803ae4:	f2c8 7080 	movt	r0, #34688	; 0x8780
87803ae8:	f7fc fd1a 	bl	87800520 <vAssertCalled>
87803aec:	b18c      	cbz	r4, 87803b12 <xQueueGenericCreateStatic+0x7e>
87803aee:	2301      	movs	r3, #1
87803af0:	2e00      	cmp	r6, #0
87803af2:	bf18      	it	ne
87803af4:	4625      	movne	r5, r4
87803af6:	4619      	mov	r1, r3
87803af8:	f884 3046 	strb.w	r3, [r4, #70]	; 0x46
87803afc:	6025      	str	r5, [r4, #0]
87803afe:	4620      	mov	r0, r4
87803b00:	f8c4 903c 	str.w	r9, [r4, #60]	; 0x3c
87803b04:	6427      	str	r7, [r4, #64]	; 0x40
87803b06:	f7ff ff85 	bl	87803a14 <xQueueGenericReset>
87803b0a:	2300      	movs	r3, #0
87803b0c:	f884 8050 	strb.w	r8, [r4, #80]	; 0x50
87803b10:	64a3      	str	r3, [r4, #72]	; 0x48
87803b12:	4620      	mov	r0, r4
87803b14:	b003      	add	sp, #12
87803b16:	e8bd 83f0 	ldmia.w	sp!, {r4, r5, r6, r7, r8, r9, pc}
87803b1a:	f64b 4024 	movw	r0, #48164	; 0xbc24
87803b1e:	f44f 71a9 	mov.w	r1, #338	; 0x152
87803b22:	f2c8 7080 	movt	r0, #34688	; 0x8780
87803b26:	f7fc fcfb 	bl	87800520 <vAssertCalled>
87803b2a:	e7be      	b.n	87803aaa <xQueueGenericCreateStatic+0x16>
87803b2c:	f64b 4024 	movw	r0, #48164	; 0xbc24
87803b30:	f240 115b 	movw	r1, #347	; 0x15b
87803b34:	f2c8 7080 	movt	r0, #34688	; 0x8780
87803b38:	f7fc fcf2 	bl	87800520 <vAssertCalled>
87803b3c:	e7c9      	b.n	87803ad2 <xQueueGenericCreateStatic+0x3e>
87803b3e:	f64b 4024 	movw	r0, #48164	; 0xbc24
87803b42:	f44f 71ad 	mov.w	r1, #346	; 0x15a
87803b46:	f2c8 7080 	movt	r0, #34688	; 0x8780
87803b4a:	f7fc fce9 	bl	87800520 <vAssertCalled>
87803b4e:	e7b7      	b.n	87803ac0 <xQueueGenericCreateStatic+0x2c>
87803b50:	f64b 4024 	movw	r0, #48164	; 0xbc24
87803b54:	f44f 71ab 	mov.w	r1, #342	; 0x156
87803b58:	f2c8 7080 	movt	r0, #34688	; 0x8780
87803b5c:	f7fc fce0 	bl	87800520 <vAssertCalled>
87803b60:	e7a5      	b.n	87803aae <xQueueGenericCreateStatic+0x1a>
87803b62:	bf00      	nop

87803b64 <xQueueGenericCreate>:
87803b64:	b5f8      	push	{r3, r4, r5, r6, r7, lr}
87803b66:	460d      	mov	r5, r1
87803b68:	4617      	mov	r7, r2
87803b6a:	4606      	mov	r6, r0
87803b6c:	b310      	cbz	r0, 87803bb4 <xQueueGenericCreate+0x50>
87803b6e:	b16d      	cbz	r5, 87803b8c <xQueueGenericCreate+0x28>
87803b70:	fb05 f006 	mul.w	r0, r5, r6
87803b74:	3054      	adds	r0, #84	; 0x54
87803b76:	f003 f81f 	bl	87806bb8 <pvPortMalloc>
87803b7a:	4604      	mov	r4, r0
87803b7c:	b1c0      	cbz	r0, 87803bb0 <xQueueGenericCreate+0x4c>
87803b7e:	2200      	movs	r2, #0
87803b80:	f100 0354 	add.w	r3, r0, #84	; 0x54
87803b84:	f880 2046 	strb.w	r2, [r0, #70]	; 0x46
87803b88:	6003      	str	r3, [r0, #0]
87803b8a:	e007      	b.n	87803b9c <xQueueGenericCreate+0x38>
87803b8c:	2054      	movs	r0, #84	; 0x54
87803b8e:	f003 f813 	bl	87806bb8 <pvPortMalloc>
87803b92:	4604      	mov	r4, r0
87803b94:	b160      	cbz	r0, 87803bb0 <xQueueGenericCreate+0x4c>
87803b96:	f884 5046 	strb.w	r5, [r4, #70]	; 0x46
87803b9a:	6024      	str	r4, [r4, #0]
87803b9c:	63e6      	str	r6, [r4, #60]	; 0x3c
87803b9e:	2101      	movs	r1, #1
87803ba0:	6425      	str	r5, [r4, #64]	; 0x40
87803ba2:	4620      	mov	r0, r4
87803ba4:	f7ff ff36 	bl	87803a14 <xQueueGenericReset>
87803ba8:	2300      	movs	r3, #0
87803baa:	f884 7050 	strb.w	r7, [r4, #80]	; 0x50
87803bae:	64a3      	str	r3, [r4, #72]	; 0x48
87803bb0:	4620      	mov	r0, r4
87803bb2:	bdf8      	pop	{r3, r4, r5, r6, r7, pc}
87803bb4:	f64b 4024 	movw	r0, #48164	; 0xbc24
87803bb8:	f44f 71c4 	mov.w	r1, #392	; 0x188
87803bbc:	f2c8 7080 	movt	r0, #34688	; 0x8780
87803bc0:	f7fc fcae 	bl	87800520 <vAssertCalled>
87803bc4:	e7d3      	b.n	87803b6e <xQueueGenericCreate+0xa>
87803bc6:	bf00      	nop

87803bc8 <xQueueCreateCountingSemaphoreStatic>:
87803bc8:	b570      	push	{r4, r5, r6, lr}
87803bca:	460d      	mov	r5, r1
87803bcc:	b082      	sub	sp, #8
87803bce:	4616      	mov	r6, r2
87803bd0:	4604      	mov	r4, r0
87803bd2:	b168      	cbz	r0, 87803bf0 <xQueueCreateCountingSemaphoreStatic+0x28>
87803bd4:	42ac      	cmp	r4, r5
87803bd6:	d315      	bcc.n	87803c04 <xQueueCreateCountingSemaphoreStatic+0x3c>
87803bd8:	2102      	movs	r1, #2
87803bda:	2200      	movs	r2, #0
87803bdc:	9100      	str	r1, [sp, #0]
87803bde:	4633      	mov	r3, r6
87803be0:	4620      	mov	r0, r4
87803be2:	4611      	mov	r1, r2
87803be4:	f7ff ff56 	bl	87803a94 <xQueueGenericCreateStatic>
87803be8:	b100      	cbz	r0, 87803bec <xQueueCreateCountingSemaphoreStatic+0x24>
87803bea:	6385      	str	r5, [r0, #56]	; 0x38
87803bec:	b002      	add	sp, #8
87803bee:	bd70      	pop	{r4, r5, r6, pc}
87803bf0:	f64b 4024 	movw	r0, #48164	; 0xbc24
87803bf4:	f240 21a1 	movw	r1, #673	; 0x2a1
87803bf8:	f2c8 7080 	movt	r0, #34688	; 0x8780
87803bfc:	f7fc fc90 	bl	87800520 <vAssertCalled>
87803c00:	42ac      	cmp	r4, r5
87803c02:	d2e9      	bcs.n	87803bd8 <xQueueCreateCountingSemaphoreStatic+0x10>
87803c04:	f64b 4024 	movw	r0, #48164	; 0xbc24
87803c08:	f240 21a2 	movw	r1, #674	; 0x2a2
87803c0c:	f2c8 7080 	movt	r0, #34688	; 0x8780
87803c10:	f7fc fc86 	bl	87800520 <vAssertCalled>
87803c14:	e7e0      	b.n	87803bd8 <xQueueCreateCountingSemaphoreStatic+0x10>
87803c16:	bf00      	nop

87803c18 <xQueueCreateCountingSemaphore>:
87803c18:	b538      	push	{r3, r4, r5, lr}
87803c1a:	460d      	mov	r5, r1
87803c1c:	4604      	mov	r4, r0
87803c1e:	b148      	cbz	r0, 87803c34 <xQueueCreateCountingSemaphore+0x1c>
87803c20:	42ac      	cmp	r4, r5
87803c22:	d311      	bcc.n	87803c48 <xQueueCreateCountingSemaphore+0x30>
87803c24:	4620      	mov	r0, r4
87803c26:	2202      	movs	r2, #2
87803c28:	2100      	movs	r1, #0
87803c2a:	f7ff ff9b 	bl	87803b64 <xQueueGenericCreate>
87803c2e:	b100      	cbz	r0, 87803c32 <xQueueCreateCountingSemaphore+0x1a>
87803c30:	6385      	str	r5, [r0, #56]	; 0x38
87803c32:	bd38      	pop	{r3, r4, r5, pc}
87803c34:	f64b 4024 	movw	r0, #48164	; 0xbc24
87803c38:	f240 21bd 	movw	r1, #701	; 0x2bd
87803c3c:	f2c8 7080 	movt	r0, #34688	; 0x8780
87803c40:	f7fc fc6e 	bl	87800520 <vAssertCalled>
87803c44:	42ac      	cmp	r4, r5
87803c46:	d2ed      	bcs.n	87803c24 <xQueueCreateCountingSemaphore+0xc>
87803c48:	f64b 4024 	movw	r0, #48164	; 0xbc24
87803c4c:	f240 21be 	movw	r1, #702	; 0x2be
87803c50:	f2c8 7080 	movt	r0, #34688	; 0x8780
87803c54:	f7fc fc64 	bl	87800520 <vAssertCalled>
87803c58:	e7e4      	b.n	87803c24 <xQueueCreateCountingSemaphore+0xc>
87803c5a:	bf00      	nop

87803c5c <xQueueGenericSend>:
87803c5c:	e92d 47f0 	stmdb	sp!, {r4, r5, r6, r7, r8, r9, sl, lr}
87803c60:	b084      	sub	sp, #16
87803c62:	4689      	mov	r9, r1
87803c64:	9201      	str	r2, [sp, #4]
87803c66:	4698      	mov	r8, r3
87803c68:	4604      	mov	r4, r0
87803c6a:	2800      	cmp	r0, #0
87803c6c:	f000 809f 	beq.w	87803dae <xQueueGenericSend+0x152>
87803c70:	f1b9 0f00 	cmp.w	r9, #0
87803c74:	f000 80a7 	beq.w	87803dc6 <xQueueGenericSend+0x16a>
87803c78:	f1b8 0f02 	cmp.w	r8, #2
87803c7c:	d077      	beq.n	87803d6e <xQueueGenericSend+0x112>
87803c7e:	f002 f8bf 	bl	87805e00 <xTaskGetSchedulerState>
87803c82:	b910      	cbnz	r0, 87803c8a <xQueueGenericSend+0x2e>
87803c84:	9b01      	ldr	r3, [sp, #4]
87803c86:	2b00      	cmp	r3, #0
87803c88:	d168      	bne.n	87803d5c <xQueueGenericSend+0x100>
87803c8a:	f1a8 0602 	sub.w	r6, r8, #2
87803c8e:	f04f 0a00 	mov.w	sl, #0
87803c92:	fab6 f686 	clz	r6, r6
87803c96:	4657      	mov	r7, sl
87803c98:	0976      	lsrs	r6, r6, #5
87803c9a:	e028      	b.n	87803cee <xQueueGenericSend+0x92>
87803c9c:	f003 f976 	bl	87806f8c <vPortExitCritical>
87803ca0:	f001 fb9c 	bl	878053dc <vTaskSuspendAll>
87803ca4:	f003 fa04 	bl	878070b0 <vPortEnterCritical>
87803ca8:	f894 3044 	ldrb.w	r3, [r4, #68]	; 0x44
87803cac:	2bff      	cmp	r3, #255	; 0xff
87803cae:	bf08      	it	eq
87803cb0:	f884 7044 	strbeq.w	r7, [r4, #68]	; 0x44
87803cb4:	f894 3045 	ldrb.w	r3, [r4, #69]	; 0x45
87803cb8:	2bff      	cmp	r3, #255	; 0xff
87803cba:	bf08      	it	eq
87803cbc:	f884 7045 	strbeq.w	r7, [r4, #69]	; 0x45
87803cc0:	f003 f964 	bl	87806f8c <vPortExitCritical>
87803cc4:	a901      	add	r1, sp, #4
87803cc6:	a802      	add	r0, sp, #8
87803cc8:	f001 ff36 	bl	87805b38 <xTaskCheckForTimeOut>
87803ccc:	2800      	cmp	r0, #0
87803cce:	d160      	bne.n	87803d92 <xQueueGenericSend+0x136>
87803cd0:	f003 f9ee 	bl	878070b0 <vPortEnterCritical>
87803cd4:	6ba2      	ldr	r2, [r4, #56]	; 0x38
87803cd6:	6be3      	ldr	r3, [r4, #60]	; 0x3c
87803cd8:	429a      	cmp	r2, r3
87803cda:	d01c      	beq.n	87803d16 <xQueueGenericSend+0xba>
87803cdc:	f003 f956 	bl	87806f8c <vPortExitCritical>
87803ce0:	4620      	mov	r0, r4
87803ce2:	f7ff fe43 	bl	8780396c <prvUnlockQueue>
87803ce6:	f001 fc43 	bl	87805570 <xTaskResumeAll>
87803cea:	f04f 0a01 	mov.w	sl, #1
87803cee:	f003 f9df 	bl	878070b0 <vPortEnterCritical>
87803cf2:	6ba3      	ldr	r3, [r4, #56]	; 0x38
87803cf4:	6be2      	ldr	r2, [r4, #60]	; 0x3c
87803cf6:	4293      	cmp	r3, r2
87803cf8:	bf2c      	ite	cs
87803cfa:	4633      	movcs	r3, r6
87803cfc:	f046 0301 	orrcc.w	r3, r6, #1
87803d00:	b9cb      	cbnz	r3, 87803d36 <xQueueGenericSend+0xda>
87803d02:	9d01      	ldr	r5, [sp, #4]
87803d04:	2d00      	cmp	r5, #0
87803d06:	d03e      	beq.n	87803d86 <xQueueGenericSend+0x12a>
87803d08:	f1ba 0f00 	cmp.w	sl, #0
87803d0c:	d1c6      	bne.n	87803c9c <xQueueGenericSend+0x40>
87803d0e:	a802      	add	r0, sp, #8
87803d10:	f001 fefa 	bl	87805b08 <vTaskSetTimeOutState>
87803d14:	e7c2      	b.n	87803c9c <xQueueGenericSend+0x40>
87803d16:	f003 f939 	bl	87806f8c <vPortExitCritical>
87803d1a:	9901      	ldr	r1, [sp, #4]
87803d1c:	f104 0010 	add.w	r0, r4, #16
87803d20:	f001 fdf6 	bl	87805910 <vTaskPlaceOnEventList>
87803d24:	4620      	mov	r0, r4
87803d26:	f7ff fe21 	bl	8780396c <prvUnlockQueue>
87803d2a:	f001 fc21 	bl	87805570 <xTaskResumeAll>
87803d2e:	2800      	cmp	r0, #0
87803d30:	d1db      	bne.n	87803cea <xQueueGenericSend+0x8e>
87803d32:	df00      	svc	0
87803d34:	e7d9      	b.n	87803cea <xQueueGenericSend+0x8e>
87803d36:	4649      	mov	r1, r9
87803d38:	4642      	mov	r2, r8
87803d3a:	4620      	mov	r0, r4
87803d3c:	f7ff fd80 	bl	87803840 <prvCopyDataToQueue>
87803d40:	6ca3      	ldr	r3, [r4, #72]	; 0x48
87803d42:	b37b      	cbz	r3, 87803da4 <xQueueGenericSend+0x148>
87803d44:	4641      	mov	r1, r8
87803d46:	4620      	mov	r0, r4
87803d48:	f7ff fdbc 	bl	878038c4 <prvNotifyQueueSetContainer>
87803d4c:	b100      	cbz	r0, 87803d50 <xQueueGenericSend+0xf4>
87803d4e:	df00      	svc	0
87803d50:	f003 f91c 	bl	87806f8c <vPortExitCritical>
87803d54:	2001      	movs	r0, #1
87803d56:	b004      	add	sp, #16
87803d58:	e8bd 87f0 	ldmia.w	sp!, {r4, r5, r6, r7, r8, r9, sl, pc}
87803d5c:	f64b 4024 	movw	r0, #48164	; 0xbc24
87803d60:	f240 21de 	movw	r1, #734	; 0x2de
87803d64:	f2c8 7080 	movt	r0, #34688	; 0x8780
87803d68:	f7fc fbda 	bl	87800520 <vAssertCalled>
87803d6c:	e78d      	b.n	87803c8a <xQueueGenericSend+0x2e>
87803d6e:	6be3      	ldr	r3, [r4, #60]	; 0x3c
87803d70:	2b01      	cmp	r3, #1
87803d72:	d084      	beq.n	87803c7e <xQueueGenericSend+0x22>
87803d74:	f64b 4024 	movw	r0, #48164	; 0xbc24
87803d78:	f240 21db 	movw	r1, #731	; 0x2db
87803d7c:	f2c8 7080 	movt	r0, #34688	; 0x8780
87803d80:	f7fc fbce 	bl	87800520 <vAssertCalled>
87803d84:	e77b      	b.n	87803c7e <xQueueGenericSend+0x22>
87803d86:	f003 f901 	bl	87806f8c <vPortExitCritical>
87803d8a:	4628      	mov	r0, r5
87803d8c:	b004      	add	sp, #16
87803d8e:	e8bd 87f0 	ldmia.w	sp!, {r4, r5, r6, r7, r8, r9, sl, pc}
87803d92:	4620      	mov	r0, r4
87803d94:	f7ff fdea 	bl	8780396c <prvUnlockQueue>
87803d98:	f001 fbea 	bl	87805570 <xTaskResumeAll>
87803d9c:	2000      	movs	r0, #0
87803d9e:	b004      	add	sp, #16
87803da0:	e8bd 87f0 	ldmia.w	sp!, {r4, r5, r6, r7, r8, r9, sl, pc}
87803da4:	6a63      	ldr	r3, [r4, #36]	; 0x24
87803da6:	b9db      	cbnz	r3, 87803de0 <xQueueGenericSend+0x184>
87803da8:	2800      	cmp	r0, #0
87803daa:	d1d0      	bne.n	87803d4e <xQueueGenericSend+0xf2>
87803dac:	e7d0      	b.n	87803d50 <xQueueGenericSend+0xf4>
87803dae:	f64b 4024 	movw	r0, #48164	; 0xbc24
87803db2:	f240 21d9 	movw	r1, #729	; 0x2d9
87803db6:	f2c8 7080 	movt	r0, #34688	; 0x8780
87803dba:	f7fc fbb1 	bl	87800520 <vAssertCalled>
87803dbe:	f1b9 0f00 	cmp.w	r9, #0
87803dc2:	f47f af59 	bne.w	87803c78 <xQueueGenericSend+0x1c>
87803dc6:	6c23      	ldr	r3, [r4, #64]	; 0x40
87803dc8:	2b00      	cmp	r3, #0
87803dca:	f43f af55 	beq.w	87803c78 <xQueueGenericSend+0x1c>
87803dce:	f64b 4024 	movw	r0, #48164	; 0xbc24
87803dd2:	f240 21da 	movw	r1, #730	; 0x2da
87803dd6:	f2c8 7080 	movt	r0, #34688	; 0x8780
87803dda:	f7fc fba1 	bl	87800520 <vAssertCalled>
87803dde:	e74b      	b.n	87803c78 <xQueueGenericSend+0x1c>
87803de0:	f104 0024 	add.w	r0, r4, #36	; 0x24
87803de4:	f001 fdfe 	bl	878059e4 <xTaskRemoveFromEventList>
87803de8:	2800      	cmp	r0, #0
87803dea:	d1b0      	bne.n	87803d4e <xQueueGenericSend+0xf2>
87803dec:	e7b0      	b.n	87803d50 <xQueueGenericSend+0xf4>
87803dee:	bf00      	nop

87803df0 <prvInitialiseMutex>:
87803df0:	b138      	cbz	r0, 87803e02 <prvInitialiseMutex+0x12>
87803df2:	2300      	movs	r3, #0
87803df4:	6043      	str	r3, [r0, #4]
87803df6:	461a      	mov	r2, r3
87803df8:	6003      	str	r3, [r0, #0]
87803dfa:	4619      	mov	r1, r3
87803dfc:	60c3      	str	r3, [r0, #12]
87803dfe:	f7ff bf2d 	b.w	87803c5c <xQueueGenericSend>
87803e02:	4770      	bx	lr

87803e04 <xQueueCreateMutex>:
87803e04:	b510      	push	{r4, lr}
87803e06:	4602      	mov	r2, r0
87803e08:	2100      	movs	r1, #0
87803e0a:	2001      	movs	r0, #1
87803e0c:	f7ff feaa 	bl	87803b64 <xQueueGenericCreate>
87803e10:	4604      	mov	r4, r0
87803e12:	f7ff ffed 	bl	87803df0 <prvInitialiseMutex>
87803e16:	4620      	mov	r0, r4
87803e18:	bd10      	pop	{r4, pc}
87803e1a:	bf00      	nop

87803e1c <xQueueCreateMutexStatic>:
87803e1c:	b510      	push	{r4, lr}
87803e1e:	2200      	movs	r2, #0
87803e20:	b082      	sub	sp, #8
87803e22:	460b      	mov	r3, r1
87803e24:	4611      	mov	r1, r2
87803e26:	9000      	str	r0, [sp, #0]
87803e28:	2001      	movs	r0, #1
87803e2a:	f7ff fe33 	bl	87803a94 <xQueueGenericCreateStatic>
87803e2e:	4604      	mov	r4, r0
87803e30:	f7ff ffde 	bl	87803df0 <prvInitialiseMutex>
87803e34:	4620      	mov	r0, r4
87803e36:	b002      	add	sp, #8
87803e38:	bd10      	pop	{r4, pc}
87803e3a:	bf00      	nop

87803e3c <xQueueGiveMutexRecursive>:
87803e3c:	b538      	push	{r3, r4, r5, lr}
87803e3e:	4604      	mov	r4, r0
87803e40:	b198      	cbz	r0, 87803e6a <xQueueGiveMutexRecursive+0x2e>
87803e42:	6865      	ldr	r5, [r4, #4]
87803e44:	f001 ffd6 	bl	87805df4 <xTaskGetCurrentTaskHandle>
87803e48:	4285      	cmp	r5, r0
87803e4a:	d001      	beq.n	87803e50 <xQueueGiveMutexRecursive+0x14>
87803e4c:	2000      	movs	r0, #0
87803e4e:	bd38      	pop	{r3, r4, r5, pc}
87803e50:	68e3      	ldr	r3, [r4, #12]
87803e52:	3b01      	subs	r3, #1
87803e54:	60e3      	str	r3, [r4, #12]
87803e56:	b10b      	cbz	r3, 87803e5c <xQueueGiveMutexRecursive+0x20>
87803e58:	2001      	movs	r0, #1
87803e5a:	bd38      	pop	{r3, r4, r5, pc}
87803e5c:	4620      	mov	r0, r4
87803e5e:	461a      	mov	r2, r3
87803e60:	4619      	mov	r1, r3
87803e62:	f7ff fefb 	bl	87803c5c <xQueueGenericSend>
87803e66:	2001      	movs	r0, #1
87803e68:	bd38      	pop	{r3, r4, r5, pc}
87803e6a:	f64b 4024 	movw	r0, #48164	; 0xbc24
87803e6e:	f240 2141 	movw	r1, #577	; 0x241
87803e72:	f2c8 7080 	movt	r0, #34688	; 0x8780
87803e76:	f7fc fb53 	bl	87800520 <vAssertCalled>
87803e7a:	e7e2      	b.n	87803e42 <xQueueGiveMutexRecursive+0x6>

87803e7c <xQueueGenericSendFromISR>:
87803e7c:	e92d 43f8 	stmdb	sp!, {r3, r4, r5, r6, r7, r8, r9, lr}
87803e80:	460f      	mov	r7, r1
87803e82:	4691      	mov	r9, r2
87803e84:	461e      	mov	r6, r3
87803e86:	4604      	mov	r4, r0
87803e88:	2800      	cmp	r0, #0
87803e8a:	d04a      	beq.n	87803f22 <xQueueGenericSendFromISR+0xa6>
87803e8c:	2f00      	cmp	r7, #0
87803e8e:	d052      	beq.n	87803f36 <xQueueGenericSendFromISR+0xba>
87803e90:	2e02      	cmp	r6, #2
87803e92:	d010      	beq.n	87803eb6 <xQueueGenericSendFromISR+0x3a>
87803e94:	f003 f92c 	bl	878070f0 <vPortValidateInterruptPriority>
87803e98:	f003 f8ee 	bl	87807078 <ulPortSetInterruptMask>
87803e9c:	6ba2      	ldr	r2, [r4, #56]	; 0x38
87803e9e:	4680      	mov	r8, r0
87803ea0:	6be3      	ldr	r3, [r4, #60]	; 0x3c
87803ea2:	429a      	cmp	r2, r3
87803ea4:	bf28      	it	cs
87803ea6:	2600      	movcs	r6, #0
87803ea8:	d316      	bcc.n	87803ed8 <xQueueGenericSendFromISR+0x5c>
87803eaa:	4640      	mov	r0, r8
87803eac:	f003 f8ce 	bl	8780704c <vPortClearInterruptMask>
87803eb0:	4630      	mov	r0, r6
87803eb2:	e8bd 83f8 	ldmia.w	sp!, {r3, r4, r5, r6, r7, r8, r9, pc}
87803eb6:	6be3      	ldr	r3, [r4, #60]	; 0x3c
87803eb8:	2b01      	cmp	r3, #1
87803eba:	d007      	beq.n	87803ecc <xQueueGenericSendFromISR+0x50>
87803ebc:	f64b 4024 	movw	r0, #48164	; 0xbc24
87803ec0:	f240 31a1 	movw	r1, #929	; 0x3a1
87803ec4:	f2c8 7080 	movt	r0, #34688	; 0x8780
87803ec8:	f7fc fb2a 	bl	87800520 <vAssertCalled>
87803ecc:	f003 f910 	bl	878070f0 <vPortValidateInterruptPriority>
87803ed0:	f003 f8d2 	bl	87807078 <ulPortSetInterruptMask>
87803ed4:	6ba3      	ldr	r3, [r4, #56]	; 0x38
87803ed6:	4680      	mov	r8, r0
87803ed8:	f894 5045 	ldrb.w	r5, [r4, #69]	; 0x45
87803edc:	4639      	mov	r1, r7
87803ede:	4632      	mov	r2, r6
87803ee0:	4620      	mov	r0, r4
87803ee2:	f7ff fcad 	bl	87803840 <prvCopyDataToQueue>
87803ee6:	b2ed      	uxtb	r5, r5
87803ee8:	2dff      	cmp	r5, #255	; 0xff
87803eea:	d00a      	beq.n	87803f02 <xQueueGenericSendFromISR+0x86>
87803eec:	3501      	adds	r5, #1
87803eee:	4640      	mov	r0, r8
87803ef0:	b2ed      	uxtb	r5, r5
87803ef2:	2601      	movs	r6, #1
87803ef4:	f884 5045 	strb.w	r5, [r4, #69]	; 0x45
87803ef8:	f003 f8a8 	bl	8780704c <vPortClearInterruptMask>
87803efc:	4630      	mov	r0, r6
87803efe:	e8bd 83f8 	ldmia.w	sp!, {r3, r4, r5, r6, r7, r8, r9, pc}
87803f02:	6ca3      	ldr	r3, [r4, #72]	; 0x48
87803f04:	b31b      	cbz	r3, 87803f4e <xQueueGenericSendFromISR+0xd2>
87803f06:	4631      	mov	r1, r6
87803f08:	4620      	mov	r0, r4
87803f0a:	f7ff fcdb 	bl	878038c4 <prvNotifyQueueSetContainer>
87803f0e:	2800      	cmp	r0, #0
87803f10:	bf18      	it	ne
87803f12:	f1b9 0f00 	cmpne.w	r9, #0
87803f16:	f04f 0601 	mov.w	r6, #1
87803f1a:	d0c6      	beq.n	87803eaa <xQueueGenericSendFromISR+0x2e>
87803f1c:	f8c9 6000 	str.w	r6, [r9]
87803f20:	e7c3      	b.n	87803eaa <xQueueGenericSendFromISR+0x2e>
87803f22:	f64b 4024 	movw	r0, #48164	; 0xbc24
87803f26:	f240 319f 	movw	r1, #927	; 0x39f
87803f2a:	f2c8 7080 	movt	r0, #34688	; 0x8780
87803f2e:	f7fc faf7 	bl	87800520 <vAssertCalled>
87803f32:	2f00      	cmp	r7, #0
87803f34:	d1ac      	bne.n	87803e90 <xQueueGenericSendFromISR+0x14>
87803f36:	6c23      	ldr	r3, [r4, #64]	; 0x40
87803f38:	2b00      	cmp	r3, #0
87803f3a:	d0a9      	beq.n	87803e90 <xQueueGenericSendFromISR+0x14>
87803f3c:	f64b 4024 	movw	r0, #48164	; 0xbc24
87803f40:	f44f 7168 	mov.w	r1, #928	; 0x3a0
87803f44:	f2c8 7080 	movt	r0, #34688	; 0x8780
87803f48:	f7fc faea 	bl	87800520 <vAssertCalled>
87803f4c:	e7a0      	b.n	87803e90 <xQueueGenericSendFromISR+0x14>
87803f4e:	6a63      	ldr	r3, [r4, #36]	; 0x24
87803f50:	2601      	movs	r6, #1
87803f52:	2b00      	cmp	r3, #0
87803f54:	d0a9      	beq.n	87803eaa <xQueueGenericSendFromISR+0x2e>
87803f56:	f104 0024 	add.w	r0, r4, #36	; 0x24
87803f5a:	2601      	movs	r6, #1
87803f5c:	f001 fd42 	bl	878059e4 <xTaskRemoveFromEventList>
87803f60:	2800      	cmp	r0, #0
87803f62:	bf18      	it	ne
87803f64:	f1b9 0f00 	cmpne.w	r9, #0
87803f68:	d1d8      	bne.n	87803f1c <xQueueGenericSendFromISR+0xa0>
87803f6a:	e79e      	b.n	87803eaa <xQueueGenericSendFromISR+0x2e>

87803f6c <xQueueGiveFromISR>:
87803f6c:	b5f8      	push	{r3, r4, r5, r6, r7, lr}
87803f6e:	460f      	mov	r7, r1
87803f70:	4604      	mov	r4, r0
87803f72:	2800      	cmp	r0, #0
87803f74:	d043      	beq.n	87803ffe <xQueueGiveFromISR+0x92>
87803f76:	6c23      	ldr	r3, [r4, #64]	; 0x40
87803f78:	b9eb      	cbnz	r3, 87803fb6 <xQueueGiveFromISR+0x4a>
87803f7a:	6823      	ldr	r3, [r4, #0]
87803f7c:	b333      	cbz	r3, 87803fcc <xQueueGiveFromISR+0x60>
87803f7e:	f003 f8b7 	bl	878070f0 <vPortValidateInterruptPriority>
87803f82:	f003 f879 	bl	87807078 <ulPortSetInterruptMask>
87803f86:	6ba2      	ldr	r2, [r4, #56]	; 0x38
87803f88:	4606      	mov	r6, r0
87803f8a:	6be3      	ldr	r3, [r4, #60]	; 0x3c
87803f8c:	429a      	cmp	r2, r3
87803f8e:	bf28      	it	cs
87803f90:	2500      	movcs	r5, #0
87803f92:	d20b      	bcs.n	87803fac <xQueueGiveFromISR+0x40>
87803f94:	f894 3045 	ldrb.w	r3, [r4, #69]	; 0x45
87803f98:	3201      	adds	r2, #1
87803f9a:	63a2      	str	r2, [r4, #56]	; 0x38
87803f9c:	b2db      	uxtb	r3, r3
87803f9e:	2bff      	cmp	r3, #255	; 0xff
87803fa0:	d020      	beq.n	87803fe4 <xQueueGiveFromISR+0x78>
87803fa2:	3301      	adds	r3, #1
87803fa4:	2501      	movs	r5, #1
87803fa6:	b2db      	uxtb	r3, r3
87803fa8:	f884 3045 	strb.w	r3, [r4, #69]	; 0x45
87803fac:	4630      	mov	r0, r6
87803fae:	f003 f84d 	bl	8780704c <vPortClearInterruptMask>
87803fb2:	4628      	mov	r0, r5
87803fb4:	bdf8      	pop	{r3, r4, r5, r6, r7, pc}
87803fb6:	f64b 4024 	movw	r0, #48164	; 0xbc24
87803fba:	f44f 6188 	mov.w	r1, #1088	; 0x440
87803fbe:	f2c8 7080 	movt	r0, #34688	; 0x8780
87803fc2:	f7fc faad 	bl	87800520 <vAssertCalled>
87803fc6:	6823      	ldr	r3, [r4, #0]
87803fc8:	2b00      	cmp	r3, #0
87803fca:	d1d8      	bne.n	87803f7e <xQueueGiveFromISR+0x12>
87803fcc:	6863      	ldr	r3, [r4, #4]
87803fce:	2b00      	cmp	r3, #0
87803fd0:	d0d5      	beq.n	87803f7e <xQueueGiveFromISR+0x12>
87803fd2:	f64b 4024 	movw	r0, #48164	; 0xbc24
87803fd6:	f240 4145 	movw	r1, #1093	; 0x445
87803fda:	f2c8 7080 	movt	r0, #34688	; 0x8780
87803fde:	f7fc fa9f 	bl	87800520 <vAssertCalled>
87803fe2:	e7cc      	b.n	87803f7e <xQueueGiveFromISR+0x12>
87803fe4:	6ca3      	ldr	r3, [r4, #72]	; 0x48
87803fe6:	b19b      	cbz	r3, 87804010 <xQueueGiveFromISR+0xa4>
87803fe8:	4620      	mov	r0, r4
87803fea:	2100      	movs	r1, #0
87803fec:	f7ff fc6a 	bl	878038c4 <prvNotifyQueueSetContainer>
87803ff0:	2800      	cmp	r0, #0
87803ff2:	bf18      	it	ne
87803ff4:	2f00      	cmpne	r7, #0
87803ff6:	d00d      	beq.n	87804014 <xQueueGiveFromISR+0xa8>
87803ff8:	2501      	movs	r5, #1
87803ffa:	603d      	str	r5, [r7, #0]
87803ffc:	e7d6      	b.n	87803fac <xQueueGiveFromISR+0x40>
87803ffe:	f64b 4024 	movw	r0, #48164	; 0xbc24
87804002:	f240 413c 	movw	r1, #1084	; 0x43c
87804006:	f2c8 7080 	movt	r0, #34688	; 0x8780
8780400a:	f7fc fa89 	bl	87800520 <vAssertCalled>
8780400e:	e7b2      	b.n	87803f76 <xQueueGiveFromISR+0xa>
87804010:	6a63      	ldr	r3, [r4, #36]	; 0x24
87804012:	b90b      	cbnz	r3, 87804018 <xQueueGiveFromISR+0xac>
87804014:	2501      	movs	r5, #1
87804016:	e7c9      	b.n	87803fac <xQueueGiveFromISR+0x40>
87804018:	f104 0024 	add.w	r0, r4, #36	; 0x24
8780401c:	f001 fce2 	bl	878059e4 <xTaskRemoveFromEventList>
87804020:	2800      	cmp	r0, #0
87804022:	bf18      	it	ne
87804024:	2f00      	cmpne	r7, #0
87804026:	d1e7      	bne.n	87803ff8 <xQueueGiveFromISR+0x8c>
87804028:	e7f4      	b.n	87804014 <xQueueGiveFromISR+0xa8>
8780402a:	bf00      	nop

8780402c <xQueueGenericReceive>:
8780402c:	e92d 43f0 	stmdb	sp!, {r4, r5, r6, r7, r8, r9, lr}
87804030:	b085      	sub	sp, #20
87804032:	4688      	mov	r8, r1
87804034:	9201      	str	r2, [sp, #4]
87804036:	4699      	mov	r9, r3
87804038:	4604      	mov	r4, r0
8780403a:	2800      	cmp	r0, #0
8780403c:	f000 809d 	beq.w	8780417a <xQueueGenericReceive+0x14e>
87804040:	f1b8 0f00 	cmp.w	r8, #0
87804044:	f000 80a5 	beq.w	87804192 <xQueueGenericReceive+0x166>
87804048:	f001 feda 	bl	87805e00 <xTaskGetSchedulerState>
8780404c:	b910      	cbnz	r0, 87804054 <xQueueGenericReceive+0x28>
8780404e:	9b01      	ldr	r3, [sp, #4]
87804050:	2b00      	cmp	r3, #0
87804052:	d159      	bne.n	87804108 <xQueueGenericReceive+0xdc>
87804054:	2600      	movs	r6, #0
87804056:	4637      	mov	r7, r6
87804058:	e016      	b.n	87804088 <xQueueGenericReceive+0x5c>
8780405a:	f003 f829 	bl	878070b0 <vPortEnterCritical>
8780405e:	6ba3      	ldr	r3, [r4, #56]	; 0x38
87804060:	2b00      	cmp	r3, #0
87804062:	d143      	bne.n	878040ec <xQueueGenericReceive+0xc0>
87804064:	f002 ff92 	bl	87806f8c <vPortExitCritical>
87804068:	6823      	ldr	r3, [r4, #0]
8780406a:	2b00      	cmp	r3, #0
8780406c:	d06a      	beq.n	87804144 <xQueueGenericReceive+0x118>
8780406e:	9901      	ldr	r1, [sp, #4]
87804070:	f104 0024 	add.w	r0, r4, #36	; 0x24
87804074:	f001 fc4c 	bl	87805910 <vTaskPlaceOnEventList>
87804078:	4620      	mov	r0, r4
8780407a:	f7ff fc77 	bl	8780396c <prvUnlockQueue>
8780407e:	f001 fa77 	bl	87805570 <xTaskResumeAll>
87804082:	b900      	cbnz	r0, 87804086 <xQueueGenericReceive+0x5a>
87804084:	df00      	svc	0
87804086:	2601      	movs	r6, #1
87804088:	f003 f812 	bl	878070b0 <vPortEnterCritical>
8780408c:	6ba5      	ldr	r5, [r4, #56]	; 0x38
8780408e:	2d00      	cmp	r5, #0
87804090:	d143      	bne.n	8780411a <xQueueGenericReceive+0xee>
87804092:	9b01      	ldr	r3, [sp, #4]
87804094:	b393      	cbz	r3, 878040fc <xQueueGenericReceive+0xd0>
87804096:	b32e      	cbz	r6, 878040e4 <xQueueGenericReceive+0xb8>
87804098:	f002 ff78 	bl	87806f8c <vPortExitCritical>
8780409c:	f001 f99e 	bl	878053dc <vTaskSuspendAll>
878040a0:	f003 f806 	bl	878070b0 <vPortEnterCritical>
878040a4:	f894 3044 	ldrb.w	r3, [r4, #68]	; 0x44
878040a8:	2bff      	cmp	r3, #255	; 0xff
878040aa:	bf08      	it	eq
878040ac:	f884 7044 	strbeq.w	r7, [r4, #68]	; 0x44
878040b0:	f894 3045 	ldrb.w	r3, [r4, #69]	; 0x45
878040b4:	2bff      	cmp	r3, #255	; 0xff
878040b6:	bf08      	it	eq
878040b8:	f884 7045 	strbeq.w	r7, [r4, #69]	; 0x45
878040bc:	f002 ff66 	bl	87806f8c <vPortExitCritical>
878040c0:	a901      	add	r1, sp, #4
878040c2:	a802      	add	r0, sp, #8
878040c4:	f001 fd38 	bl	87805b38 <xTaskCheckForTimeOut>
878040c8:	2800      	cmp	r0, #0
878040ca:	d0c6      	beq.n	8780405a <xQueueGenericReceive+0x2e>
878040cc:	4620      	mov	r0, r4
878040ce:	f7ff fc4d 	bl	8780396c <prvUnlockQueue>
878040d2:	f001 fa4d 	bl	87805570 <xTaskResumeAll>
878040d6:	f002 ffeb 	bl	878070b0 <vPortEnterCritical>
878040da:	6ba3      	ldr	r3, [r4, #56]	; 0x38
878040dc:	b173      	cbz	r3, 878040fc <xQueueGenericReceive+0xd0>
878040de:	f002 ff55 	bl	87806f8c <vPortExitCritical>
878040e2:	e7d0      	b.n	87804086 <xQueueGenericReceive+0x5a>
878040e4:	a802      	add	r0, sp, #8
878040e6:	f001 fd0f 	bl	87805b08 <vTaskSetTimeOutState>
878040ea:	e7d5      	b.n	87804098 <xQueueGenericReceive+0x6c>
878040ec:	f002 ff4e 	bl	87806f8c <vPortExitCritical>
878040f0:	4620      	mov	r0, r4
878040f2:	f7ff fc3b 	bl	8780396c <prvUnlockQueue>
878040f6:	f001 fa3b 	bl	87805570 <xTaskResumeAll>
878040fa:	e7c4      	b.n	87804086 <xQueueGenericReceive+0x5a>
878040fc:	f002 ff46 	bl	87806f8c <vPortExitCritical>
87804100:	2000      	movs	r0, #0
87804102:	b005      	add	sp, #20
87804104:	e8bd 83f0 	ldmia.w	sp!, {r4, r5, r6, r7, r8, r9, pc}
87804108:	f64b 4024 	movw	r0, #48164	; 0xbc24
8780410c:	f44f 619c 	mov.w	r1, #1248	; 0x4e0
87804110:	f2c8 7080 	movt	r0, #34688	; 0x8780
87804114:	f7fc fa04 	bl	87800520 <vAssertCalled>
87804118:	e79c      	b.n	87804054 <xQueueGenericReceive+0x28>
8780411a:	4641      	mov	r1, r8
8780411c:	4620      	mov	r0, r4
8780411e:	68e6      	ldr	r6, [r4, #12]
87804120:	f7ff fc12 	bl	87803948 <prvCopyDataFromQueue>
87804124:	f1b9 0f00 	cmp.w	r9, #0
87804128:	d114      	bne.n	87804154 <xQueueGenericReceive+0x128>
8780412a:	6823      	ldr	r3, [r4, #0]
8780412c:	3d01      	subs	r5, #1
8780412e:	63a5      	str	r5, [r4, #56]	; 0x38
87804130:	2b00      	cmp	r3, #0
87804132:	d03b      	beq.n	878041ac <xQueueGenericReceive+0x180>
87804134:	6923      	ldr	r3, [r4, #16]
87804136:	b9cb      	cbnz	r3, 8780416c <xQueueGenericReceive+0x140>
87804138:	f002 ff28 	bl	87806f8c <vPortExitCritical>
8780413c:	2001      	movs	r0, #1
8780413e:	b005      	add	sp, #20
87804140:	e8bd 83f0 	ldmia.w	sp!, {r4, r5, r6, r7, r8, r9, pc}
87804144:	f002 ffb4 	bl	878070b0 <vPortEnterCritical>
87804148:	6860      	ldr	r0, [r4, #4]
8780414a:	f001 fe69 	bl	87805e20 <vTaskPriorityInherit>
8780414e:	f002 ff1d 	bl	87806f8c <vPortExitCritical>
87804152:	e78c      	b.n	8780406e <xQueueGenericReceive+0x42>
87804154:	6a63      	ldr	r3, [r4, #36]	; 0x24
87804156:	60e6      	str	r6, [r4, #12]
87804158:	2b00      	cmp	r3, #0
8780415a:	d0ed      	beq.n	87804138 <xQueueGenericReceive+0x10c>
8780415c:	f104 0024 	add.w	r0, r4, #36	; 0x24
87804160:	f001 fc40 	bl	878059e4 <xTaskRemoveFromEventList>
87804164:	2800      	cmp	r0, #0
87804166:	d0e7      	beq.n	87804138 <xQueueGenericReceive+0x10c>
87804168:	df00      	svc	0
8780416a:	e7e5      	b.n	87804138 <xQueueGenericReceive+0x10c>
8780416c:	f104 0010 	add.w	r0, r4, #16
87804170:	f001 fc38 	bl	878059e4 <xTaskRemoveFromEventList>
87804174:	2800      	cmp	r0, #0
87804176:	d1f7      	bne.n	87804168 <xQueueGenericReceive+0x13c>
87804178:	e7de      	b.n	87804138 <xQueueGenericReceive+0x10c>
8780417a:	f64b 4024 	movw	r0, #48164	; 0xbc24
8780417e:	f240 41dc 	movw	r1, #1244	; 0x4dc
87804182:	f2c8 7080 	movt	r0, #34688	; 0x8780
87804186:	f7fc f9cb 	bl	87800520 <vAssertCalled>
8780418a:	f1b8 0f00 	cmp.w	r8, #0
8780418e:	f47f af5b 	bne.w	87804048 <xQueueGenericReceive+0x1c>
87804192:	6c23      	ldr	r3, [r4, #64]	; 0x40
87804194:	2b00      	cmp	r3, #0
87804196:	f43f af57 	beq.w	87804048 <xQueueGenericReceive+0x1c>
8780419a:	f64b 4024 	movw	r0, #48164	; 0xbc24
8780419e:	f240 41dd 	movw	r1, #1245	; 0x4dd
878041a2:	f2c8 7080 	movt	r0, #34688	; 0x8780
878041a6:	f7fc f9bb 	bl	87800520 <vAssertCalled>
878041aa:	e74d      	b.n	87804048 <xQueueGenericReceive+0x1c>
878041ac:	f001 ffd0 	bl	87806150 <pvTaskIncrementMutexHeldCount>
878041b0:	6060      	str	r0, [r4, #4]
878041b2:	e7bf      	b.n	87804134 <xQueueGenericReceive+0x108>

878041b4 <xQueueTakeMutexRecursive>:
878041b4:	b570      	push	{r4, r5, r6, lr}
878041b6:	460e      	mov	r6, r1
878041b8:	4604      	mov	r4, r0
878041ba:	b1a0      	cbz	r0, 878041e6 <xQueueTakeMutexRecursive+0x32>
878041bc:	6865      	ldr	r5, [r4, #4]
878041be:	f001 fe19 	bl	87805df4 <xTaskGetCurrentTaskHandle>
878041c2:	4285      	cmp	r5, r0
878041c4:	d00a      	beq.n	878041dc <xQueueTakeMutexRecursive+0x28>
878041c6:	2300      	movs	r3, #0
878041c8:	4632      	mov	r2, r6
878041ca:	4619      	mov	r1, r3
878041cc:	4620      	mov	r0, r4
878041ce:	f7ff ff2d 	bl	8780402c <xQueueGenericReceive>
878041d2:	b110      	cbz	r0, 878041da <xQueueTakeMutexRecursive+0x26>
878041d4:	68e3      	ldr	r3, [r4, #12]
878041d6:	3301      	adds	r3, #1
878041d8:	60e3      	str	r3, [r4, #12]
878041da:	bd70      	pop	{r4, r5, r6, pc}
878041dc:	68e3      	ldr	r3, [r4, #12]
878041de:	2001      	movs	r0, #1
878041e0:	4403      	add	r3, r0
878041e2:	60e3      	str	r3, [r4, #12]
878041e4:	bd70      	pop	{r4, r5, r6, pc}
878041e6:	f64b 4024 	movw	r0, #48164	; 0xbc24
878041ea:	f44f 711e 	mov.w	r1, #632	; 0x278
878041ee:	f2c8 7080 	movt	r0, #34688	; 0x8780
878041f2:	f7fc f995 	bl	87800520 <vAssertCalled>
878041f6:	e7e1      	b.n	878041bc <xQueueTakeMutexRecursive+0x8>

878041f8 <xQueueReceiveFromISR>:
878041f8:	e92d 43f8 	stmdb	sp!, {r3, r4, r5, r6, r7, r8, r9, lr}
878041fc:	4689      	mov	r9, r1
878041fe:	4690      	mov	r8, r2
87804200:	4605      	mov	r5, r0
87804202:	b328      	cbz	r0, 87804250 <xQueueReceiveFromISR+0x58>
87804204:	f1b9 0f00 	cmp.w	r9, #0
87804208:	d02d      	beq.n	87804266 <xQueueReceiveFromISR+0x6e>
8780420a:	f002 ff71 	bl	878070f0 <vPortValidateInterruptPriority>
8780420e:	f002 ff33 	bl	87807078 <ulPortSetInterruptMask>
87804212:	6bac      	ldr	r4, [r5, #56]	; 0x38
87804214:	4607      	mov	r7, r0
87804216:	b92c      	cbnz	r4, 87804224 <xQueueReceiveFromISR+0x2c>
87804218:	4638      	mov	r0, r7
8780421a:	f002 ff17 	bl	8780704c <vPortClearInterruptMask>
8780421e:	4620      	mov	r0, r4
87804220:	e8bd 83f8 	ldmia.w	sp!, {r3, r4, r5, r6, r7, r8, r9, pc}
87804224:	f895 6044 	ldrb.w	r6, [r5, #68]	; 0x44
87804228:	4649      	mov	r1, r9
8780422a:	4628      	mov	r0, r5
8780422c:	3c01      	subs	r4, #1
8780422e:	f7ff fb8b 	bl	87803948 <prvCopyDataFromQueue>
87804232:	63ac      	str	r4, [r5, #56]	; 0x38
87804234:	b2f6      	uxtb	r6, r6
87804236:	2eff      	cmp	r6, #255	; 0xff
87804238:	d021      	beq.n	8780427e <xQueueReceiveFromISR+0x86>
8780423a:	3601      	adds	r6, #1
8780423c:	4638      	mov	r0, r7
8780423e:	b2f6      	uxtb	r6, r6
87804240:	2401      	movs	r4, #1
87804242:	f885 6044 	strb.w	r6, [r5, #68]	; 0x44
87804246:	f002 ff01 	bl	8780704c <vPortClearInterruptMask>
8780424a:	4620      	mov	r0, r4
8780424c:	e8bd 83f8 	ldmia.w	sp!, {r3, r4, r5, r6, r7, r8, r9, pc}
87804250:	f64b 4024 	movw	r0, #48164	; 0xbc24
87804254:	f44f 61b4 	mov.w	r1, #1440	; 0x5a0
87804258:	f2c8 7080 	movt	r0, #34688	; 0x8780
8780425c:	f7fc f960 	bl	87800520 <vAssertCalled>
87804260:	f1b9 0f00 	cmp.w	r9, #0
87804264:	d1d1      	bne.n	8780420a <xQueueReceiveFromISR+0x12>
87804266:	6c2b      	ldr	r3, [r5, #64]	; 0x40
87804268:	2b00      	cmp	r3, #0
8780426a:	d0ce      	beq.n	8780420a <xQueueReceiveFromISR+0x12>
8780426c:	f64b 4024 	movw	r0, #48164	; 0xbc24
87804270:	f240 51a1 	movw	r1, #1441	; 0x5a1
87804274:	f2c8 7080 	movt	r0, #34688	; 0x8780
87804278:	f7fc f952 	bl	87800520 <vAssertCalled>
8780427c:	e7c5      	b.n	8780420a <xQueueReceiveFromISR+0x12>
8780427e:	692b      	ldr	r3, [r5, #16]
87804280:	2401      	movs	r4, #1
87804282:	2b00      	cmp	r3, #0
87804284:	d0c8      	beq.n	87804218 <xQueueReceiveFromISR+0x20>
87804286:	f105 0010 	add.w	r0, r5, #16
8780428a:	f001 fbab 	bl	878059e4 <xTaskRemoveFromEventList>
8780428e:	2800      	cmp	r0, #0
87804290:	bf18      	it	ne
87804292:	f1b8 0f00 	cmpne.w	r8, #0
87804296:	bf18      	it	ne
87804298:	f8c8 4000 	strne.w	r4, [r8]
8780429c:	e7bc      	b.n	87804218 <xQueueReceiveFromISR+0x20>
8780429e:	bf00      	nop

878042a0 <xQueuePeekFromISR>:
878042a0:	b5f8      	push	{r3, r4, r5, r6, r7, lr}
878042a2:	460d      	mov	r5, r1
878042a4:	4604      	mov	r4, r0
878042a6:	b320      	cbz	r0, 878042f2 <xQueuePeekFromISR+0x52>
878042a8:	b36d      	cbz	r5, 87804306 <xQueuePeekFromISR+0x66>
878042aa:	6c23      	ldr	r3, [r4, #64]	; 0x40
878042ac:	b1c3      	cbz	r3, 878042e0 <xQueuePeekFromISR+0x40>
878042ae:	f002 ff1f 	bl	878070f0 <vPortValidateInterruptPriority>
878042b2:	f002 fee1 	bl	87807078 <ulPortSetInterruptMask>
878042b6:	4606      	mov	r6, r0
878042b8:	6ba0      	ldr	r0, [r4, #56]	; 0x38
878042ba:	b928      	cbnz	r0, 878042c8 <xQueuePeekFromISR+0x28>
878042bc:	4605      	mov	r5, r0
878042be:	4630      	mov	r0, r6
878042c0:	f002 fec4 	bl	8780704c <vPortClearInterruptMask>
878042c4:	4628      	mov	r0, r5
878042c6:	bdf8      	pop	{r3, r4, r5, r6, r7, pc}
878042c8:	68e7      	ldr	r7, [r4, #12]
878042ca:	4629      	mov	r1, r5
878042cc:	4620      	mov	r0, r4
878042ce:	2501      	movs	r5, #1
878042d0:	f7ff fb3a 	bl	87803948 <prvCopyDataFromQueue>
878042d4:	4630      	mov	r0, r6
878042d6:	60e7      	str	r7, [r4, #12]
878042d8:	f002 feb8 	bl	8780704c <vPortClearInterruptMask>
878042dc:	4628      	mov	r0, r5
878042de:	bdf8      	pop	{r3, r4, r5, r6, r7, pc}
878042e0:	f64b 4024 	movw	r0, #48164	; 0xbc24
878042e4:	f240 51fe 	movw	r1, #1534	; 0x5fe
878042e8:	f2c8 7080 	movt	r0, #34688	; 0x8780
878042ec:	f7fc f918 	bl	87800520 <vAssertCalled>
878042f0:	e7dd      	b.n	878042ae <xQueuePeekFromISR+0xe>
878042f2:	f64b 4024 	movw	r0, #48164	; 0xbc24
878042f6:	f240 51fc 	movw	r1, #1532	; 0x5fc
878042fa:	f2c8 7080 	movt	r0, #34688	; 0x8780
878042fe:	f7fc f90f 	bl	87800520 <vAssertCalled>
87804302:	2d00      	cmp	r5, #0
87804304:	d1d1      	bne.n	878042aa <xQueuePeekFromISR+0xa>
87804306:	6c23      	ldr	r3, [r4, #64]	; 0x40
87804308:	2b00      	cmp	r3, #0
8780430a:	d0e9      	beq.n	878042e0 <xQueuePeekFromISR+0x40>
8780430c:	f64b 4024 	movw	r0, #48164	; 0xbc24
87804310:	f240 51fd 	movw	r1, #1533	; 0x5fd
87804314:	f2c8 7080 	movt	r0, #34688	; 0x8780
87804318:	f7fc f902 	bl	87800520 <vAssertCalled>
8780431c:	e7c5      	b.n	878042aa <xQueuePeekFromISR+0xa>
8780431e:	bf00      	nop

87804320 <uxQueueMessagesWaiting>:
87804320:	b510      	push	{r4, lr}
87804322:	4604      	mov	r4, r0
87804324:	b130      	cbz	r0, 87804334 <uxQueueMessagesWaiting+0x14>
87804326:	f002 fec3 	bl	878070b0 <vPortEnterCritical>
8780432a:	6ba4      	ldr	r4, [r4, #56]	; 0x38
8780432c:	f002 fe2e 	bl	87806f8c <vPortExitCritical>
87804330:	4620      	mov	r0, r4
87804332:	bd10      	pop	{r4, pc}
87804334:	f64b 4024 	movw	r0, #48164	; 0xbc24
87804338:	f240 612f 	movw	r1, #1583	; 0x62f
8780433c:	f2c8 7080 	movt	r0, #34688	; 0x8780
87804340:	f7fc f8ee 	bl	87800520 <vAssertCalled>
87804344:	e7ef      	b.n	87804326 <uxQueueMessagesWaiting+0x6>
87804346:	bf00      	nop

87804348 <uxQueueSpacesAvailable>:
87804348:	b538      	push	{r3, r4, r5, lr}
8780434a:	4605      	mov	r5, r0
8780434c:	b140      	cbz	r0, 87804360 <uxQueueSpacesAvailable+0x18>
8780434e:	f002 feaf 	bl	878070b0 <vPortEnterCritical>
87804352:	6bac      	ldr	r4, [r5, #56]	; 0x38
87804354:	6beb      	ldr	r3, [r5, #60]	; 0x3c
87804356:	1b1c      	subs	r4, r3, r4
87804358:	f002 fe18 	bl	87806f8c <vPortExitCritical>
8780435c:	4620      	mov	r0, r4
8780435e:	bd38      	pop	{r3, r4, r5, pc}
87804360:	f64b 4024 	movw	r0, #48164	; 0xbc24
87804364:	f240 6141 	movw	r1, #1601	; 0x641
87804368:	f2c8 7080 	movt	r0, #34688	; 0x8780
8780436c:	f7fc f8d8 	bl	87800520 <vAssertCalled>
87804370:	e7ed      	b.n	8780434e <uxQueueSpacesAvailable+0x6>
87804372:	bf00      	nop

87804374 <uxQueueMessagesWaitingFromISR>:
87804374:	b510      	push	{r4, lr}
87804376:	4604      	mov	r4, r0
87804378:	b108      	cbz	r0, 8780437e <uxQueueMessagesWaitingFromISR+0xa>
8780437a:	6ba0      	ldr	r0, [r4, #56]	; 0x38
8780437c:	bd10      	pop	{r4, pc}
8780437e:	f64b 4024 	movw	r0, #48164	; 0xbc24
87804382:	f240 6151 	movw	r1, #1617	; 0x651
87804386:	f2c8 7080 	movt	r0, #34688	; 0x8780
8780438a:	f7fc f8c9 	bl	87800520 <vAssertCalled>
8780438e:	6ba0      	ldr	r0, [r4, #56]	; 0x38
87804390:	bd10      	pop	{r4, pc}
87804392:	bf00      	nop

87804394 <vQueueDelete>:
87804394:	b510      	push	{r4, lr}
87804396:	4604      	mov	r4, r0
87804398:	b1e0      	cbz	r0, 878043d4 <vQueueDelete+0x40>
8780439a:	f244 10dc 	movw	r0, #16860	; 0x41dc
8780439e:	2200      	movs	r2, #0
878043a0:	f2c8 7082 	movt	r0, #34690	; 0x8782
878043a4:	4603      	mov	r3, r0
878043a6:	6859      	ldr	r1, [r3, #4]
878043a8:	3308      	adds	r3, #8
878043aa:	428c      	cmp	r4, r1
878043ac:	d00b      	beq.n	878043c6 <vQueueDelete+0x32>
878043ae:	3201      	adds	r2, #1
878043b0:	2a08      	cmp	r2, #8
878043b2:	d1f8      	bne.n	878043a6 <vQueueDelete+0x12>
878043b4:	f894 3046 	ldrb.w	r3, [r4, #70]	; 0x46
878043b8:	b103      	cbz	r3, 878043bc <vQueueDelete+0x28>
878043ba:	bd10      	pop	{r4, pc}
878043bc:	4620      	mov	r0, r4
878043be:	e8bd 4010 	ldmia.w	sp!, {r4, lr}
878043c2:	f002 bcb5 	b.w	87806d30 <vPortFree>
878043c6:	eb00 01c2 	add.w	r1, r0, r2, lsl #3
878043ca:	2300      	movs	r3, #0
878043cc:	f840 3032 	str.w	r3, [r0, r2, lsl #3]
878043d0:	604b      	str	r3, [r1, #4]
878043d2:	e7ef      	b.n	878043b4 <vQueueDelete+0x20>
878043d4:	f64b 4024 	movw	r0, #48164	; 0xbc24
878043d8:	f240 615d 	movw	r1, #1629	; 0x65d
878043dc:	f2c8 7080 	movt	r0, #34688	; 0x8780
878043e0:	f7fc f89e 	bl	87800520 <vAssertCalled>
878043e4:	e7d9      	b.n	8780439a <vQueueDelete+0x6>
878043e6:	bf00      	nop

878043e8 <uxQueueGetQueueNumber>:
878043e8:	6cc0      	ldr	r0, [r0, #76]	; 0x4c
878043ea:	4770      	bx	lr

878043ec <vQueueSetQueueNumber>:
878043ec:	64c1      	str	r1, [r0, #76]	; 0x4c
878043ee:	4770      	bx	lr

878043f0 <ucQueueGetQueueType>:
878043f0:	f890 0050 	ldrb.w	r0, [r0, #80]	; 0x50
878043f4:	4770      	bx	lr
878043f6:	bf00      	nop

878043f8 <xQueueIsQueueEmptyFromISR>:
878043f8:	b510      	push	{r4, lr}
878043fa:	4604      	mov	r4, r0
878043fc:	b120      	cbz	r0, 87804408 <xQueueIsQueueEmptyFromISR+0x10>
878043fe:	6ba0      	ldr	r0, [r4, #56]	; 0x38
87804400:	fab0 f080 	clz	r0, r0
87804404:	0940      	lsrs	r0, r0, #5
87804406:	bd10      	pop	{r4, pc}
87804408:	f64b 4024 	movw	r0, #48164	; 0xbc24
8780440c:	f240 7193 	movw	r1, #1939	; 0x793
87804410:	f2c8 7080 	movt	r0, #34688	; 0x8780
87804414:	f7fc f884 	bl	87800520 <vAssertCalled>
87804418:	e7f1      	b.n	878043fe <xQueueIsQueueEmptyFromISR+0x6>
8780441a:	bf00      	nop

8780441c <xQueueIsQueueFullFromISR>:
8780441c:	b510      	push	{r4, lr}
8780441e:	4604      	mov	r4, r0
87804420:	b130      	cbz	r0, 87804430 <xQueueIsQueueFullFromISR+0x14>
87804422:	6ba0      	ldr	r0, [r4, #56]	; 0x38
87804424:	6be3      	ldr	r3, [r4, #60]	; 0x3c
87804426:	1ac0      	subs	r0, r0, r3
87804428:	fab0 f080 	clz	r0, r0
8780442c:	0940      	lsrs	r0, r0, #5
8780442e:	bd10      	pop	{r4, pc}
87804430:	f64b 4024 	movw	r0, #48164	; 0xbc24
87804434:	f240 71ba 	movw	r1, #1978	; 0x7ba
87804438:	f2c8 7080 	movt	r0, #34688	; 0x8780
8780443c:	f7fc f870 	bl	87800520 <vAssertCalled>
87804440:	e7ef      	b.n	87804422 <xQueueIsQueueFullFromISR+0x6>
87804442:	bf00      	nop

87804444 <vQueueAddToRegistry>:
87804444:	b470      	push	{r4, r5, r6}
87804446:	f244 14dc 	movw	r4, #16860	; 0x41dc
8780444a:	f2c8 7482 	movt	r4, #34690	; 0x8782
8780444e:	2300      	movs	r3, #0
87804450:	f244 12dc 	movw	r2, #16860	; 0x41dc
87804454:	eb04 06c3 	add.w	r6, r4, r3, lsl #3
87804458:	f854 5033 	ldr.w	r5, [r4, r3, lsl #3]
8780445c:	f2c8 7282 	movt	r2, #34690	; 0x8782
87804460:	b125      	cbz	r5, 8780446c <vQueueAddToRegistry+0x28>
87804462:	3301      	adds	r3, #1
87804464:	2b08      	cmp	r3, #8
87804466:	d1f3      	bne.n	87804450 <vQueueAddToRegistry+0xc>
87804468:	bc70      	pop	{r4, r5, r6}
8780446a:	4770      	bx	lr
8780446c:	6070      	str	r0, [r6, #4]
8780446e:	f842 1033 	str.w	r1, [r2, r3, lsl #3]
87804472:	bc70      	pop	{r4, r5, r6}
87804474:	4770      	bx	lr
87804476:	bf00      	nop

87804478 <pcQueueGetName>:
87804478:	b410      	push	{r4}
8780447a:	f244 14dc 	movw	r4, #16860	; 0x41dc
8780447e:	f2c8 7482 	movt	r4, #34690	; 0x8782
87804482:	2200      	movs	r2, #0
87804484:	4623      	mov	r3, r4
87804486:	6859      	ldr	r1, [r3, #4]
87804488:	3308      	adds	r3, #8
8780448a:	4281      	cmp	r1, r0
8780448c:	d006      	beq.n	8780449c <pcQueueGetName+0x24>
8780448e:	3201      	adds	r2, #1
87804490:	2a08      	cmp	r2, #8
87804492:	d1f8      	bne.n	87804486 <pcQueueGetName+0xe>
87804494:	2000      	movs	r0, #0
87804496:	f85d 4b04 	ldr.w	r4, [sp], #4
8780449a:	4770      	bx	lr
8780449c:	f854 0032 	ldr.w	r0, [r4, r2, lsl #3]
878044a0:	f85d 4b04 	ldr.w	r4, [sp], #4
878044a4:	4770      	bx	lr
878044a6:	bf00      	nop

878044a8 <vQueueUnregisterQueue>:
878044a8:	b410      	push	{r4}
878044aa:	f244 14dc 	movw	r4, #16860	; 0x41dc
878044ae:	f2c8 7482 	movt	r4, #34690	; 0x8782
878044b2:	2200      	movs	r2, #0
878044b4:	4623      	mov	r3, r4
878044b6:	6859      	ldr	r1, [r3, #4]
878044b8:	3308      	adds	r3, #8
878044ba:	4281      	cmp	r1, r0
878044bc:	d005      	beq.n	878044ca <vQueueUnregisterQueue+0x22>
878044be:	3201      	adds	r2, #1
878044c0:	2a08      	cmp	r2, #8
878044c2:	d1f8      	bne.n	878044b6 <vQueueUnregisterQueue+0xe>
878044c4:	f85d 4b04 	ldr.w	r4, [sp], #4
878044c8:	4770      	bx	lr
878044ca:	eb04 01c2 	add.w	r1, r4, r2, lsl #3
878044ce:	2300      	movs	r3, #0
878044d0:	f844 3032 	str.w	r3, [r4, r2, lsl #3]
878044d4:	604b      	str	r3, [r1, #4]
878044d6:	f85d 4b04 	ldr.w	r4, [sp], #4
878044da:	4770      	bx	lr

878044dc <vQueueWaitForMessageRestricted>:
878044dc:	b570      	push	{r4, r5, r6, lr}
878044de:	4604      	mov	r4, r0
878044e0:	460d      	mov	r5, r1
878044e2:	4616      	mov	r6, r2
878044e4:	f002 fde4 	bl	878070b0 <vPortEnterCritical>
878044e8:	f894 3044 	ldrb.w	r3, [r4, #68]	; 0x44
878044ec:	2bff      	cmp	r3, #255	; 0xff
878044ee:	bf04      	itt	eq
878044f0:	2300      	moveq	r3, #0
878044f2:	f884 3044 	strbeq.w	r3, [r4, #68]	; 0x44
878044f6:	f894 3045 	ldrb.w	r3, [r4, #69]	; 0x45
878044fa:	2bff      	cmp	r3, #255	; 0xff
878044fc:	bf04      	itt	eq
878044fe:	2300      	moveq	r3, #0
87804500:	f884 3045 	strbeq.w	r3, [r4, #69]	; 0x45
87804504:	f002 fd42 	bl	87806f8c <vPortExitCritical>
87804508:	6ba3      	ldr	r3, [r4, #56]	; 0x38
8780450a:	b92b      	cbnz	r3, 87804518 <vQueueWaitForMessageRestricted+0x3c>
8780450c:	4632      	mov	r2, r6
8780450e:	4629      	mov	r1, r5
87804510:	f104 0024 	add.w	r0, r4, #36	; 0x24
87804514:	f001 fa44 	bl	878059a0 <vTaskPlaceOnEventListRestricted>
87804518:	4620      	mov	r0, r4
8780451a:	e8bd 4070 	ldmia.w	sp!, {r4, r5, r6, lr}
8780451e:	f7ff ba25 	b.w	8780396c <prvUnlockQueue>
87804522:	bf00      	nop

87804524 <xQueueCreateSet>:
87804524:	2200      	movs	r2, #0
87804526:	2104      	movs	r1, #4
87804528:	f7ff bb1c 	b.w	87803b64 <xQueueGenericCreate>

8780452c <xQueueAddToSet>:
8780452c:	b538      	push	{r3, r4, r5, lr}
8780452e:	4604      	mov	r4, r0
87804530:	460d      	mov	r5, r1
87804532:	f002 fdbd 	bl	878070b0 <vPortEnterCritical>
87804536:	6ca3      	ldr	r3, [r4, #72]	; 0x48
87804538:	b123      	cbz	r3, 87804544 <xQueueAddToSet+0x18>
8780453a:	2400      	movs	r4, #0
8780453c:	f002 fd26 	bl	87806f8c <vPortExitCritical>
87804540:	4620      	mov	r0, r4
87804542:	bd38      	pop	{r3, r4, r5, pc}
87804544:	6ba2      	ldr	r2, [r4, #56]	; 0x38
87804546:	b92a      	cbnz	r2, 87804554 <xQueueAddToSet+0x28>
87804548:	64a5      	str	r5, [r4, #72]	; 0x48
8780454a:	2401      	movs	r4, #1
8780454c:	f002 fd1e 	bl	87806f8c <vPortExitCritical>
87804550:	4620      	mov	r0, r4
87804552:	bd38      	pop	{r3, r4, r5, pc}
87804554:	461c      	mov	r4, r3
87804556:	e7f1      	b.n	8780453c <xQueueAddToSet+0x10>

87804558 <xQueueRemoveFromSet>:
87804558:	b538      	push	{r3, r4, r5, lr}
8780455a:	6c83      	ldr	r3, [r0, #72]	; 0x48
8780455c:	428b      	cmp	r3, r1
8780455e:	d001      	beq.n	87804564 <xQueueRemoveFromSet+0xc>
87804560:	2000      	movs	r0, #0
87804562:	bd38      	pop	{r3, r4, r5, pc}
87804564:	6b85      	ldr	r5, [r0, #56]	; 0x38
87804566:	2d00      	cmp	r5, #0
87804568:	d1fa      	bne.n	87804560 <xQueueRemoveFromSet+0x8>
8780456a:	4604      	mov	r4, r0
8780456c:	f002 fda0 	bl	878070b0 <vPortEnterCritical>
87804570:	64a5      	str	r5, [r4, #72]	; 0x48
87804572:	f002 fd0b 	bl	87806f8c <vPortExitCritical>
87804576:	2001      	movs	r0, #1
87804578:	bd38      	pop	{r3, r4, r5, pc}
8780457a:	bf00      	nop

8780457c <xQueueSelectFromSet>:
8780457c:	b510      	push	{r4, lr}
8780457e:	b082      	sub	sp, #8
87804580:	2300      	movs	r3, #0
87804582:	ac02      	add	r4, sp, #8
87804584:	460a      	mov	r2, r1
87804586:	f844 3d04 	str.w	r3, [r4, #-4]!
8780458a:	4621      	mov	r1, r4
8780458c:	f7ff fd4e 	bl	8780402c <xQueueGenericReceive>
87804590:	9801      	ldr	r0, [sp, #4]
87804592:	b002      	add	sp, #8
87804594:	bd10      	pop	{r4, pc}
87804596:	bf00      	nop

87804598 <xQueueSelectFromSetFromISR>:
87804598:	b500      	push	{lr}
8780459a:	b083      	sub	sp, #12
8780459c:	2200      	movs	r2, #0
8780459e:	a902      	add	r1, sp, #8
878045a0:	f841 2d04 	str.w	r2, [r1, #-4]!
878045a4:	f7ff fe28 	bl	878041f8 <xQueueReceiveFromISR>
878045a8:	9801      	ldr	r0, [sp, #4]
878045aa:	b003      	add	sp, #12
878045ac:	f85d fb04 	ldr.w	pc, [sp], #4

878045b0 <vListInitialise>:
878045b0:	f100 0308 	add.w	r3, r0, #8
878045b4:	f04f 31ff 	mov.w	r1, #4294967295	; 0xffffffff
878045b8:	2200      	movs	r2, #0
878045ba:	6081      	str	r1, [r0, #8]
878045bc:	e880 000c 	stmia.w	r0, {r2, r3}
878045c0:	60c3      	str	r3, [r0, #12]
878045c2:	6103      	str	r3, [r0, #16]
878045c4:	4770      	bx	lr
878045c6:	bf00      	nop

878045c8 <vListInitialiseItem>:
878045c8:	2300      	movs	r3, #0
878045ca:	6103      	str	r3, [r0, #16]
878045cc:	4770      	bx	lr
878045ce:	bf00      	nop

878045d0 <vListInsertEnd>:
878045d0:	e890 000c 	ldmia.w	r0, {r2, r3}
878045d4:	b410      	push	{r4}
878045d6:	3201      	adds	r2, #1
878045d8:	689c      	ldr	r4, [r3, #8]
878045da:	604b      	str	r3, [r1, #4]
878045dc:	608c      	str	r4, [r1, #8]
878045de:	689c      	ldr	r4, [r3, #8]
878045e0:	6061      	str	r1, [r4, #4]
878045e2:	6099      	str	r1, [r3, #8]
878045e4:	f85d 4b04 	ldr.w	r4, [sp], #4
878045e8:	6108      	str	r0, [r1, #16]
878045ea:	6002      	str	r2, [r0, #0]
878045ec:	4770      	bx	lr
878045ee:	bf00      	nop

878045f0 <vListInsert>:
878045f0:	b430      	push	{r4, r5}
878045f2:	680d      	ldr	r5, [r1, #0]
878045f4:	1c6b      	adds	r3, r5, #1
878045f6:	bf18      	it	ne
878045f8:	f100 0208 	addne.w	r2, r0, #8
878045fc:	d101      	bne.n	87804602 <vListInsert+0x12>
878045fe:	e00e      	b.n	8780461e <vListInsert+0x2e>
87804600:	461a      	mov	r2, r3
87804602:	6853      	ldr	r3, [r2, #4]
87804604:	681c      	ldr	r4, [r3, #0]
87804606:	42a5      	cmp	r5, r4
87804608:	d2fa      	bcs.n	87804600 <vListInsert+0x10>
8780460a:	6804      	ldr	r4, [r0, #0]
8780460c:	604b      	str	r3, [r1, #4]
8780460e:	6099      	str	r1, [r3, #8]
87804610:	1c63      	adds	r3, r4, #1
87804612:	608a      	str	r2, [r1, #8]
87804614:	bc30      	pop	{r4, r5}
87804616:	6051      	str	r1, [r2, #4]
87804618:	6108      	str	r0, [r1, #16]
8780461a:	6003      	str	r3, [r0, #0]
8780461c:	4770      	bx	lr
8780461e:	6902      	ldr	r2, [r0, #16]
87804620:	6853      	ldr	r3, [r2, #4]
87804622:	e7f2      	b.n	8780460a <vListInsert+0x1a>

87804624 <uxListRemove>:
87804624:	6902      	ldr	r2, [r0, #16]
87804626:	6843      	ldr	r3, [r0, #4]
87804628:	6881      	ldr	r1, [r0, #8]
8780462a:	b410      	push	{r4}
8780462c:	6854      	ldr	r4, [r2, #4]
8780462e:	6099      	str	r1, [r3, #8]
87804630:	6881      	ldr	r1, [r0, #8]
87804632:	4284      	cmp	r4, r0
87804634:	f85d 4b04 	ldr.w	r4, [sp], #4
87804638:	604b      	str	r3, [r1, #4]
8780463a:	6813      	ldr	r3, [r2, #0]
8780463c:	bf08      	it	eq
8780463e:	6051      	streq	r1, [r2, #4]
87804640:	2100      	movs	r1, #0
87804642:	6101      	str	r1, [r0, #16]
87804644:	1e58      	subs	r0, r3, #1
87804646:	6010      	str	r0, [r2, #0]
87804648:	4770      	bx	lr
8780464a:	bf00      	nop

8780464c <xEventGroupCreateStatic>:
8780464c:	b510      	push	{r4, lr}
8780464e:	4604      	mov	r4, r0
87804650:	b140      	cbz	r0, 87804664 <xEventGroupCreateStatic+0x18>
87804652:	2300      	movs	r3, #0
87804654:	f840 3b04 	str.w	r3, [r0], #4
87804658:	f7ff ffaa 	bl	878045b0 <vListInitialise>
8780465c:	2301      	movs	r3, #1
8780465e:	7723      	strb	r3, [r4, #28]
87804660:	4620      	mov	r0, r4
87804662:	bd10      	pop	{r4, pc}
87804664:	f64b 403c 	movw	r0, #48188	; 0xbc3c
87804668:	218c      	movs	r1, #140	; 0x8c
8780466a:	f2c8 7080 	movt	r0, #34688	; 0x8780
8780466e:	f7fb ff57 	bl	87800520 <vAssertCalled>
87804672:	e7f5      	b.n	87804660 <xEventGroupCreateStatic+0x14>

87804674 <xEventGroupCreate>:
87804674:	b538      	push	{r3, r4, r5, lr}
87804676:	2020      	movs	r0, #32
87804678:	f002 fa9e 	bl	87806bb8 <pvPortMalloc>
8780467c:	4604      	mov	r4, r0
8780467e:	b128      	cbz	r0, 8780468c <xEventGroupCreate+0x18>
87804680:	2500      	movs	r5, #0
87804682:	f840 5b04 	str.w	r5, [r0], #4
87804686:	f7ff ff93 	bl	878045b0 <vListInitialise>
8780468a:	7725      	strb	r5, [r4, #28]
8780468c:	4620      	mov	r0, r4
8780468e:	bd38      	pop	{r3, r4, r5, pc}

87804690 <xEventGroupWaitBits>:
87804690:	e92d 47f0 	stmdb	sp!, {r4, r5, r6, r7, r8, r9, sl, lr}
87804694:	460d      	mov	r5, r1
87804696:	4692      	mov	sl, r2
87804698:	4698      	mov	r8, r3
8780469a:	4607      	mov	r7, r0
8780469c:	f8dd 9020 	ldr.w	r9, [sp, #32]
878046a0:	2800      	cmp	r0, #0
878046a2:	d07a      	beq.n	8780479a <xEventGroupWaitBits+0x10a>
878046a4:	f015 4f7f 	tst.w	r5, #4278190080	; 0xff000000
878046a8:	d16a      	bne.n	87804780 <xEventGroupWaitBits+0xf0>
878046aa:	2d00      	cmp	r5, #0
878046ac:	d044      	beq.n	87804738 <xEventGroupWaitBits+0xa8>
878046ae:	fab9 f689 	clz	r6, r9
878046b2:	0976      	lsrs	r6, r6, #5
878046b4:	f001 fba4 	bl	87805e00 <xTaskGetSchedulerState>
878046b8:	2800      	cmp	r0, #0
878046ba:	bf0c      	ite	eq
878046bc:	4630      	moveq	r0, r6
878046be:	f046 0001 	orrne.w	r0, r6, #1
878046c2:	b938      	cbnz	r0, 878046d4 <xEventGroupWaitBits+0x44>
878046c4:	f64b 403c 	movw	r0, #48188	; 0xbc3c
878046c8:	f44f 71a9 	mov.w	r1, #338	; 0x152
878046cc:	f2c8 7080 	movt	r0, #34688	; 0x8780
878046d0:	f7fb ff26 	bl	87800520 <vAssertCalled>
878046d4:	f000 fe82 	bl	878053dc <vTaskSuspendAll>
878046d8:	683c      	ldr	r4, [r7, #0]
878046da:	f1b8 0f00 	cmp.w	r8, #0
878046de:	d109      	bne.n	878046f4 <xEventGroupWaitBits+0x64>
878046e0:	4225      	tst	r5, r4
878046e2:	d00a      	beq.n	878046fa <xEventGroupWaitBits+0x6a>
878046e4:	f1ba 0f00 	cmp.w	sl, #0
878046e8:	d12f      	bne.n	8780474a <xEventGroupWaitBits+0xba>
878046ea:	f000 ff41 	bl	87805570 <xTaskResumeAll>
878046ee:	4620      	mov	r0, r4
878046f0:	e8bd 87f0 	ldmia.w	sp!, {r4, r5, r6, r7, r8, r9, sl, pc}
878046f4:	ea35 0304 	bics.w	r3, r5, r4
878046f8:	d0f4      	beq.n	878046e4 <xEventGroupWaitBits+0x54>
878046fa:	2e00      	cmp	r6, #0
878046fc:	d1f5      	bne.n	878046ea <xEventGroupWaitBits+0x5a>
878046fe:	f1ba 0f00 	cmp.w	sl, #0
87804702:	bf0c      	ite	eq
87804704:	2100      	moveq	r1, #0
87804706:	f04f 7180 	movne.w	r1, #16777216	; 0x1000000
8780470a:	f1b8 0f00 	cmp.w	r8, #0
8780470e:	d001      	beq.n	87804714 <xEventGroupWaitBits+0x84>
87804710:	f041 6180 	orr.w	r1, r1, #67108864	; 0x4000000
87804714:	464a      	mov	r2, r9
87804716:	4329      	orrs	r1, r5
87804718:	1d38      	adds	r0, r7, #4
8780471a:	f001 f915 	bl	87805948 <vTaskPlaceOnUnorderedEventList>
8780471e:	f000 ff27 	bl	87805570 <xTaskResumeAll>
87804722:	b1b0      	cbz	r0, 87804752 <xEventGroupWaitBits+0xc2>
87804724:	f001 fd06 	bl	87806134 <uxTaskResetEventItemValue>
87804728:	0183      	lsls	r3, r0, #6
8780472a:	4604      	mov	r4, r0
8780472c:	d517      	bpl.n	8780475e <xEventGroupWaitBits+0xce>
8780472e:	f024 447f 	bic.w	r4, r4, #4278190080	; 0xff000000
87804732:	4620      	mov	r0, r4
87804734:	e8bd 87f0 	ldmia.w	sp!, {r4, r5, r6, r7, r8, r9, sl, pc}
87804738:	f64b 403c 	movw	r0, #48188	; 0xbc3c
8780473c:	f240 114f 	movw	r1, #335	; 0x14f
87804740:	f2c8 7080 	movt	r0, #34688	; 0x8780
87804744:	f7fb feec 	bl	87800520 <vAssertCalled>
87804748:	e7b1      	b.n	878046ae <xEventGroupWaitBits+0x1e>
8780474a:	ea24 0505 	bic.w	r5, r4, r5
8780474e:	603d      	str	r5, [r7, #0]
87804750:	e7cb      	b.n	878046ea <xEventGroupWaitBits+0x5a>
87804752:	df00      	svc	0
87804754:	f001 fcee 	bl	87806134 <uxTaskResetEventItemValue>
87804758:	0183      	lsls	r3, r0, #6
8780475a:	4604      	mov	r4, r0
8780475c:	d4e7      	bmi.n	8780472e <xEventGroupWaitBits+0x9e>
8780475e:	f002 fca7 	bl	878070b0 <vPortEnterCritical>
87804762:	683c      	ldr	r4, [r7, #0]
87804764:	f1b8 0f00 	cmp.w	r8, #0
87804768:	d113      	bne.n	87804792 <xEventGroupWaitBits+0x102>
8780476a:	4225      	tst	r5, r4
8780476c:	d005      	beq.n	8780477a <xEventGroupWaitBits+0xea>
8780476e:	f1ba 0f00 	cmp.w	sl, #0
87804772:	d002      	beq.n	8780477a <xEventGroupWaitBits+0xea>
87804774:	ea24 0505 	bic.w	r5, r4, r5
87804778:	603d      	str	r5, [r7, #0]
8780477a:	f002 fc07 	bl	87806f8c <vPortExitCritical>
8780477e:	e7d6      	b.n	8780472e <xEventGroupWaitBits+0x9e>
87804780:	f64b 403c 	movw	r0, #48188	; 0xbc3c
87804784:	f44f 71a7 	mov.w	r1, #334	; 0x14e
87804788:	f2c8 7080 	movt	r0, #34688	; 0x8780
8780478c:	f7fb fec8 	bl	87800520 <vAssertCalled>
87804790:	e78d      	b.n	878046ae <xEventGroupWaitBits+0x1e>
87804792:	ea35 0304 	bics.w	r3, r5, r4
87804796:	d1f0      	bne.n	8780477a <xEventGroupWaitBits+0xea>
87804798:	e7e9      	b.n	8780476e <xEventGroupWaitBits+0xde>
8780479a:	f64b 403c 	movw	r0, #48188	; 0xbc3c
8780479e:	f240 114d 	movw	r1, #333	; 0x14d
878047a2:	f2c8 7080 	movt	r0, #34688	; 0x8780
878047a6:	f7fb febb 	bl	87800520 <vAssertCalled>
878047aa:	e77b      	b.n	878046a4 <xEventGroupWaitBits+0x14>

878047ac <xEventGroupClearBits>:
878047ac:	b570      	push	{r4, r5, r6, lr}
878047ae:	460c      	mov	r4, r1
878047b0:	4605      	mov	r5, r0
878047b2:	b1a0      	cbz	r0, 878047de <xEventGroupClearBits+0x32>
878047b4:	f014 4f7f 	tst.w	r4, #4278190080	; 0xff000000
878047b8:	d007      	beq.n	878047ca <xEventGroupClearBits+0x1e>
878047ba:	f64b 403c 	movw	r0, #48188	; 0xbc3c
878047be:	f44f 71f0 	mov.w	r1, #480	; 0x1e0
878047c2:	f2c8 7080 	movt	r0, #34688	; 0x8780
878047c6:	f7fb feab 	bl	87800520 <vAssertCalled>
878047ca:	f002 fc71 	bl	878070b0 <vPortEnterCritical>
878047ce:	682e      	ldr	r6, [r5, #0]
878047d0:	ea26 0404 	bic.w	r4, r6, r4
878047d4:	602c      	str	r4, [r5, #0]
878047d6:	f002 fbd9 	bl	87806f8c <vPortExitCritical>
878047da:	4630      	mov	r0, r6
878047dc:	bd70      	pop	{r4, r5, r6, pc}
878047de:	f64b 403c 	movw	r0, #48188	; 0xbc3c
878047e2:	f240 11df 	movw	r1, #479	; 0x1df
878047e6:	f2c8 7080 	movt	r0, #34688	; 0x8780
878047ea:	f7fb fe99 	bl	87800520 <vAssertCalled>
878047ee:	e7e1      	b.n	878047b4 <xEventGroupClearBits+0x8>

878047f0 <vEventGroupClearBitsCallback>:
878047f0:	f7ff bfdc 	b.w	878047ac <xEventGroupClearBits>

878047f4 <xEventGroupClearBitsFromISR>:
878047f4:	460a      	mov	r2, r1
878047f6:	4601      	mov	r1, r0
878047f8:	f244 70f1 	movw	r0, #18417	; 0x47f1
878047fc:	2300      	movs	r3, #0
878047fe:	f2c8 7080 	movt	r0, #34688	; 0x8780
87804802:	f002 b973 	b.w	87806aec <xTimerPendFunctionCallFromISR>
87804806:	bf00      	nop

87804808 <xEventGroupGetBitsFromISR>:
87804808:	b510      	push	{r4, lr}
8780480a:	4604      	mov	r4, r0
8780480c:	f002 fc34 	bl	87807078 <ulPortSetInterruptMask>
87804810:	6824      	ldr	r4, [r4, #0]
87804812:	f002 fc1b 	bl	8780704c <vPortClearInterruptMask>
87804816:	4620      	mov	r0, r4
87804818:	bd10      	pop	{r4, pc}
8780481a:	bf00      	nop

8780481c <xEventGroupSetBits>:
8780481c:	b5f8      	push	{r3, r4, r5, r6, r7, lr}
8780481e:	460c      	mov	r4, r1
87804820:	4605      	mov	r5, r0
87804822:	2800      	cmp	r0, #0
87804824:	d03c      	beq.n	878048a0 <xEventGroupSetBits+0x84>
87804826:	f014 4f7f 	tst.w	r4, #4278190080	; 0xff000000
8780482a:	d12d      	bne.n	87804888 <xEventGroupSetBits+0x6c>
8780482c:	f000 fdd6 	bl	878053dc <vTaskSuspendAll>
87804830:	6928      	ldr	r0, [r5, #16]
87804832:	f105 060c 	add.w	r6, r5, #12
87804836:	6829      	ldr	r1, [r5, #0]
87804838:	4286      	cmp	r6, r0
8780483a:	ea41 0104 	orr.w	r1, r1, r4
8780483e:	6029      	str	r1, [r5, #0]
87804840:	d02b      	beq.n	8780489a <xEventGroupSetBits+0x7e>
87804842:	2700      	movs	r7, #0
87804844:	e00c      	b.n	87804860 <xEventGroupSetBits+0x44>
87804846:	4211      	tst	r1, r2
87804848:	d007      	beq.n	8780485a <xEventGroupSetBits+0x3e>
8780484a:	01db      	lsls	r3, r3, #7
8780484c:	f041 7100 	orr.w	r1, r1, #33554432	; 0x2000000
87804850:	bf48      	it	mi
87804852:	4317      	orrmi	r7, r2
87804854:	f001 f90c 	bl	87805a70 <xTaskRemoveFromUnorderedEventList>
87804858:	6829      	ldr	r1, [r5, #0]
8780485a:	42a6      	cmp	r6, r4
8780485c:	4620      	mov	r0, r4
8780485e:	d00c      	beq.n	8780487a <xEventGroupSetBits+0x5e>
87804860:	e890 0018 	ldmia.w	r0, {r3, r4}
87804864:	f013 6f80 	tst.w	r3, #67108864	; 0x4000000
87804868:	f023 427f 	bic.w	r2, r3, #4278190080	; 0xff000000
8780486c:	d0eb      	beq.n	87804846 <xEventGroupSetBits+0x2a>
8780486e:	ea32 0e01 	bics.w	lr, r2, r1
87804872:	d0ea      	beq.n	8780484a <xEventGroupSetBits+0x2e>
87804874:	42a6      	cmp	r6, r4
87804876:	4620      	mov	r0, r4
87804878:	d1f2      	bne.n	87804860 <xEventGroupSetBits+0x44>
8780487a:	43ff      	mvns	r7, r7
8780487c:	4039      	ands	r1, r7
8780487e:	6029      	str	r1, [r5, #0]
87804880:	f000 fe76 	bl	87805570 <xTaskResumeAll>
87804884:	6828      	ldr	r0, [r5, #0]
87804886:	bdf8      	pop	{r3, r4, r5, r6, r7, pc}
87804888:	f64b 403c 	movw	r0, #48188	; 0xbc3c
8780488c:	f240 211e 	movw	r1, #542	; 0x21e
87804890:	f2c8 7080 	movt	r0, #34688	; 0x8780
87804894:	f7fb fe44 	bl	87800520 <vAssertCalled>
87804898:	e7c8      	b.n	8780482c <xEventGroupSetBits+0x10>
8780489a:	f04f 37ff 	mov.w	r7, #4294967295	; 0xffffffff
8780489e:	e7ed      	b.n	8780487c <xEventGroupSetBits+0x60>
878048a0:	f64b 403c 	movw	r0, #48188	; 0xbc3c
878048a4:	f240 211d 	movw	r1, #541	; 0x21d
878048a8:	f2c8 7080 	movt	r0, #34688	; 0x8780
878048ac:	f7fb fe38 	bl	87800520 <vAssertCalled>
878048b0:	e7b9      	b.n	87804826 <xEventGroupSetBits+0xa>
878048b2:	bf00      	nop

878048b4 <xEventGroupSync>:
878048b4:	f012 4f7f 	tst.w	r2, #4278190080	; 0xff000000
878048b8:	e92d 41f0 	stmdb	sp!, {r4, r5, r6, r7, r8, lr}
878048bc:	4615      	mov	r5, r2
878048be:	4606      	mov	r6, r0
878048c0:	460c      	mov	r4, r1
878048c2:	461f      	mov	r7, r3
878048c4:	d148      	bne.n	87804958 <xEventGroupSync+0xa4>
878048c6:	b332      	cbz	r2, 87804916 <xEventGroupSync+0x62>
878048c8:	f001 fa9a 	bl	87805e00 <xTaskGetSchedulerState>
878048cc:	fab7 f387 	clz	r3, r7
878048d0:	095b      	lsrs	r3, r3, #5
878048d2:	2800      	cmp	r0, #0
878048d4:	bf0c      	ite	eq
878048d6:	4618      	moveq	r0, r3
878048d8:	f043 0001 	orrne.w	r0, r3, #1
878048dc:	b930      	cbnz	r0, 878048ec <xEventGroupSync+0x38>
878048de:	f64b 403c 	movw	r0, #48188	; 0xbc3c
878048e2:	21db      	movs	r1, #219	; 0xdb
878048e4:	f2c8 7080 	movt	r0, #34688	; 0x8780
878048e8:	f7fb fe1a 	bl	87800520 <vAssertCalled>
878048ec:	f000 fd76 	bl	878053dc <vTaskSuspendAll>
878048f0:	f8d6 8000 	ldr.w	r8, [r6]
878048f4:	4621      	mov	r1, r4
878048f6:	4630      	mov	r0, r6
878048f8:	f7ff ff90 	bl	8780481c <xEventGroupSetBits>
878048fc:	ea44 0408 	orr.w	r4, r4, r8
87804900:	ea05 0304 	and.w	r3, r5, r4
87804904:	42ab      	cmp	r3, r5
87804906:	d022      	beq.n	8780494e <xEventGroupSync+0x9a>
87804908:	bb77      	cbnz	r7, 87804968 <xEventGroupSync+0xb4>
8780490a:	6834      	ldr	r4, [r6, #0]
8780490c:	f000 fe30 	bl	87805570 <xTaskResumeAll>
87804910:	4620      	mov	r0, r4
87804912:	e8bd 81f0 	ldmia.w	sp!, {r4, r5, r6, r7, r8, pc}
87804916:	f64b 403c 	movw	r0, #48188	; 0xbc3c
8780491a:	21d8      	movs	r1, #216	; 0xd8
8780491c:	f2c8 7080 	movt	r0, #34688	; 0x8780
87804920:	f7fb fdfe 	bl	87800520 <vAssertCalled>
87804924:	f001 fa6c 	bl	87805e00 <xTaskGetSchedulerState>
87804928:	fab7 f387 	clz	r3, r7
8780492c:	095b      	lsrs	r3, r3, #5
8780492e:	2800      	cmp	r0, #0
87804930:	bf0c      	ite	eq
87804932:	4618      	moveq	r0, r3
87804934:	f043 0001 	orrne.w	r0, r3, #1
87804938:	2800      	cmp	r0, #0
8780493a:	d0d0      	beq.n	878048de <xEventGroupSync+0x2a>
8780493c:	f000 fd4e 	bl	878053dc <vTaskSuspendAll>
87804940:	6837      	ldr	r7, [r6, #0]
87804942:	4621      	mov	r1, r4
87804944:	4630      	mov	r0, r6
87804946:	f7ff ff69 	bl	8780481c <xEventGroupSetBits>
8780494a:	433c      	orrs	r4, r7
8780494c:	462b      	mov	r3, r5
8780494e:	6832      	ldr	r2, [r6, #0]
87804950:	ea22 0303 	bic.w	r3, r2, r3
87804954:	6033      	str	r3, [r6, #0]
87804956:	e7d9      	b.n	8780490c <xEventGroupSync+0x58>
87804958:	f64b 403c 	movw	r0, #48188	; 0xbc3c
8780495c:	21d7      	movs	r1, #215	; 0xd7
8780495e:	f2c8 7080 	movt	r0, #34688	; 0x8780
87804962:	f7fb fddd 	bl	87800520 <vAssertCalled>
87804966:	e7af      	b.n	878048c8 <xEventGroupSync+0x14>
87804968:	463a      	mov	r2, r7
8780496a:	f045 61a0 	orr.w	r1, r5, #83886080	; 0x5000000
8780496e:	1d30      	adds	r0, r6, #4
87804970:	f000 ffea 	bl	87805948 <vTaskPlaceOnUnorderedEventList>
87804974:	f000 fdfc 	bl	87805570 <xTaskResumeAll>
87804978:	b148      	cbz	r0, 8780498e <xEventGroupSync+0xda>
8780497a:	f001 fbdb 	bl	87806134 <uxTaskResetEventItemValue>
8780497e:	0183      	lsls	r3, r0, #6
87804980:	4604      	mov	r4, r0
87804982:	d50a      	bpl.n	8780499a <xEventGroupSync+0xe6>
87804984:	f024 447f 	bic.w	r4, r4, #4278190080	; 0xff000000
87804988:	4620      	mov	r0, r4
8780498a:	e8bd 81f0 	ldmia.w	sp!, {r4, r5, r6, r7, r8, pc}
8780498e:	df00      	svc	0
87804990:	f001 fbd0 	bl	87806134 <uxTaskResetEventItemValue>
87804994:	0183      	lsls	r3, r0, #6
87804996:	4604      	mov	r4, r0
87804998:	d4f4      	bmi.n	87804984 <xEventGroupSync+0xd0>
8780499a:	f002 fb89 	bl	878070b0 <vPortEnterCritical>
8780499e:	6834      	ldr	r4, [r6, #0]
878049a0:	ea35 0304 	bics.w	r3, r5, r4
878049a4:	bf04      	itt	eq
878049a6:	ea24 0505 	biceq.w	r5, r4, r5
878049aa:	6035      	streq	r5, [r6, #0]
878049ac:	f002 faee 	bl	87806f8c <vPortExitCritical>
878049b0:	e7e8      	b.n	87804984 <xEventGroupSync+0xd0>
878049b2:	bf00      	nop

878049b4 <vEventGroupSetBitsCallback>:
878049b4:	f7ff bf32 	b.w	8780481c <xEventGroupSetBits>

878049b8 <vEventGroupDelete>:
878049b8:	b538      	push	{r3, r4, r5, lr}
878049ba:	4604      	mov	r4, r0
878049bc:	f000 fd0e 	bl	878053dc <vTaskSuspendAll>
878049c0:	f104 050c 	add.w	r5, r4, #12
878049c4:	6863      	ldr	r3, [r4, #4]
878049c6:	b14b      	cbz	r3, 878049dc <vEventGroupDelete+0x24>
878049c8:	6920      	ldr	r0, [r4, #16]
878049ca:	4285      	cmp	r5, r0
878049cc:	d00f      	beq.n	878049ee <vEventGroupDelete+0x36>
878049ce:	f04f 7100 	mov.w	r1, #33554432	; 0x2000000
878049d2:	f001 f84d 	bl	87805a70 <xTaskRemoveFromUnorderedEventList>
878049d6:	6863      	ldr	r3, [r4, #4]
878049d8:	2b00      	cmp	r3, #0
878049da:	d1f5      	bne.n	878049c8 <vEventGroupDelete+0x10>
878049dc:	7f23      	ldrb	r3, [r4, #28]
878049de:	b913      	cbnz	r3, 878049e6 <vEventGroupDelete+0x2e>
878049e0:	4620      	mov	r0, r4
878049e2:	f002 f9a5 	bl	87806d30 <vPortFree>
878049e6:	e8bd 4038 	ldmia.w	sp!, {r3, r4, r5, lr}
878049ea:	f000 bdc1 	b.w	87805570 <xTaskResumeAll>
878049ee:	f64b 403c 	movw	r0, #48188	; 0xbc3c
878049f2:	f240 217d 	movw	r1, #637	; 0x27d
878049f6:	f2c8 7080 	movt	r0, #34688	; 0x8780
878049fa:	f7fb fd91 	bl	87800520 <vAssertCalled>
878049fe:	6920      	ldr	r0, [r4, #16]
87804a00:	e7e5      	b.n	878049ce <vEventGroupDelete+0x16>
87804a02:	bf00      	nop

87804a04 <xEventGroupSetBitsFromISR>:
87804a04:	4613      	mov	r3, r2
87804a06:	460a      	mov	r2, r1
87804a08:	4601      	mov	r1, r0
87804a0a:	f644 10b5 	movw	r0, #18869	; 0x49b5
87804a0e:	f2c8 7080 	movt	r0, #34688	; 0x8780
87804a12:	f002 b86b 	b.w	87806aec <xTimerPendFunctionCallFromISR>
87804a16:	bf00      	nop

87804a18 <uxEventGroupGetNumber>:
87804a18:	b100      	cbz	r0, 87804a1c <uxEventGroupGetNumber+0x4>
87804a1a:	6980      	ldr	r0, [r0, #24]
87804a1c:	4770      	bx	lr
87804a1e:	bf00      	nop

87804a20 <prvSearchForNameWithinSingleList>:
87804a20:	6803      	ldr	r3, [r0, #0]
87804a22:	e92d 41f0 	stmdb	sp!, {r4, r5, r6, r7, r8, lr}
87804a26:	4607      	mov	r7, r0
87804a28:	b31b      	cbz	r3, 87804a72 <prvSearchForNameWithinSingleList+0x52>
87804a2a:	6843      	ldr	r3, [r0, #4]
87804a2c:	f100 0c08 	add.w	ip, r0, #8
87804a30:	f101 3eff 	add.w	lr, r1, #4294967295	; 0xffffffff
87804a34:	685e      	ldr	r6, [r3, #4]
87804a36:	4566      	cmp	r6, ip
87804a38:	6046      	str	r6, [r0, #4]
87804a3a:	bf08      	it	eq
87804a3c:	6876      	ldreq	r6, [r6, #4]
87804a3e:	f8d6 800c 	ldr.w	r8, [r6, #12]
87804a42:	6876      	ldr	r6, [r6, #4]
87804a44:	4671      	mov	r1, lr
87804a46:	45b4      	cmp	ip, r6
87804a48:	607e      	str	r6, [r7, #4]
87804a4a:	bf08      	it	eq
87804a4c:	68fe      	ldreq	r6, [r7, #12]
87804a4e:	68f0      	ldr	r0, [r6, #12]
87804a50:	bf08      	it	eq
87804a52:	607e      	streq	r6, [r7, #4]
87804a54:	f100 0333 	add.w	r3, r0, #51	; 0x33
87804a58:	f100 053d 	add.w	r5, r0, #61	; 0x3d
87804a5c:	f811 4f01 	ldrb.w	r4, [r1, #1]!
87804a60:	f813 2f01 	ldrb.w	r2, [r3, #1]!
87804a64:	42a2      	cmp	r2, r4
87804a66:	d102      	bne.n	87804a6e <prvSearchForNameWithinSingleList+0x4e>
87804a68:	b132      	cbz	r2, 87804a78 <prvSearchForNameWithinSingleList+0x58>
87804a6a:	42ab      	cmp	r3, r5
87804a6c:	d1f6      	bne.n	87804a5c <prvSearchForNameWithinSingleList+0x3c>
87804a6e:	4540      	cmp	r0, r8
87804a70:	d1e7      	bne.n	87804a42 <prvSearchForNameWithinSingleList+0x22>
87804a72:	2000      	movs	r0, #0
87804a74:	e8bd 81f0 	ldmia.w	sp!, {r4, r5, r6, r7, r8, pc}
87804a78:	e8bd 81f0 	ldmia.w	sp!, {r4, r5, r6, r7, r8, pc}

87804a7c <prvAddNewTaskToReadyList>:
87804a7c:	e92d 43f8 	stmdb	sp!, {r3, r4, r5, r6, r7, r8, r9, lr}
87804a80:	f24d 7478 	movw	r4, #55160	; 0xd778
87804a84:	f2c8 7480 	movt	r4, #34688	; 0x8780
87804a88:	4605      	mov	r5, r0
87804a8a:	f002 fb11 	bl	878070b0 <vPortEnterCritical>
87804a8e:	6823      	ldr	r3, [r4, #0]
87804a90:	3301      	adds	r3, #1
87804a92:	6023      	str	r3, [r4, #0]
87804a94:	6863      	ldr	r3, [r4, #4]
87804a96:	b393      	cbz	r3, 87804afe <prvAddNewTaskToReadyList+0x82>
87804a98:	f8d4 3100 	ldr.w	r3, [r4, #256]	; 0x100
87804a9c:	b333      	cbz	r3, 87804aec <prvAddNewTaskToReadyList+0x70>
87804a9e:	6aea      	ldr	r2, [r5, #44]	; 0x2c
87804aa0:	4f2c      	ldr	r7, [pc, #176]	; (87804b54 <prvAddNewTaskToReadyList+0xd8>)
87804aa2:	f8d4 3104 	ldr.w	r3, [r4, #260]	; 0x104
87804aa6:	0110      	lsls	r0, r2, #4
87804aa8:	f8d4 1108 	ldr.w	r1, [r4, #264]	; 0x108
87804aac:	2601      	movs	r6, #1
87804aae:	4096      	lsls	r6, r2
87804ab0:	eb00 0082 	add.w	r0, r0, r2, lsl #2
87804ab4:	3301      	adds	r3, #1
87804ab6:	430e      	orrs	r6, r1
87804ab8:	642b      	str	r3, [r5, #64]	; 0x40
87804aba:	4438      	add	r0, r7
87804abc:	1d29      	adds	r1, r5, #4
87804abe:	f8c4 3104 	str.w	r3, [r4, #260]	; 0x104
87804ac2:	f8c4 6108 	str.w	r6, [r4, #264]	; 0x108
87804ac6:	f24d 7678 	movw	r6, #55160	; 0xd778
87804aca:	f7ff fd81 	bl	878045d0 <vListInsertEnd>
87804ace:	f002 fa5d 	bl	87806f8c <vPortExitCritical>
87804ad2:	f8d4 3100 	ldr.w	r3, [r4, #256]	; 0x100
87804ad6:	f2c8 7680 	movt	r6, #34688	; 0x8780
87804ada:	b12b      	cbz	r3, 87804ae8 <prvAddNewTaskToReadyList+0x6c>
87804adc:	6872      	ldr	r2, [r6, #4]
87804ade:	6aeb      	ldr	r3, [r5, #44]	; 0x2c
87804ae0:	6ad2      	ldr	r2, [r2, #44]	; 0x2c
87804ae2:	429a      	cmp	r2, r3
87804ae4:	d200      	bcs.n	87804ae8 <prvAddNewTaskToReadyList+0x6c>
87804ae6:	df00      	svc	0
87804ae8:	e8bd 83f8 	ldmia.w	sp!, {r3, r4, r5, r6, r7, r8, r9, pc}
87804aec:	6863      	ldr	r3, [r4, #4]
87804aee:	f104 0708 	add.w	r7, r4, #8
87804af2:	6aea      	ldr	r2, [r5, #44]	; 0x2c
87804af4:	6adb      	ldr	r3, [r3, #44]	; 0x2c
87804af6:	4293      	cmp	r3, r2
87804af8:	bf98      	it	ls
87804afa:	6065      	strls	r5, [r4, #4]
87804afc:	e7d1      	b.n	87804aa2 <prvAddNewTaskToReadyList+0x26>
87804afe:	6065      	str	r5, [r4, #4]
87804b00:	6823      	ldr	r3, [r4, #0]
87804b02:	2b01      	cmp	r3, #1
87804b04:	d1cb      	bne.n	87804a9e <prvAddNewTaskToReadyList+0x22>
87804b06:	f104 0708 	add.w	r7, r4, #8
87804b0a:	f104 0994 	add.w	r9, r4, #148	; 0x94
87804b0e:	463e      	mov	r6, r7
87804b10:	46c8      	mov	r8, r9
87804b12:	4630      	mov	r0, r6
87804b14:	3614      	adds	r6, #20
87804b16:	f7ff fd4b 	bl	878045b0 <vListInitialise>
87804b1a:	4546      	cmp	r6, r8
87804b1c:	d1f9      	bne.n	87804b12 <prvAddNewTaskToReadyList+0x96>
87804b1e:	4e0e      	ldr	r6, [pc, #56]	; (87804b58 <prvAddNewTaskToReadyList+0xdc>)
87804b20:	f1a6 0014 	sub.w	r0, r6, #20
87804b24:	f7ff fd44 	bl	878045b0 <vListInitialise>
87804b28:	4630      	mov	r0, r6
87804b2a:	f7ff fd41 	bl	878045b0 <vListInitialise>
87804b2e:	f106 0014 	add.w	r0, r6, #20
87804b32:	f7ff fd3d 	bl	878045b0 <vListInitialise>
87804b36:	f106 0028 	add.w	r0, r6, #40	; 0x28
87804b3a:	f7ff fd39 	bl	878045b0 <vListInitialise>
87804b3e:	f106 003c 	add.w	r0, r6, #60	; 0x3c
87804b42:	f7ff fd35 	bl	878045b0 <vListInitialise>
87804b46:	f8c4 90f8 	str.w	r9, [r4, #248]	; 0xf8
87804b4a:	6aea      	ldr	r2, [r5, #44]	; 0x2c
87804b4c:	f8c4 60fc 	str.w	r6, [r4, #252]	; 0xfc
87804b50:	e7a7      	b.n	87804aa2 <prvAddNewTaskToReadyList+0x26>
87804b52:	bf00      	nop
87804b54:	8780d780 	strhi	sp, [r0, r0, lsl #15]
87804b58:	8780d820 	strhi	sp, [r0, r0, lsr #16]

87804b5c <prvAddCurrentTaskToDelayedList>:
87804b5c:	b5f8      	push	{r3, r4, r5, r6, r7, lr}
87804b5e:	f24d 7478 	movw	r4, #55160	; 0xd778
87804b62:	f2c8 7480 	movt	r4, #34688	; 0x8780
87804b66:	4605      	mov	r5, r0
87804b68:	2200      	movs	r2, #0
87804b6a:	460f      	mov	r7, r1
87804b6c:	f8d4 610c 	ldr.w	r6, [r4, #268]	; 0x10c
87804b70:	6863      	ldr	r3, [r4, #4]
87804b72:	6860      	ldr	r0, [r4, #4]
87804b74:	f883 205a 	strb.w	r2, [r3, #90]	; 0x5a
87804b78:	3004      	adds	r0, #4
87804b7a:	f7ff fd53 	bl	87804624 <uxListRemove>
87804b7e:	b948      	cbnz	r0, 87804b94 <prvAddCurrentTaskToDelayedList+0x38>
87804b80:	6861      	ldr	r1, [r4, #4]
87804b82:	2301      	movs	r3, #1
87804b84:	f8d4 2108 	ldr.w	r2, [r4, #264]	; 0x108
87804b88:	6ac9      	ldr	r1, [r1, #44]	; 0x2c
87804b8a:	408b      	lsls	r3, r1
87804b8c:	ea22 0303 	bic.w	r3, r2, r3
87804b90:	f8c4 3108 	str.w	r3, [r4, #264]	; 0x108
87804b94:	f1a5 33ff 	sub.w	r3, r5, #4294967295	; 0xffffffff
87804b98:	2f00      	cmp	r7, #0
87804b9a:	fab3 f383 	clz	r3, r3
87804b9e:	ea4f 1353 	mov.w	r3, r3, lsr #5
87804ba2:	bf08      	it	eq
87804ba4:	2300      	moveq	r3, #0
87804ba6:	b9eb      	cbnz	r3, 87804be4 <prvAddCurrentTaskToDelayedList+0x88>
87804ba8:	6863      	ldr	r3, [r4, #4]
87804baa:	19ac      	adds	r4, r5, r6
87804bac:	42a6      	cmp	r6, r4
87804bae:	f24d 7578 	movw	r5, #55160	; 0xd778
87804bb2:	f2c8 7580 	movt	r5, #34688	; 0x8780
87804bb6:	605c      	str	r4, [r3, #4]
87804bb8:	d80c      	bhi.n	87804bd4 <prvAddCurrentTaskToDelayedList+0x78>
87804bba:	f8d5 00f8 	ldr.w	r0, [r5, #248]	; 0xf8
87804bbe:	6869      	ldr	r1, [r5, #4]
87804bc0:	3104      	adds	r1, #4
87804bc2:	f7ff fd15 	bl	878045f0 <vListInsert>
87804bc6:	f8d5 3110 	ldr.w	r3, [r5, #272]	; 0x110
87804bca:	429c      	cmp	r4, r3
87804bcc:	bf38      	it	cc
87804bce:	f8c5 4110 	strcc.w	r4, [r5, #272]	; 0x110
87804bd2:	bdf8      	pop	{r3, r4, r5, r6, r7, pc}
87804bd4:	f8d5 00fc 	ldr.w	r0, [r5, #252]	; 0xfc
87804bd8:	6869      	ldr	r1, [r5, #4]
87804bda:	e8bd 40f8 	ldmia.w	sp!, {r3, r4, r5, r6, r7, lr}
87804bde:	3104      	adds	r1, #4
87804be0:	f7ff bd06 	b.w	878045f0 <vListInsert>
87804be4:	6861      	ldr	r1, [r4, #4]
87804be6:	4803      	ldr	r0, [pc, #12]	; (87804bf4 <prvAddCurrentTaskToDelayedList+0x98>)
87804be8:	e8bd 40f8 	ldmia.w	sp!, {r3, r4, r5, r6, r7, lr}
87804bec:	3104      	adds	r1, #4
87804bee:	f7ff bcef 	b.w	878045d0 <vListInsertEnd>
87804bf2:	bf00      	nop
87804bf4:	8780d85c 			; <UNDEFINED> instruction: 0x8780d85c

87804bf8 <prvWriteNameToBuffer>:
87804bf8:	b510      	push	{r4, lr}
87804bfa:	4604      	mov	r4, r0
87804bfc:	f7fb fd70 	bl	878006e0 <strcpy>
87804c00:	4620      	mov	r0, r4
87804c02:	f7fb fe09 	bl	87800818 <strlen>
87804c06:	2808      	cmp	r0, #8
87804c08:	4603      	mov	r3, r0
87804c0a:	d808      	bhi.n	87804c1e <prvWriteNameToBuffer+0x26>
87804c0c:	1820      	adds	r0, r4, r0
87804c0e:	f104 0209 	add.w	r2, r4, #9
87804c12:	2320      	movs	r3, #32
87804c14:	f800 3b01 	strb.w	r3, [r0], #1
87804c18:	4290      	cmp	r0, r2
87804c1a:	d1fb      	bne.n	87804c14 <prvWriteNameToBuffer+0x1c>
87804c1c:	2309      	movs	r3, #9
87804c1e:	2200      	movs	r2, #0
87804c20:	18e0      	adds	r0, r4, r3
87804c22:	54e2      	strb	r2, [r4, r3]
87804c24:	bd10      	pop	{r4, pc}
87804c26:	bf00      	nop

87804c28 <prvResetNextTaskUnblockTime>:
87804c28:	f24d 7378 	movw	r3, #55160	; 0xd778
87804c2c:	f2c8 7380 	movt	r3, #34688	; 0x8780
87804c30:	f8d3 20f8 	ldr.w	r2, [r3, #248]	; 0xf8
87804c34:	6812      	ldr	r2, [r2, #0]
87804c36:	b922      	cbnz	r2, 87804c42 <prvResetNextTaskUnblockTime+0x1a>
87804c38:	f04f 32ff 	mov.w	r2, #4294967295	; 0xffffffff
87804c3c:	f8c3 2110 	str.w	r2, [r3, #272]	; 0x110
87804c40:	4770      	bx	lr
87804c42:	f8d3 20f8 	ldr.w	r2, [r3, #248]	; 0xf8
87804c46:	68d2      	ldr	r2, [r2, #12]
87804c48:	68d2      	ldr	r2, [r2, #12]
87804c4a:	6852      	ldr	r2, [r2, #4]
87804c4c:	f8c3 2110 	str.w	r2, [r3, #272]	; 0x110
87804c50:	4770      	bx	lr
87804c52:	bf00      	nop

87804c54 <prvTaskIsTaskSuspended>:
87804c54:	b510      	push	{r4, lr}
87804c56:	4604      	mov	r4, r0
87804c58:	b170      	cbz	r0, 87804c78 <prvTaskIsTaskSuspended+0x24>
87804c5a:	4b0c      	ldr	r3, [pc, #48]	; (87804c8c <prvTaskIsTaskSuspended+0x38>)
87804c5c:	6960      	ldr	r0, [r4, #20]
87804c5e:	4298      	cmp	r0, r3
87804c60:	d001      	beq.n	87804c66 <prvTaskIsTaskSuspended+0x12>
87804c62:	2000      	movs	r0, #0
87804c64:	bd10      	pop	{r4, pc}
87804c66:	6aa3      	ldr	r3, [r4, #40]	; 0x28
87804c68:	3828      	subs	r0, #40	; 0x28
87804c6a:	1a18      	subs	r0, r3, r0
87804c6c:	bf18      	it	ne
87804c6e:	2001      	movne	r0, #1
87804c70:	2b00      	cmp	r3, #0
87804c72:	bf18      	it	ne
87804c74:	2000      	movne	r0, #0
87804c76:	bd10      	pop	{r4, pc}
87804c78:	f64b 4058 	movw	r0, #48216	; 0xbc58
87804c7c:	f240 6181 	movw	r1, #1665	; 0x681
87804c80:	f2c8 7080 	movt	r0, #34688	; 0x8780
87804c84:	f7fb fc4c 	bl	87800520 <vAssertCalled>
87804c88:	e7e7      	b.n	87804c5a <prvTaskIsTaskSuspended+0x6>
87804c8a:	bf00      	nop
87804c8c:	8780d85c 			; <UNDEFINED> instruction: 0x8780d85c

87804c90 <prvInitialiseNewTask.isra.2>:
87804c90:	e92d 47f0 	stmdb	sp!, {r4, r5, r6, r7, r8, r9, sl, lr}
87804c94:	ea4f 0a82 	mov.w	sl, r2, lsl #2
87804c98:	9c0a      	ldr	r4, [sp, #40]	; 0x28
87804c9a:	460d      	mov	r5, r1
87804c9c:	4652      	mov	r2, sl
87804c9e:	21a5      	movs	r1, #165	; 0xa5
87804ca0:	4680      	mov	r8, r0
87804ca2:	4699      	mov	r9, r3
87804ca4:	6b20      	ldr	r0, [r4, #48]	; 0x30
87804ca6:	f1aa 0a04 	sub.w	sl, sl, #4
87804caa:	9e08      	ldr	r6, [sp, #32]
87804cac:	9f09      	ldr	r7, [sp, #36]	; 0x24
87804cae:	f7fb fe75 	bl	8780099c <memset>
87804cb2:	6b22      	ldr	r2, [r4, #48]	; 0x30
87804cb4:	1e6b      	subs	r3, r5, #1
87804cb6:	f105 0109 	add.w	r1, r5, #9
87804cba:	f104 0533 	add.w	r5, r4, #51	; 0x33
87804cbe:	4492      	add	sl, r2
87804cc0:	f02a 0a07 	bic.w	sl, sl, #7
87804cc4:	f813 2f01 	ldrb.w	r2, [r3, #1]!
87804cc8:	f805 2f01 	strb.w	r2, [r5, #1]!
87804ccc:	781a      	ldrb	r2, [r3, #0]
87804cce:	b10a      	cbz	r2, 87804cd4 <prvInitialiseNewTask.isra.2+0x44>
87804cd0:	428b      	cmp	r3, r1
87804cd2:	d1f7      	bne.n	87804cc4 <prvInitialiseNewTask.isra.2+0x34>
87804cd4:	2e06      	cmp	r6, #6
87804cd6:	f04f 0500 	mov.w	r5, #0
87804cda:	bf28      	it	cs
87804cdc:	2606      	movcs	r6, #6
87804cde:	1d20      	adds	r0, r4, #4
87804ce0:	62e6      	str	r6, [r4, #44]	; 0x2c
87804ce2:	64a6      	str	r6, [r4, #72]	; 0x48
87804ce4:	f1c6 0607 	rsb	r6, r6, #7
87804ce8:	f884 503d 	strb.w	r5, [r4, #61]	; 0x3d
87804cec:	64e5      	str	r5, [r4, #76]	; 0x4c
87804cee:	f7ff fc6b 	bl	878045c8 <vListInitialiseItem>
87804cf2:	f104 0018 	add.w	r0, r4, #24
87804cf6:	f7ff fc67 	bl	878045c8 <vListInitialiseItem>
87804cfa:	6565      	str	r5, [r4, #84]	; 0x54
87804cfc:	464a      	mov	r2, r9
87804cfe:	61a6      	str	r6, [r4, #24]
87804d00:	4641      	mov	r1, r8
87804d02:	6525      	str	r5, [r4, #80]	; 0x50
87804d04:	4650      	mov	r0, sl
87804d06:	f884 5058 	strb.w	r5, [r4, #88]	; 0x58
87804d0a:	f884 505a 	strb.w	r5, [r4, #90]	; 0x5a
87804d0e:	6124      	str	r4, [r4, #16]
87804d10:	6264      	str	r4, [r4, #36]	; 0x24
87804d12:	f002 f86d 	bl	87806df0 <pxPortInitialiseStack>
87804d16:	6020      	str	r0, [r4, #0]
87804d18:	b107      	cbz	r7, 87804d1c <prvInitialiseNewTask.isra.2+0x8c>
87804d1a:	603c      	str	r4, [r7, #0]
87804d1c:	e8bd 87f0 	ldmia.w	sp!, {r4, r5, r6, r7, r8, r9, sl, pc}

87804d20 <prvDeleteTCB>:
87804d20:	f890 3059 	ldrb.w	r3, [r0, #89]	; 0x59
87804d24:	b163      	cbz	r3, 87804d40 <prvDeleteTCB+0x20>
87804d26:	2b01      	cmp	r3, #1
87804d28:	d014      	beq.n	87804d54 <prvDeleteTCB+0x34>
87804d2a:	2b02      	cmp	r3, #2
87804d2c:	d007      	beq.n	87804d3e <prvDeleteTCB+0x1e>
87804d2e:	f64b 4058 	movw	r0, #48216	; 0xbc58
87804d32:	f640 6129 	movw	r1, #3625	; 0xe29
87804d36:	f2c8 7080 	movt	r0, #34688	; 0x8780
87804d3a:	f7fb bbf1 	b.w	87800520 <vAssertCalled>
87804d3e:	4770      	bx	lr
87804d40:	b510      	push	{r4, lr}
87804d42:	4604      	mov	r4, r0
87804d44:	6b00      	ldr	r0, [r0, #48]	; 0x30
87804d46:	f001 fff3 	bl	87806d30 <vPortFree>
87804d4a:	4620      	mov	r0, r4
87804d4c:	e8bd 4010 	ldmia.w	sp!, {r4, lr}
87804d50:	f001 bfee 	b.w	87806d30 <vPortFree>
87804d54:	f001 bfec 	b.w	87806d30 <vPortFree>

87804d58 <vTaskSwitchContext.part.5>:
87804d58:	b570      	push	{r4, r5, r6, lr}
87804d5a:	f244 13b0 	movw	r3, #16816	; 0x41b0
87804d5e:	f24d 7478 	movw	r4, #55160	; 0xd778
87804d62:	2200      	movs	r2, #0
87804d64:	f2c8 7480 	movt	r4, #34688	; 0x8780
87804d68:	f2c8 7382 	movt	r3, #34690	; 0x8782
87804d6c:	f8d4 111c 	ldr.w	r1, [r4, #284]	; 0x11c
87804d70:	f8c4 2114 	str.w	r2, [r4, #276]	; 0x114
87804d74:	e9d3 2300 	ldrd	r2, r3, [r3]
87804d78:	428a      	cmp	r2, r1
87804d7a:	f8c4 2118 	str.w	r2, [r4, #280]	; 0x118
87804d7e:	bf84      	itt	hi
87804d80:	6860      	ldrhi	r0, [r4, #4]
87804d82:	1a51      	subhi	r1, r2, r1
87804d84:	6863      	ldr	r3, [r4, #4]
87804d86:	f8c4 211c 	str.w	r2, [r4, #284]	; 0x11c
87804d8a:	bf88      	it	hi
87804d8c:	6d05      	ldrhi	r5, [r0, #80]	; 0x50
87804d8e:	6b1b      	ldr	r3, [r3, #48]	; 0x30
87804d90:	bf84      	itt	hi
87804d92:	1949      	addhi	r1, r1, r5
87804d94:	6501      	strhi	r1, [r0, #80]	; 0x50
87804d96:	681a      	ldr	r2, [r3, #0]
87804d98:	f1b2 3fa5 	cmp.w	r2, #2779096485	; 0xa5a5a5a5
87804d9c:	d01f      	beq.n	87804dde <vTaskSwitchContext.part.5+0x86>
87804d9e:	6860      	ldr	r0, [r4, #4]
87804da0:	6861      	ldr	r1, [r4, #4]
87804da2:	3134      	adds	r1, #52	; 0x34
87804da4:	f7fb fbaa 	bl	878004fc <vApplicationStackOverflowHook>
87804da8:	f8d4 5108 	ldr.w	r5, [r4, #264]	; 0x108
87804dac:	fab5 f585 	clz	r5, r5
87804db0:	f1c5 031f 	rsb	r3, r5, #31
87804db4:	009e      	lsls	r6, r3, #2
87804db6:	011d      	lsls	r5, r3, #4
87804db8:	1973      	adds	r3, r6, r5
87804dba:	4423      	add	r3, r4
87804dbc:	689b      	ldr	r3, [r3, #8]
87804dbe:	b1db      	cbz	r3, 87804df8 <vTaskSwitchContext.part.5+0xa0>
87804dc0:	4435      	add	r5, r6
87804dc2:	4a12      	ldr	r2, [pc, #72]	; (87804e0c <vTaskSwitchContext.part.5+0xb4>)
87804dc4:	1963      	adds	r3, r4, r5
87804dc6:	68d9      	ldr	r1, [r3, #12]
87804dc8:	3308      	adds	r3, #8
87804dca:	4415      	add	r5, r2
87804dcc:	684a      	ldr	r2, [r1, #4]
87804dce:	42aa      	cmp	r2, r5
87804dd0:	605a      	str	r2, [r3, #4]
87804dd2:	bf04      	itt	eq
87804dd4:	6852      	ldreq	r2, [r2, #4]
87804dd6:	605a      	streq	r2, [r3, #4]
87804dd8:	68d3      	ldr	r3, [r2, #12]
87804dda:	6063      	str	r3, [r4, #4]
87804ddc:	bd70      	pop	{r4, r5, r6, pc}
87804dde:	685a      	ldr	r2, [r3, #4]
87804de0:	f1b2 3fa5 	cmp.w	r2, #2779096485	; 0xa5a5a5a5
87804de4:	d1db      	bne.n	87804d9e <vTaskSwitchContext.part.5+0x46>
87804de6:	689a      	ldr	r2, [r3, #8]
87804de8:	f1b2 3fa5 	cmp.w	r2, #2779096485	; 0xa5a5a5a5
87804dec:	d1d7      	bne.n	87804d9e <vTaskSwitchContext.part.5+0x46>
87804dee:	68db      	ldr	r3, [r3, #12]
87804df0:	f1b3 3fa5 	cmp.w	r3, #2779096485	; 0xa5a5a5a5
87804df4:	d1d3      	bne.n	87804d9e <vTaskSwitchContext.part.5+0x46>
87804df6:	e7d7      	b.n	87804da8 <vTaskSwitchContext.part.5+0x50>
87804df8:	f64b 4058 	movw	r0, #48216	; 0xbc58
87804dfc:	f640 21f6 	movw	r1, #2806	; 0xaf6
87804e00:	f2c8 7080 	movt	r0, #34688	; 0x8780
87804e04:	f7fb fb8c 	bl	87800520 <vAssertCalled>
87804e08:	e7da      	b.n	87804dc0 <vTaskSwitchContext.part.5+0x68>
87804e0a:	bf00      	nop
87804e0c:	8780d788 	strhi	sp, [r0, r8, lsl #15]

87804e10 <xTaskCreateStatic>:
87804e10:	b5f0      	push	{r4, r5, r6, r7, lr}
87804e12:	b087      	sub	sp, #28
87804e14:	9d0d      	ldr	r5, [sp, #52]	; 0x34
87804e16:	9c0e      	ldr	r4, [sp, #56]	; 0x38
87804e18:	b18d      	cbz	r5, 87804e3e <xTaskCreateStatic+0x2e>
87804e1a:	b1dc      	cbz	r4, 87804e54 <xTaskCreateStatic+0x44>
87804e1c:	6325      	str	r5, [r4, #48]	; 0x30
87804e1e:	2702      	movs	r7, #2
87804e20:	9d0c      	ldr	r5, [sp, #48]	; 0x30
87804e22:	ae05      	add	r6, sp, #20
87804e24:	9402      	str	r4, [sp, #8]
87804e26:	9500      	str	r5, [sp, #0]
87804e28:	f884 7059 	strb.w	r7, [r4, #89]	; 0x59
87804e2c:	9601      	str	r6, [sp, #4]
87804e2e:	f7ff ff2f 	bl	87804c90 <prvInitialiseNewTask.isra.2>
87804e32:	4620      	mov	r0, r4
87804e34:	f7ff fe22 	bl	87804a7c <prvAddNewTaskToReadyList>
87804e38:	9805      	ldr	r0, [sp, #20]
87804e3a:	b007      	add	sp, #28
87804e3c:	bdf0      	pop	{r4, r5, r6, r7, pc}
87804e3e:	f64b 4058 	movw	r0, #48216	; 0xbc58
87804e42:	f240 2155 	movw	r1, #597	; 0x255
87804e46:	f2c8 7080 	movt	r0, #34688	; 0x8780
87804e4a:	f7fb fb69 	bl	87800520 <vAssertCalled>
87804e4e:	4628      	mov	r0, r5
87804e50:	2c00      	cmp	r4, #0
87804e52:	d1f2      	bne.n	87804e3a <xTaskCreateStatic+0x2a>
87804e54:	f64b 4058 	movw	r0, #48216	; 0xbc58
87804e58:	f240 2156 	movw	r1, #598	; 0x256
87804e5c:	f2c8 7080 	movt	r0, #34688	; 0x8780
87804e60:	f7fb fb5e 	bl	87800520 <vAssertCalled>
87804e64:	2000      	movs	r0, #0
87804e66:	e7e8      	b.n	87804e3a <xTaskCreateStatic+0x2a>

87804e68 <xTaskCreate>:
87804e68:	e92d 43f0 	stmdb	sp!, {r4, r5, r6, r7, r8, r9, lr}
87804e6c:	4607      	mov	r7, r0
87804e6e:	b085      	sub	sp, #20
87804e70:	0090      	lsls	r0, r2, #2
87804e72:	4616      	mov	r6, r2
87804e74:	4688      	mov	r8, r1
87804e76:	4699      	mov	r9, r3
87804e78:	f001 fe9e 	bl	87806bb8 <pvPortMalloc>
87804e7c:	4605      	mov	r5, r0
87804e7e:	b1f0      	cbz	r0, 87804ebe <xTaskCreate+0x56>
87804e80:	205c      	movs	r0, #92	; 0x5c
87804e82:	f001 fe99 	bl	87806bb8 <pvPortMalloc>
87804e86:	4604      	mov	r4, r0
87804e88:	b1b0      	cbz	r0, 87804eb8 <xTaskCreate+0x50>
87804e8a:	6305      	str	r5, [r0, #48]	; 0x30
87804e8c:	f04f 0e00 	mov.w	lr, #0
87804e90:	9d0d      	ldr	r5, [sp, #52]	; 0x34
87804e92:	464b      	mov	r3, r9
87804e94:	f884 e059 	strb.w	lr, [r4, #89]	; 0x59
87804e98:	4632      	mov	r2, r6
87804e9a:	4641      	mov	r1, r8
87804e9c:	4638      	mov	r0, r7
87804e9e:	9501      	str	r5, [sp, #4]
87804ea0:	9d0c      	ldr	r5, [sp, #48]	; 0x30
87804ea2:	9402      	str	r4, [sp, #8]
87804ea4:	9500      	str	r5, [sp, #0]
87804ea6:	f7ff fef3 	bl	87804c90 <prvInitialiseNewTask.isra.2>
87804eaa:	4620      	mov	r0, r4
87804eac:	f7ff fde6 	bl	87804a7c <prvAddNewTaskToReadyList>
87804eb0:	2001      	movs	r0, #1
87804eb2:	b005      	add	sp, #20
87804eb4:	e8bd 83f0 	ldmia.w	sp!, {r4, r5, r6, r7, r8, r9, pc}
87804eb8:	4628      	mov	r0, r5
87804eba:	f001 ff39 	bl	87806d30 <vPortFree>
87804ebe:	f04f 30ff 	mov.w	r0, #4294967295	; 0xffffffff
87804ec2:	b005      	add	sp, #20
87804ec4:	e8bd 83f0 	ldmia.w	sp!, {r4, r5, r6, r7, r8, r9, pc}

87804ec8 <vTaskDelete>:
87804ec8:	b5f8      	push	{r3, r4, r5, r6, r7, lr}
87804eca:	4604      	mov	r4, r0
87804ecc:	f24d 7578 	movw	r5, #55160	; 0xd778
87804ed0:	f2c8 7580 	movt	r5, #34688	; 0x8780
87804ed4:	f002 f8ec 	bl	878070b0 <vPortEnterCritical>
87804ed8:	2c00      	cmp	r4, #0
87804eda:	d050      	beq.n	87804f7e <vTaskDelete+0xb6>
87804edc:	1d27      	adds	r7, r4, #4
87804ede:	4638      	mov	r0, r7
87804ee0:	f7ff fba0 	bl	87804624 <uxListRemove>
87804ee4:	b950      	cbnz	r0, 87804efc <vTaskDelete+0x34>
87804ee6:	6ae1      	ldr	r1, [r4, #44]	; 0x2c
87804ee8:	f24d 7278 	movw	r2, #55160	; 0xd778
87804eec:	f2c8 7280 	movt	r2, #34688	; 0x8780
87804ef0:	010b      	lsls	r3, r1, #4
87804ef2:	eb03 0381 	add.w	r3, r3, r1, lsl #2
87804ef6:	442b      	add	r3, r5
87804ef8:	689b      	ldr	r3, [r3, #8]
87804efa:	b33b      	cbz	r3, 87804f4c <vTaskDelete+0x84>
87804efc:	6aa3      	ldr	r3, [r4, #40]	; 0x28
87804efe:	b11b      	cbz	r3, 87804f08 <vTaskDelete+0x40>
87804f00:	f104 0018 	add.w	r0, r4, #24
87804f04:	f7ff fb8e 	bl	87804624 <uxListRemove>
87804f08:	686a      	ldr	r2, [r5, #4]
87804f0a:	f24d 7678 	movw	r6, #55160	; 0xd778
87804f0e:	f8d5 3104 	ldr.w	r3, [r5, #260]	; 0x104
87804f12:	f2c8 7680 	movt	r6, #34688	; 0x8780
87804f16:	4294      	cmp	r4, r2
87804f18:	f103 0301 	add.w	r3, r3, #1
87804f1c:	f8c5 3104 	str.w	r3, [r5, #260]	; 0x104
87804f20:	d022      	beq.n	87804f68 <vTaskDelete+0xa0>
87804f22:	6833      	ldr	r3, [r6, #0]
87804f24:	4620      	mov	r0, r4
87804f26:	3b01      	subs	r3, #1
87804f28:	6033      	str	r3, [r6, #0]
87804f2a:	f7ff fef9 	bl	87804d20 <prvDeleteTCB>
87804f2e:	f7ff fe7b 	bl	87804c28 <prvResetNextTaskUnblockTime>
87804f32:	f002 f82b 	bl	87806f8c <vPortExitCritical>
87804f36:	f8d5 2100 	ldr.w	r2, [r5, #256]	; 0x100
87804f3a:	f24d 7378 	movw	r3, #55160	; 0xd778
87804f3e:	f2c8 7380 	movt	r3, #34688	; 0x8780
87804f42:	b112      	cbz	r2, 87804f4a <vTaskDelete+0x82>
87804f44:	685a      	ldr	r2, [r3, #4]
87804f46:	4294      	cmp	r4, r2
87804f48:	d009      	beq.n	87804f5e <vTaskDelete+0x96>
87804f4a:	bdf8      	pop	{r3, r4, r5, r6, r7, pc}
87804f4c:	f8d2 0108 	ldr.w	r0, [r2, #264]	; 0x108
87804f50:	2301      	movs	r3, #1
87804f52:	408b      	lsls	r3, r1
87804f54:	ea20 0303 	bic.w	r3, r0, r3
87804f58:	f8c2 3108 	str.w	r3, [r2, #264]	; 0x108
87804f5c:	e7ce      	b.n	87804efc <vTaskDelete+0x34>
87804f5e:	f8d3 3124 	ldr.w	r3, [r3, #292]	; 0x124
87804f62:	b973      	cbnz	r3, 87804f82 <vTaskDelete+0xba>
87804f64:	df00      	svc	0
87804f66:	bdf8      	pop	{r3, r4, r5, r6, r7, pc}
87804f68:	4639      	mov	r1, r7
87804f6a:	f106 00d0 	add.w	r0, r6, #208	; 0xd0
87804f6e:	f7ff fb2f 	bl	878045d0 <vListInsertEnd>
87804f72:	f8d6 3120 	ldr.w	r3, [r6, #288]	; 0x120
87804f76:	3301      	adds	r3, #1
87804f78:	f8c6 3120 	str.w	r3, [r6, #288]	; 0x120
87804f7c:	e7d9      	b.n	87804f32 <vTaskDelete+0x6a>
87804f7e:	686c      	ldr	r4, [r5, #4]
87804f80:	e7ac      	b.n	87804edc <vTaskDelete+0x14>
87804f82:	f64b 4058 	movw	r0, #48216	; 0xbc58
87804f86:	f240 4165 	movw	r1, #1125	; 0x465
87804f8a:	f2c8 7080 	movt	r0, #34688	; 0x8780
87804f8e:	f7fb fac7 	bl	87800520 <vAssertCalled>
87804f92:	e7e7      	b.n	87804f64 <vTaskDelete+0x9c>

87804f94 <eTaskGetState>:
87804f94:	b570      	push	{r4, r5, r6, lr}
87804f96:	4605      	mov	r5, r0
87804f98:	b318      	cbz	r0, 87804fe2 <eTaskGetState+0x4e>
87804f9a:	f24d 7478 	movw	r4, #55160	; 0xd778
87804f9e:	f2c8 7480 	movt	r4, #34688	; 0x8780
87804fa2:	6863      	ldr	r3, [r4, #4]
87804fa4:	429d      	cmp	r5, r3
87804fa6:	d01a      	beq.n	87804fde <eTaskGetState+0x4a>
87804fa8:	f002 f882 	bl	878070b0 <vPortEnterCritical>
87804fac:	696e      	ldr	r6, [r5, #20]
87804fae:	f001 ffed 	bl	87806f8c <vPortExitCritical>
87804fb2:	f8d4 30f8 	ldr.w	r3, [r4, #248]	; 0xf8
87804fb6:	429e      	cmp	r6, r3
87804fb8:	d00f      	beq.n	87804fda <eTaskGetState+0x46>
87804fba:	f8d4 30fc 	ldr.w	r3, [r4, #252]	; 0xfc
87804fbe:	429e      	cmp	r6, r3
87804fc0:	d00b      	beq.n	87804fda <eTaskGetState+0x46>
87804fc2:	f104 03e4 	add.w	r3, r4, #228	; 0xe4
87804fc6:	429e      	cmp	r6, r3
87804fc8:	d014      	beq.n	87804ff4 <eTaskGetState+0x60>
87804fca:	34d0      	adds	r4, #208	; 0xd0
87804fcc:	2e00      	cmp	r6, #0
87804fce:	bf18      	it	ne
87804fd0:	42a6      	cmpne	r6, r4
87804fd2:	bf0c      	ite	eq
87804fd4:	2004      	moveq	r0, #4
87804fd6:	2001      	movne	r0, #1
87804fd8:	bd70      	pop	{r4, r5, r6, pc}
87804fda:	2002      	movs	r0, #2
87804fdc:	bd70      	pop	{r4, r5, r6, pc}
87804fde:	2000      	movs	r0, #0
87804fe0:	bd70      	pop	{r4, r5, r6, pc}
87804fe2:	f64b 4058 	movw	r0, #48216	; 0xbc58
87804fe6:	f240 41fb 	movw	r1, #1275	; 0x4fb
87804fea:	f2c8 7080 	movt	r0, #34688	; 0x8780
87804fee:	f7fb fa97 	bl	87800520 <vAssertCalled>
87804ff2:	e7d2      	b.n	87804f9a <eTaskGetState+0x6>
87804ff4:	6aab      	ldr	r3, [r5, #40]	; 0x28
87804ff6:	2b00      	cmp	r3, #0
87804ff8:	bf0c      	ite	eq
87804ffa:	2003      	moveq	r0, #3
87804ffc:	2002      	movne	r0, #2
87804ffe:	bd70      	pop	{r4, r5, r6, pc}

87805000 <uxTaskPriorityGet>:
87805000:	b510      	push	{r4, lr}
87805002:	4604      	mov	r4, r0
87805004:	f002 f854 	bl	878070b0 <vPortEnterCritical>
87805008:	b124      	cbz	r4, 87805014 <uxTaskPriorityGet+0x14>
8780500a:	6ae4      	ldr	r4, [r4, #44]	; 0x2c
8780500c:	f001 ffbe 	bl	87806f8c <vPortExitCritical>
87805010:	4620      	mov	r0, r4
87805012:	bd10      	pop	{r4, pc}
87805014:	f24d 7378 	movw	r3, #55160	; 0xd778
87805018:	f2c8 7380 	movt	r3, #34688	; 0x8780
8780501c:	685c      	ldr	r4, [r3, #4]
8780501e:	6ae4      	ldr	r4, [r4, #44]	; 0x2c
87805020:	f001 ffb4 	bl	87806f8c <vPortExitCritical>
87805024:	4620      	mov	r0, r4
87805026:	bd10      	pop	{r4, pc}

87805028 <uxTaskPriorityGetFromISR>:
87805028:	b510      	push	{r4, lr}
8780502a:	4604      	mov	r4, r0
8780502c:	f002 f860 	bl	878070f0 <vPortValidateInterruptPriority>
87805030:	f002 f822 	bl	87807078 <ulPortSetInterruptMask>
87805034:	b124      	cbz	r4, 87805040 <uxTaskPriorityGetFromISR+0x18>
87805036:	6ae4      	ldr	r4, [r4, #44]	; 0x2c
87805038:	f002 f808 	bl	8780704c <vPortClearInterruptMask>
8780503c:	4620      	mov	r0, r4
8780503e:	bd10      	pop	{r4, pc}
87805040:	f24d 7378 	movw	r3, #55160	; 0xd778
87805044:	f2c8 7380 	movt	r3, #34688	; 0x8780
87805048:	685c      	ldr	r4, [r3, #4]
8780504a:	6ae4      	ldr	r4, [r4, #44]	; 0x2c
8780504c:	f001 fffe 	bl	8780704c <vPortClearInterruptMask>
87805050:	4620      	mov	r0, r4
87805052:	bd10      	pop	{r4, pc}

87805054 <vTaskPrioritySet>:
87805054:	2906      	cmp	r1, #6
87805056:	e92d 47f0 	stmdb	sp!, {r4, r5, r6, r7, r8, r9, sl, lr}
8780505a:	460d      	mov	r5, r1
8780505c:	4604      	mov	r4, r0
8780505e:	d85c      	bhi.n	8780511a <vTaskPrioritySet+0xc6>
87805060:	f002 f826 	bl	878070b0 <vPortEnterCritical>
87805064:	2c00      	cmp	r4, #0
87805066:	d065      	beq.n	87805134 <vTaskPrioritySet+0xe0>
87805068:	6ca3      	ldr	r3, [r4, #72]	; 0x48
8780506a:	42ab      	cmp	r3, r5
8780506c:	d051      	beq.n	87805112 <vTaskPrioritySet+0xbe>
8780506e:	429d      	cmp	r5, r3
87805070:	f24d 7678 	movw	r6, #55160	; 0xd778
87805074:	f2c8 7680 	movt	r6, #34688	; 0x8780
87805078:	d90b      	bls.n	87805092 <vTaskPrioritySet+0x3e>
8780507a:	6872      	ldr	r2, [r6, #4]
8780507c:	4294      	cmp	r4, r2
8780507e:	bf08      	it	eq
87805080:	2700      	moveq	r7, #0
87805082:	d00b      	beq.n	8780509c <vTaskPrioritySet+0x48>
87805084:	6872      	ldr	r2, [r6, #4]
87805086:	6ad7      	ldr	r7, [r2, #44]	; 0x2c
87805088:	42bd      	cmp	r5, r7
8780508a:	bf34      	ite	cc
8780508c:	2700      	movcc	r7, #0
8780508e:	2701      	movcs	r7, #1
87805090:	e004      	b.n	8780509c <vTaskPrioritySet+0x48>
87805092:	6877      	ldr	r7, [r6, #4]
87805094:	1be7      	subs	r7, r4, r7
87805096:	fab7 f787 	clz	r7, r7
8780509a:	097f      	lsrs	r7, r7, #5
8780509c:	f8d4 802c 	ldr.w	r8, [r4, #44]	; 0x2c
878050a0:	64a5      	str	r5, [r4, #72]	; 0x48
878050a2:	6962      	ldr	r2, [r4, #20]
878050a4:	4543      	cmp	r3, r8
878050a6:	69a3      	ldr	r3, [r4, #24]
878050a8:	bf08      	it	eq
878050aa:	62e5      	streq	r5, [r4, #44]	; 0x2c
878050ac:	2b00      	cmp	r3, #0
878050ae:	ea4f 1308 	mov.w	r3, r8, lsl #4
878050b2:	bfa4      	itt	ge
878050b4:	f1c5 0507 	rsbge	r5, r5, #7
878050b8:	61a5      	strge	r5, [r4, #24]
878050ba:	f24d 7578 	movw	r5, #55160	; 0xd778
878050be:	f2c8 7580 	movt	r5, #34688	; 0x8780
878050c2:	eb03 0388 	add.w	r3, r3, r8, lsl #2
878050c6:	f105 0908 	add.w	r9, r5, #8
878050ca:	444b      	add	r3, r9
878050cc:	429a      	cmp	r2, r3
878050ce:	d11e      	bne.n	8780510e <vTaskPrioritySet+0xba>
878050d0:	f104 0a04 	add.w	sl, r4, #4
878050d4:	4650      	mov	r0, sl
878050d6:	f7ff faa5 	bl	87804624 <uxListRemove>
878050da:	b940      	cbnz	r0, 878050ee <vTaskPrioritySet+0x9a>
878050dc:	f8d5 2108 	ldr.w	r2, [r5, #264]	; 0x108
878050e0:	2301      	movs	r3, #1
878050e2:	fa03 f308 	lsl.w	r3, r3, r8
878050e6:	ea22 0303 	bic.w	r3, r2, r3
878050ea:	f8c5 3108 	str.w	r3, [r5, #264]	; 0x108
878050ee:	6ae0      	ldr	r0, [r4, #44]	; 0x2c
878050f0:	2401      	movs	r4, #1
878050f2:	f8d6 2108 	ldr.w	r2, [r6, #264]	; 0x108
878050f6:	4651      	mov	r1, sl
878050f8:	0103      	lsls	r3, r0, #4
878050fa:	4084      	lsls	r4, r0
878050fc:	eb03 0080 	add.w	r0, r3, r0, lsl #2
87805100:	ea44 0302 	orr.w	r3, r4, r2
87805104:	f8c6 3108 	str.w	r3, [r6, #264]	; 0x108
87805108:	4448      	add	r0, r9
8780510a:	f7ff fa61 	bl	878045d0 <vListInsertEnd>
8780510e:	b107      	cbz	r7, 87805112 <vTaskPrioritySet+0xbe>
87805110:	df00      	svc	0
87805112:	e8bd 47f0 	ldmia.w	sp!, {r4, r5, r6, r7, r8, r9, sl, lr}
87805116:	f001 bf39 	b.w	87806f8c <vPortExitCritical>
8780511a:	f64b 4058 	movw	r0, #48216	; 0xbc58
8780511e:	f44f 61b0 	mov.w	r1, #1408	; 0x580
87805122:	f2c8 7080 	movt	r0, #34688	; 0x8780
87805126:	2506      	movs	r5, #6
87805128:	f7fb f9fa 	bl	87800520 <vAssertCalled>
8780512c:	f001 ffc0 	bl	878070b0 <vPortEnterCritical>
87805130:	2c00      	cmp	r4, #0
87805132:	d199      	bne.n	87805068 <vTaskPrioritySet+0x14>
87805134:	f24d 7378 	movw	r3, #55160	; 0xd778
87805138:	f2c8 7380 	movt	r3, #34688	; 0x8780
8780513c:	685c      	ldr	r4, [r3, #4]
8780513e:	e793      	b.n	87805068 <vTaskPrioritySet+0x14>

87805140 <vTaskSuspend>:
87805140:	b570      	push	{r4, r5, r6, lr}
87805142:	4604      	mov	r4, r0
87805144:	f24d 7578 	movw	r5, #55160	; 0xd778
87805148:	f2c8 7580 	movt	r5, #34688	; 0x8780
8780514c:	f001 ffb0 	bl	878070b0 <vPortEnterCritical>
87805150:	2c00      	cmp	r4, #0
87805152:	d058      	beq.n	87805206 <vTaskSuspend+0xc6>
87805154:	1d26      	adds	r6, r4, #4
87805156:	4630      	mov	r0, r6
87805158:	f7ff fa64 	bl	87804624 <uxListRemove>
8780515c:	b950      	cbnz	r0, 87805174 <vTaskSuspend+0x34>
8780515e:	6ae1      	ldr	r1, [r4, #44]	; 0x2c
87805160:	f24d 7278 	movw	r2, #55160	; 0xd778
87805164:	f2c8 7280 	movt	r2, #34688	; 0x8780
87805168:	010b      	lsls	r3, r1, #4
8780516a:	eb03 0381 	add.w	r3, r3, r1, lsl #2
8780516e:	442b      	add	r3, r5
87805170:	689b      	ldr	r3, [r3, #8]
87805172:	b1b3      	cbz	r3, 878051a2 <vTaskSuspend+0x62>
87805174:	6aa3      	ldr	r3, [r4, #40]	; 0x28
87805176:	b11b      	cbz	r3, 87805180 <vTaskSuspend+0x40>
87805178:	f104 0018 	add.w	r0, r4, #24
8780517c:	f7ff fa52 	bl	87804624 <uxListRemove>
87805180:	4631      	mov	r1, r6
87805182:	4824      	ldr	r0, [pc, #144]	; (87805214 <vTaskSuspend+0xd4>)
87805184:	f7ff fa24 	bl	878045d0 <vListInsertEnd>
87805188:	f001 ff00 	bl	87806f8c <vPortExitCritical>
8780518c:	f8d5 3100 	ldr.w	r3, [r5, #256]	; 0x100
87805190:	b983      	cbnz	r3, 878051b4 <vTaskSuspend+0x74>
87805192:	686a      	ldr	r2, [r5, #4]
87805194:	f24d 7378 	movw	r3, #55160	; 0xd778
87805198:	f2c8 7380 	movt	r3, #34688	; 0x8780
8780519c:	4294      	cmp	r4, r2
8780519e:	d016      	beq.n	878051ce <vTaskSuspend+0x8e>
878051a0:	bd70      	pop	{r4, r5, r6, pc}
878051a2:	f8d2 0108 	ldr.w	r0, [r2, #264]	; 0x108
878051a6:	2301      	movs	r3, #1
878051a8:	408b      	lsls	r3, r1
878051aa:	ea20 0303 	bic.w	r3, r0, r3
878051ae:	f8c2 3108 	str.w	r3, [r2, #264]	; 0x108
878051b2:	e7df      	b.n	87805174 <vTaskSuspend+0x34>
878051b4:	f001 ff7c 	bl	878070b0 <vPortEnterCritical>
878051b8:	f7ff fd36 	bl	87804c28 <prvResetNextTaskUnblockTime>
878051bc:	f001 fee6 	bl	87806f8c <vPortExitCritical>
878051c0:	686a      	ldr	r2, [r5, #4]
878051c2:	f24d 7378 	movw	r3, #55160	; 0xd778
878051c6:	f2c8 7380 	movt	r3, #34688	; 0x8780
878051ca:	4294      	cmp	r4, r2
878051cc:	d1e8      	bne.n	878051a0 <vTaskSuspend+0x60>
878051ce:	f8d3 2100 	ldr.w	r2, [r3, #256]	; 0x100
878051d2:	b162      	cbz	r2, 878051ee <vTaskSuspend+0xae>
878051d4:	f8d3 3124 	ldr.w	r3, [r3, #292]	; 0x124
878051d8:	b13b      	cbz	r3, 878051ea <vTaskSuspend+0xaa>
878051da:	f64b 4058 	movw	r0, #48216	; 0xbc58
878051de:	f240 6157 	movw	r1, #1623	; 0x657
878051e2:	f2c8 7080 	movt	r0, #34688	; 0x8780
878051e6:	f7fb f99b 	bl	87800520 <vAssertCalled>
878051ea:	df00      	svc	0
878051ec:	bd70      	pop	{r4, r5, r6, pc}
878051ee:	6819      	ldr	r1, [r3, #0]
878051f0:	f8d3 00e4 	ldr.w	r0, [r3, #228]	; 0xe4
878051f4:	4288      	cmp	r0, r1
878051f6:	d00b      	beq.n	87805210 <vTaskSuspend+0xd0>
878051f8:	f8d3 2124 	ldr.w	r2, [r3, #292]	; 0x124
878051fc:	b12a      	cbz	r2, 8780520a <vTaskSuspend+0xca>
878051fe:	2201      	movs	r2, #1
87805200:	f8c3 2114 	str.w	r2, [r3, #276]	; 0x114
87805204:	bd70      	pop	{r4, r5, r6, pc}
87805206:	686c      	ldr	r4, [r5, #4]
87805208:	e7a4      	b.n	87805154 <vTaskSuspend+0x14>
8780520a:	e8bd 4070 	ldmia.w	sp!, {r4, r5, r6, lr}
8780520e:	e5a3      	b.n	87804d58 <vTaskSwitchContext.part.5>
87805210:	605a      	str	r2, [r3, #4]
87805212:	bd70      	pop	{r4, r5, r6, pc}
87805214:	8780d85c 			; <UNDEFINED> instruction: 0x8780d85c

87805218 <vTaskResume>:
87805218:	b3a8      	cbz	r0, 87805286 <vTaskResume+0x6e>
8780521a:	e92d 41f0 	stmdb	sp!, {r4, r5, r6, r7, r8, lr}
8780521e:	f24d 7578 	movw	r5, #55160	; 0xd778
87805222:	f2c8 7580 	movt	r5, #34688	; 0x8780
87805226:	686b      	ldr	r3, [r5, #4]
87805228:	4298      	cmp	r0, r3
8780522a:	d02a      	beq.n	87805282 <vTaskResume+0x6a>
8780522c:	4604      	mov	r4, r0
8780522e:	f001 ff3f 	bl	878070b0 <vPortEnterCritical>
87805232:	4620      	mov	r0, r4
87805234:	f7ff fd0e 	bl	87804c54 <prvTaskIsTaskSuspended>
87805238:	b918      	cbnz	r0, 87805242 <vTaskResume+0x2a>
8780523a:	e8bd 41f0 	ldmia.w	sp!, {r4, r5, r6, r7, r8, lr}
8780523e:	f001 bea5 	b.w	87806f8c <vPortExitCritical>
87805242:	f104 0804 	add.w	r8, r4, #4
87805246:	4640      	mov	r0, r8
87805248:	f7ff f9ec 	bl	87804624 <uxListRemove>
8780524c:	6ae7      	ldr	r7, [r4, #44]	; 0x2c
8780524e:	2201      	movs	r2, #1
87805250:	f8d5 6108 	ldr.w	r6, [r5, #264]	; 0x108
87805254:	f105 0008 	add.w	r0, r5, #8
87805258:	4641      	mov	r1, r8
8780525a:	013b      	lsls	r3, r7, #4
8780525c:	40ba      	lsls	r2, r7
8780525e:	eb03 0387 	add.w	r3, r3, r7, lsl #2
87805262:	4332      	orrs	r2, r6
87805264:	f8c5 2108 	str.w	r2, [r5, #264]	; 0x108
87805268:	4418      	add	r0, r3
8780526a:	f7ff f9b1 	bl	878045d0 <vListInsertEnd>
8780526e:	686b      	ldr	r3, [r5, #4]
87805270:	6ae2      	ldr	r2, [r4, #44]	; 0x2c
87805272:	6adb      	ldr	r3, [r3, #44]	; 0x2c
87805274:	429a      	cmp	r2, r3
87805276:	d3e0      	bcc.n	8780523a <vTaskResume+0x22>
87805278:	df00      	svc	0
8780527a:	e8bd 41f0 	ldmia.w	sp!, {r4, r5, r6, r7, r8, lr}
8780527e:	f001 be85 	b.w	87806f8c <vPortExitCritical>
87805282:	e8bd 81f0 	ldmia.w	sp!, {r4, r5, r6, r7, r8, pc}
87805286:	f64b 4058 	movw	r0, #48216	; 0xbc58
8780528a:	f240 61ab 	movw	r1, #1707	; 0x6ab
8780528e:	f2c8 7080 	movt	r0, #34688	; 0x8780
87805292:	f7fb b945 	b.w	87800520 <vAssertCalled>
87805296:	bf00      	nop

87805298 <xTaskResumeFromISR>:
87805298:	e92d 41f0 	stmdb	sp!, {r4, r5, r6, r7, r8, lr}
8780529c:	4604      	mov	r4, r0
8780529e:	2800      	cmp	r0, #0
878052a0:	d040      	beq.n	87805324 <xTaskResumeFromISR+0x8c>
878052a2:	f001 ff25 	bl	878070f0 <vPortValidateInterruptPriority>
878052a6:	f001 fee7 	bl	87807078 <ulPortSetInterruptMask>
878052aa:	4607      	mov	r7, r0
878052ac:	4620      	mov	r0, r4
878052ae:	f7ff fcd1 	bl	87804c54 <prvTaskIsTaskSuspended>
878052b2:	4606      	mov	r6, r0
878052b4:	b318      	cbz	r0, 878052fe <xTaskResumeFromISR+0x66>
878052b6:	f24d 7578 	movw	r5, #55160	; 0xd778
878052ba:	f2c8 7580 	movt	r5, #34688	; 0x8780
878052be:	f8d5 3124 	ldr.w	r3, [r5, #292]	; 0x124
878052c2:	bb13      	cbnz	r3, 8780530a <xTaskResumeFromISR+0x72>
878052c4:	686b      	ldr	r3, [r5, #4]
878052c6:	f104 0804 	add.w	r8, r4, #4
878052ca:	6ae6      	ldr	r6, [r4, #44]	; 0x2c
878052cc:	4640      	mov	r0, r8
878052ce:	6adb      	ldr	r3, [r3, #44]	; 0x2c
878052d0:	429e      	cmp	r6, r3
878052d2:	bf34      	ite	cc
878052d4:	2600      	movcc	r6, #0
878052d6:	2601      	movcs	r6, #1
878052d8:	f7ff f9a4 	bl	87804624 <uxListRemove>
878052dc:	6ae0      	ldr	r0, [r4, #44]	; 0x2c
878052de:	2201      	movs	r2, #1
878052e0:	f8d5 4108 	ldr.w	r4, [r5, #264]	; 0x108
878052e4:	f105 0e08 	add.w	lr, r5, #8
878052e8:	4641      	mov	r1, r8
878052ea:	0103      	lsls	r3, r0, #4
878052ec:	4082      	lsls	r2, r0
878052ee:	eb03 0080 	add.w	r0, r3, r0, lsl #2
878052f2:	4322      	orrs	r2, r4
878052f4:	f8c5 2108 	str.w	r2, [r5, #264]	; 0x108
878052f8:	4470      	add	r0, lr
878052fa:	f7ff f969 	bl	878045d0 <vListInsertEnd>
878052fe:	4638      	mov	r0, r7
87805300:	f001 fea4 	bl	8780704c <vPortClearInterruptMask>
87805304:	4630      	mov	r0, r6
87805306:	e8bd 81f0 	ldmia.w	sp!, {r4, r5, r6, r7, r8, pc}
8780530a:	f104 0118 	add.w	r1, r4, #24
8780530e:	f105 00bc 	add.w	r0, r5, #188	; 0xbc
87805312:	f7ff f95d 	bl	878045d0 <vListInsertEnd>
87805316:	2600      	movs	r6, #0
87805318:	4638      	mov	r0, r7
8780531a:	f001 fe97 	bl	8780704c <vPortClearInterruptMask>
8780531e:	4630      	mov	r0, r6
87805320:	e8bd 81f0 	ldmia.w	sp!, {r4, r5, r6, r7, r8, pc}
87805324:	f64b 4058 	movw	r0, #48216	; 0xbc58
87805328:	f240 61e2 	movw	r1, #1762	; 0x6e2
8780532c:	f2c8 7080 	movt	r0, #34688	; 0x8780
87805330:	f7fb f8f6 	bl	87800520 <vAssertCalled>
87805334:	e7b5      	b.n	878052a2 <xTaskResumeFromISR+0xa>
87805336:	bf00      	nop

87805338 <vTaskStartScheduler>:
87805338:	b5f0      	push	{r4, r5, r6, r7, lr}
8780533a:	b089      	sub	sp, #36	; 0x24
8780533c:	2400      	movs	r4, #0
8780533e:	aa07      	add	r2, sp, #28
87805340:	a906      	add	r1, sp, #24
87805342:	a805      	add	r0, sp, #20
87805344:	9405      	str	r4, [sp, #20]
87805346:	f24d 7578 	movw	r5, #55160	; 0xd778
8780534a:	9406      	str	r4, [sp, #24]
8780534c:	f2c8 7580 	movt	r5, #34688	; 0x8780
87805350:	f7fb f8fa 	bl	87800548 <vApplicationGetIdleTaskMemory>
87805354:	9f05      	ldr	r7, [sp, #20]
87805356:	f64b 4170 	movw	r1, #48240	; 0xbc70
8780535a:	9e06      	ldr	r6, [sp, #24]
8780535c:	f245 7045 	movw	r0, #22341	; 0x5745
87805360:	9a07      	ldr	r2, [sp, #28]
87805362:	4623      	mov	r3, r4
87805364:	9400      	str	r4, [sp, #0]
87805366:	f2c8 7180 	movt	r1, #34688	; 0x8780
8780536a:	9702      	str	r7, [sp, #8]
8780536c:	f2c8 7080 	movt	r0, #34688	; 0x8780
87805370:	9601      	str	r6, [sp, #4]
87805372:	f7ff fd4d 	bl	87804e10 <xTaskCreateStatic>
87805376:	f8c5 0128 	str.w	r0, [r5, #296]	; 0x128
8780537a:	b190      	cbz	r0, 878053a2 <vTaskStartScheduler+0x6a>
8780537c:	f001 f928 	bl	878065d0 <xTimerCreateTimerTask>
87805380:	2801      	cmp	r0, #1
87805382:	4606      	mov	r6, r0
87805384:	d10f      	bne.n	878053a6 <vTaskStartScheduler+0x6e>
87805386:	f001 fe77 	bl	87807078 <ulPortSetInterruptMask>
8780538a:	f04f 33ff 	mov.w	r3, #4294967295	; 0xffffffff
8780538e:	f8c5 3110 	str.w	r3, [r5, #272]	; 0x110
87805392:	f8c5 6100 	str.w	r6, [r5, #256]	; 0x100
87805396:	f8c5 410c 	str.w	r4, [r5, #268]	; 0x10c
8780539a:	f7fd f85b 	bl	87802454 <vInitialiseTimerForRunTimeStats>
8780539e:	f001 fd75 	bl	87806e8c <xPortStartScheduler>
878053a2:	b009      	add	sp, #36	; 0x24
878053a4:	bdf0      	pop	{r4, r5, r6, r7, pc}
878053a6:	3601      	adds	r6, #1
878053a8:	d1fb      	bne.n	878053a2 <vTaskStartScheduler+0x6a>
878053aa:	f64b 4058 	movw	r0, #48216	; 0xbc58
878053ae:	f240 7184 	movw	r1, #1924	; 0x784
878053b2:	f2c8 7080 	movt	r0, #34688	; 0x8780
878053b6:	f7fb f8b3 	bl	87800520 <vAssertCalled>
878053ba:	b009      	add	sp, #36	; 0x24
878053bc:	bdf0      	pop	{r4, r5, r6, r7, pc}
878053be:	bf00      	nop

878053c0 <vTaskEndScheduler>:
878053c0:	b508      	push	{r3, lr}
878053c2:	f001 fe59 	bl	87807078 <ulPortSetInterruptMask>
878053c6:	f24d 7378 	movw	r3, #55160	; 0xd778
878053ca:	2200      	movs	r2, #0
878053cc:	f2c8 7380 	movt	r3, #34688	; 0x8780
878053d0:	f8c3 2100 	str.w	r2, [r3, #256]	; 0x100
878053d4:	e8bd 4008 	ldmia.w	sp!, {r3, lr}
878053d8:	f001 bdc6 	b.w	87806f68 <vPortEndScheduler>

878053dc <vTaskSuspendAll>:
878053dc:	f24d 7378 	movw	r3, #55160	; 0xd778
878053e0:	f2c8 7380 	movt	r3, #34688	; 0x8780
878053e4:	f8d3 2124 	ldr.w	r2, [r3, #292]	; 0x124
878053e8:	3201      	adds	r2, #1
878053ea:	f8c3 2124 	str.w	r2, [r3, #292]	; 0x124
878053ee:	4770      	bx	lr

878053f0 <xTaskGetTickCount>:
878053f0:	f24d 7378 	movw	r3, #55160	; 0xd778
878053f4:	f2c8 7380 	movt	r3, #34688	; 0x8780
878053f8:	f8d3 010c 	ldr.w	r0, [r3, #268]	; 0x10c
878053fc:	4770      	bx	lr
878053fe:	bf00      	nop

87805400 <xTaskGetTickCountFromISR>:
87805400:	b508      	push	{r3, lr}
87805402:	f001 fe75 	bl	878070f0 <vPortValidateInterruptPriority>
87805406:	f24d 7378 	movw	r3, #55160	; 0xd778
8780540a:	f2c8 7380 	movt	r3, #34688	; 0x8780
8780540e:	f8d3 010c 	ldr.w	r0, [r3, #268]	; 0x10c
87805412:	bd08      	pop	{r3, pc}

87805414 <uxTaskGetNumberOfTasks>:
87805414:	f24d 7378 	movw	r3, #55160	; 0xd778
87805418:	f2c8 7380 	movt	r3, #34688	; 0x8780
8780541c:	6818      	ldr	r0, [r3, #0]
8780541e:	4770      	bx	lr

87805420 <pcTaskGetName>:
87805420:	b510      	push	{r4, lr}
87805422:	4604      	mov	r4, r0
87805424:	b110      	cbz	r0, 8780542c <pcTaskGetName+0xc>
87805426:	f104 0034 	add.w	r0, r4, #52	; 0x34
8780542a:	bd10      	pop	{r4, pc}
8780542c:	f24d 7378 	movw	r3, #55160	; 0xd778
87805430:	f2c8 7380 	movt	r3, #34688	; 0x8780
87805434:	685c      	ldr	r4, [r3, #4]
87805436:	2c00      	cmp	r4, #0
87805438:	d1f5      	bne.n	87805426 <pcTaskGetName+0x6>
8780543a:	f64b 4058 	movw	r0, #48216	; 0xbc58
8780543e:	f640 018c 	movw	r1, #2188	; 0x88c
87805442:	f2c8 7080 	movt	r0, #34688	; 0x8780
87805446:	f7fb f86b 	bl	87800520 <vAssertCalled>
8780544a:	f104 0034 	add.w	r0, r4, #52	; 0x34
8780544e:	bd10      	pop	{r4, pc}

87805450 <xTaskIncrementTick>:
87805450:	e92d 4ff8 	stmdb	sp!, {r3, r4, r5, r6, r7, r8, r9, sl, fp, lr}
87805454:	f24d 7478 	movw	r4, #55160	; 0xd778
87805458:	f2c8 7480 	movt	r4, #34688	; 0x8780
8780545c:	f8d4 3124 	ldr.w	r3, [r4, #292]	; 0x124
87805460:	2b00      	cmp	r3, #0
87805462:	d173      	bne.n	8780554c <xTaskIncrementTick+0xfc>
87805464:	f8d4 710c 	ldr.w	r7, [r4, #268]	; 0x10c
87805468:	3701      	adds	r7, #1
8780546a:	f8c4 710c 	str.w	r7, [r4, #268]	; 0x10c
8780546e:	b99f      	cbnz	r7, 87805498 <xTaskIncrementTick+0x48>
87805470:	f8d4 30f8 	ldr.w	r3, [r4, #248]	; 0xf8
87805474:	681b      	ldr	r3, [r3, #0]
87805476:	2b00      	cmp	r3, #0
87805478:	d171      	bne.n	8780555e <xTaskIncrementTick+0x10e>
8780547a:	f8d4 30f8 	ldr.w	r3, [r4, #248]	; 0xf8
8780547e:	f8d4 20fc 	ldr.w	r2, [r4, #252]	; 0xfc
87805482:	f8c4 20f8 	str.w	r2, [r4, #248]	; 0xf8
87805486:	f8c4 30fc 	str.w	r3, [r4, #252]	; 0xfc
8780548a:	f8d4 312c 	ldr.w	r3, [r4, #300]	; 0x12c
8780548e:	3301      	adds	r3, #1
87805490:	f8c4 312c 	str.w	r3, [r4, #300]	; 0x12c
87805494:	f7ff fbc8 	bl	87804c28 <prvResetNextTaskUnblockTime>
87805498:	f8d4 3110 	ldr.w	r3, [r4, #272]	; 0x110
8780549c:	429f      	cmp	r7, r3
8780549e:	bf38      	it	cc
878054a0:	2600      	movcc	r6, #0
878054a2:	d33e      	bcc.n	87805522 <xTaskIncrementTick+0xd2>
878054a4:	f24d 7878 	movw	r8, #55160	; 0xd778
878054a8:	2600      	movs	r6, #0
878054aa:	f2c8 7880 	movt	r8, #34688	; 0x8780
878054ae:	f04f 0a01 	mov.w	sl, #1
878054b2:	f108 0908 	add.w	r9, r8, #8
878054b6:	e027      	b.n	87805508 <xTaskIncrementTick+0xb8>
878054b8:	f8d8 20f8 	ldr.w	r2, [r8, #248]	; 0xf8
878054bc:	68d2      	ldr	r2, [r2, #12]
878054be:	68d5      	ldr	r5, [r2, #12]
878054c0:	686a      	ldr	r2, [r5, #4]
878054c2:	f105 0b04 	add.w	fp, r5, #4
878054c6:	4658      	mov	r0, fp
878054c8:	4297      	cmp	r7, r2
878054ca:	d328      	bcc.n	8780551e <xTaskIncrementTick+0xce>
878054cc:	f7ff f8aa 	bl	87804624 <uxListRemove>
878054d0:	6aab      	ldr	r3, [r5, #40]	; 0x28
878054d2:	f105 0018 	add.w	r0, r5, #24
878054d6:	b10b      	cbz	r3, 878054dc <xTaskIncrementTick+0x8c>
878054d8:	f7ff f8a4 	bl	87804624 <uxListRemove>
878054dc:	6ae8      	ldr	r0, [r5, #44]	; 0x2c
878054de:	4659      	mov	r1, fp
878054e0:	f8d4 2108 	ldr.w	r2, [r4, #264]	; 0x108
878054e4:	0103      	lsls	r3, r0, #4
878054e6:	fa0a fe00 	lsl.w	lr, sl, r0
878054ea:	eb03 0080 	add.w	r0, r3, r0, lsl #2
878054ee:	ea4e 0302 	orr.w	r3, lr, r2
878054f2:	f8c4 3108 	str.w	r3, [r4, #264]	; 0x108
878054f6:	4448      	add	r0, r9
878054f8:	f7ff f86a 	bl	878045d0 <vListInsertEnd>
878054fc:	6863      	ldr	r3, [r4, #4]
878054fe:	6aea      	ldr	r2, [r5, #44]	; 0x2c
87805500:	6adb      	ldr	r3, [r3, #44]	; 0x2c
87805502:	429a      	cmp	r2, r3
87805504:	bf28      	it	cs
87805506:	2601      	movcs	r6, #1
87805508:	f8d4 20f8 	ldr.w	r2, [r4, #248]	; 0xf8
8780550c:	f24d 7378 	movw	r3, #55160	; 0xd778
87805510:	f2c8 7380 	movt	r3, #34688	; 0x8780
87805514:	6812      	ldr	r2, [r2, #0]
87805516:	2a00      	cmp	r2, #0
87805518:	d1ce      	bne.n	878054b8 <xTaskIncrementTick+0x68>
8780551a:	f04f 32ff 	mov.w	r2, #4294967295	; 0xffffffff
8780551e:	f8c3 2110 	str.w	r2, [r3, #272]	; 0x110
87805522:	6863      	ldr	r3, [r4, #4]
87805524:	f8d4 1130 	ldr.w	r1, [r4, #304]	; 0x130
87805528:	6ada      	ldr	r2, [r3, #44]	; 0x2c
8780552a:	0113      	lsls	r3, r2, #4
8780552c:	eb03 0382 	add.w	r3, r3, r2, lsl #2
87805530:	4423      	add	r3, r4
87805532:	689b      	ldr	r3, [r3, #8]
87805534:	2b02      	cmp	r3, #2
87805536:	bf28      	it	cs
87805538:	2601      	movcs	r6, #1
8780553a:	b169      	cbz	r1, 87805558 <xTaskIncrementTick+0x108>
8780553c:	f8d4 3114 	ldr.w	r3, [r4, #276]	; 0x114
87805540:	2b00      	cmp	r3, #0
87805542:	bf18      	it	ne
87805544:	2601      	movne	r6, #1
87805546:	4630      	mov	r0, r6
87805548:	e8bd 8ff8 	ldmia.w	sp!, {r3, r4, r5, r6, r7, r8, r9, sl, fp, pc}
8780554c:	f8d4 3130 	ldr.w	r3, [r4, #304]	; 0x130
87805550:	2600      	movs	r6, #0
87805552:	3301      	adds	r3, #1
87805554:	f8c4 3130 	str.w	r3, [r4, #304]	; 0x130
87805558:	f7fa fff4 	bl	87800544 <vApplicationTickHook>
8780555c:	e7ee      	b.n	8780553c <xTaskIncrementTick+0xec>
8780555e:	f64b 4058 	movw	r0, #48216	; 0xbc58
87805562:	f640 11d9 	movw	r1, #2521	; 0x9d9
87805566:	f2c8 7080 	movt	r0, #34688	; 0x8780
8780556a:	f7fa ffd9 	bl	87800520 <vAssertCalled>
8780556e:	e784      	b.n	8780547a <xTaskIncrementTick+0x2a>

87805570 <xTaskResumeAll>:
87805570:	e92d 43f8 	stmdb	sp!, {r3, r4, r5, r6, r7, r8, r9, lr}
87805574:	f24d 7878 	movw	r8, #55160	; 0xd778
87805578:	f2c8 7880 	movt	r8, #34688	; 0x8780
8780557c:	f8d8 3124 	ldr.w	r3, [r8, #292]	; 0x124
87805580:	2b00      	cmp	r3, #0
87805582:	d05a      	beq.n	8780563a <xTaskResumeAll+0xca>
87805584:	f001 fd94 	bl	878070b0 <vPortEnterCritical>
87805588:	f8d8 3124 	ldr.w	r3, [r8, #292]	; 0x124
8780558c:	f24d 7578 	movw	r5, #55160	; 0xd778
87805590:	f2c8 7580 	movt	r5, #34688	; 0x8780
87805594:	3b01      	subs	r3, #1
87805596:	f8c8 3124 	str.w	r3, [r8, #292]	; 0x124
8780559a:	f8d8 4124 	ldr.w	r4, [r8, #292]	; 0x124
8780559e:	b924      	cbnz	r4, 878055aa <xTaskResumeAll+0x3a>
878055a0:	682b      	ldr	r3, [r5, #0]
878055a2:	f105 0708 	add.w	r7, r5, #8
878055a6:	2601      	movs	r6, #1
878055a8:	bb43      	cbnz	r3, 878055fc <xTaskResumeAll+0x8c>
878055aa:	2400      	movs	r4, #0
878055ac:	f001 fcee 	bl	87806f8c <vPortExitCritical>
878055b0:	4620      	mov	r0, r4
878055b2:	e8bd 83f8 	ldmia.w	sp!, {r3, r4, r5, r6, r7, r8, r9, pc}
878055b6:	f8d5 30c8 	ldr.w	r3, [r5, #200]	; 0xc8
878055ba:	68dc      	ldr	r4, [r3, #12]
878055bc:	f104 0904 	add.w	r9, r4, #4
878055c0:	f104 0018 	add.w	r0, r4, #24
878055c4:	f7ff f82e 	bl	87804624 <uxListRemove>
878055c8:	4648      	mov	r0, r9
878055ca:	f7ff f82b 	bl	87804624 <uxListRemove>
878055ce:	6ae0      	ldr	r0, [r4, #44]	; 0x2c
878055d0:	4649      	mov	r1, r9
878055d2:	f8d5 2108 	ldr.w	r2, [r5, #264]	; 0x108
878055d6:	0103      	lsls	r3, r0, #4
878055d8:	fa06 fe00 	lsl.w	lr, r6, r0
878055dc:	eb03 0080 	add.w	r0, r3, r0, lsl #2
878055e0:	ea4e 0302 	orr.w	r3, lr, r2
878055e4:	f8c5 3108 	str.w	r3, [r5, #264]	; 0x108
878055e8:	4438      	add	r0, r7
878055ea:	f7fe fff1 	bl	878045d0 <vListInsertEnd>
878055ee:	686b      	ldr	r3, [r5, #4]
878055f0:	6ae2      	ldr	r2, [r4, #44]	; 0x2c
878055f2:	6adb      	ldr	r3, [r3, #44]	; 0x2c
878055f4:	429a      	cmp	r2, r3
878055f6:	bf28      	it	cs
878055f8:	f8c5 6114 	strcs.w	r6, [r5, #276]	; 0x114
878055fc:	f8d8 30bc 	ldr.w	r3, [r8, #188]	; 0xbc
87805600:	2b00      	cmp	r3, #0
87805602:	d1d8      	bne.n	878055b6 <xTaskResumeAll+0x46>
87805604:	b10c      	cbz	r4, 8780560a <xTaskResumeAll+0x9a>
87805606:	f7ff fb0f 	bl	87804c28 <prvResetNextTaskUnblockTime>
8780560a:	f8d8 4130 	ldr.w	r4, [r8, #304]	; 0x130
8780560e:	b14c      	cbz	r4, 87805624 <xTaskResumeAll+0xb4>
87805610:	2501      	movs	r5, #1
87805612:	f7ff ff1d 	bl	87805450 <xTaskIncrementTick>
87805616:	b108      	cbz	r0, 8780561c <xTaskResumeAll+0xac>
87805618:	f8c8 5114 	str.w	r5, [r8, #276]	; 0x114
8780561c:	3c01      	subs	r4, #1
8780561e:	d1f8      	bne.n	87805612 <xTaskResumeAll+0xa2>
87805620:	f8c8 4130 	str.w	r4, [r8, #304]	; 0x130
87805624:	f8d8 3114 	ldr.w	r3, [r8, #276]	; 0x114
87805628:	2b00      	cmp	r3, #0
8780562a:	d0be      	beq.n	878055aa <xTaskResumeAll+0x3a>
8780562c:	df00      	svc	0
8780562e:	2401      	movs	r4, #1
87805630:	f001 fcac 	bl	87806f8c <vPortExitCritical>
87805634:	4620      	mov	r0, r4
87805636:	e8bd 83f8 	ldmia.w	sp!, {r3, r4, r5, r6, r7, r8, r9, pc}
8780563a:	f64b 4058 	movw	r0, #48216	; 0xbc58
8780563e:	f44f 61fd 	mov.w	r1, #2024	; 0x7e8
87805642:	f2c8 7080 	movt	r0, #34688	; 0x8780
87805646:	f7fa ff6b 	bl	87800520 <vAssertCalled>
8780564a:	e79b      	b.n	87805584 <xTaskResumeAll+0x14>

8780564c <vTaskDelayUntil>:
8780564c:	b570      	push	{r4, r5, r6, lr}
8780564e:	460d      	mov	r5, r1
87805650:	4606      	mov	r6, r0
87805652:	2800      	cmp	r0, #0
87805654:	d049      	beq.n	878056ea <vTaskDelayUntil+0x9e>
87805656:	2d00      	cmp	r5, #0
87805658:	d03e      	beq.n	878056d8 <vTaskDelayUntil+0x8c>
8780565a:	f24d 7478 	movw	r4, #55160	; 0xd778
8780565e:	f2c8 7480 	movt	r4, #34688	; 0x8780
87805662:	f8d4 3124 	ldr.w	r3, [r4, #292]	; 0x124
87805666:	2b00      	cmp	r3, #0
87805668:	d12d      	bne.n	878056c6 <vTaskDelayUntil+0x7a>
8780566a:	f8d4 2124 	ldr.w	r2, [r4, #292]	; 0x124
8780566e:	6833      	ldr	r3, [r6, #0]
87805670:	3201      	adds	r2, #1
87805672:	f8c4 2124 	str.w	r2, [r4, #292]	; 0x124
87805676:	1959      	adds	r1, r3, r5
87805678:	f8d4 010c 	ldr.w	r0, [r4, #268]	; 0x10c
8780567c:	4298      	cmp	r0, r3
8780567e:	d20d      	bcs.n	8780569c <vTaskDelayUntil+0x50>
87805680:	428b      	cmp	r3, r1
87805682:	bf94      	ite	ls
87805684:	2300      	movls	r3, #0
87805686:	2301      	movhi	r3, #1
87805688:	4288      	cmp	r0, r1
8780568a:	bf28      	it	cs
8780568c:	2300      	movcs	r3, #0
8780568e:	b983      	cbnz	r3, 878056b2 <vTaskDelayUntil+0x66>
87805690:	6031      	str	r1, [r6, #0]
87805692:	f7ff ff6d 	bl	87805570 <xTaskResumeAll>
87805696:	b9a8      	cbnz	r0, 878056c4 <vTaskDelayUntil+0x78>
87805698:	df00      	svc	0
8780569a:	bd70      	pop	{r4, r5, r6, pc}
8780569c:	4288      	cmp	r0, r1
8780569e:	bf2c      	ite	cs
878056a0:	2200      	movcs	r2, #0
878056a2:	2201      	movcc	r2, #1
878056a4:	428b      	cmp	r3, r1
878056a6:	bf94      	ite	ls
878056a8:	4613      	movls	r3, r2
878056aa:	f042 0301 	orrhi.w	r3, r2, #1
878056ae:	2b00      	cmp	r3, #0
878056b0:	d0ee      	beq.n	87805690 <vTaskDelayUntil+0x44>
878056b2:	1a08      	subs	r0, r1, r0
878056b4:	6031      	str	r1, [r6, #0]
878056b6:	2100      	movs	r1, #0
878056b8:	f7ff fa50 	bl	87804b5c <prvAddCurrentTaskToDelayedList>
878056bc:	f7ff ff58 	bl	87805570 <xTaskResumeAll>
878056c0:	2800      	cmp	r0, #0
878056c2:	d0e9      	beq.n	87805698 <vTaskDelayUntil+0x4c>
878056c4:	bd70      	pop	{r4, r5, r6, pc}
878056c6:	f64b 4058 	movw	r0, #48216	; 0xbc58
878056ca:	f240 417b 	movw	r1, #1147	; 0x47b
878056ce:	f2c8 7080 	movt	r0, #34688	; 0x8780
878056d2:	f7fa ff25 	bl	87800520 <vAssertCalled>
878056d6:	e7c8      	b.n	8780566a <vTaskDelayUntil+0x1e>
878056d8:	f64b 4058 	movw	r0, #48216	; 0xbc58
878056dc:	f240 417a 	movw	r1, #1146	; 0x47a
878056e0:	f2c8 7080 	movt	r0, #34688	; 0x8780
878056e4:	f7fa ff1c 	bl	87800520 <vAssertCalled>
878056e8:	e7b7      	b.n	8780565a <vTaskDelayUntil+0xe>
878056ea:	f64b 4058 	movw	r0, #48216	; 0xbc58
878056ee:	f240 4179 	movw	r1, #1145	; 0x479
878056f2:	f2c8 7080 	movt	r0, #34688	; 0x8780
878056f6:	f7fa ff13 	bl	87800520 <vAssertCalled>
878056fa:	e7ac      	b.n	87805656 <vTaskDelayUntil+0xa>

878056fc <vTaskDelay>:
878056fc:	b1a8      	cbz	r0, 8780572a <vTaskDelay+0x2e>
878056fe:	b538      	push	{r3, r4, r5, lr}
87805700:	f24d 7578 	movw	r5, #55160	; 0xd778
87805704:	f2c8 7580 	movt	r5, #34688	; 0x8780
87805708:	4604      	mov	r4, r0
8780570a:	f8d5 3124 	ldr.w	r3, [r5, #292]	; 0x124
8780570e:	b973      	cbnz	r3, 8780572e <vTaskDelay+0x32>
87805710:	f8d5 3124 	ldr.w	r3, [r5, #292]	; 0x124
87805714:	4620      	mov	r0, r4
87805716:	2100      	movs	r1, #0
87805718:	3301      	adds	r3, #1
8780571a:	f8c5 3124 	str.w	r3, [r5, #292]	; 0x124
8780571e:	f7ff fa1d 	bl	87804b5c <prvAddCurrentTaskToDelayedList>
87805722:	f7ff ff25 	bl	87805570 <xTaskResumeAll>
87805726:	b158      	cbz	r0, 87805740 <vTaskDelay+0x44>
87805728:	bd38      	pop	{r3, r4, r5, pc}
8780572a:	df00      	svc	0
8780572c:	4770      	bx	lr
8780572e:	f64b 4058 	movw	r0, #48216	; 0xbc58
87805732:	f240 41cf 	movw	r1, #1231	; 0x4cf
87805736:	f2c8 7080 	movt	r0, #34688	; 0x8780
8780573a:	f7fa fef1 	bl	87800520 <vAssertCalled>
8780573e:	e7e7      	b.n	87805710 <vTaskDelay+0x14>
87805740:	df00      	svc	0
87805742:	bd38      	pop	{r3, r4, r5, pc}

87805744 <prvIdleTask>:
87805744:	f24d 7678 	movw	r6, #55160	; 0xd778
87805748:	b580      	push	{r7, lr}
8780574a:	f2c8 7680 	movt	r6, #34688	; 0x8780
8780574e:	4634      	mov	r4, r6
87805750:	4637      	mov	r7, r6
87805752:	46b0      	mov	r8, r6
87805754:	e009      	b.n	8780576a <prvIdleTask+0x26>
87805756:	f8d4 3124 	ldr.w	r3, [r4, #292]	; 0x124
8780575a:	f8d4 50d0 	ldr.w	r5, [r4, #208]	; 0xd0
8780575e:	3301      	adds	r3, #1
87805760:	f8c4 3124 	str.w	r3, [r4, #292]	; 0x124
87805764:	f7ff ff04 	bl	87805570 <xTaskResumeAll>
87805768:	b95d      	cbnz	r5, 87805782 <prvIdleTask+0x3e>
8780576a:	f8d6 3120 	ldr.w	r3, [r6, #288]	; 0x120
8780576e:	2b00      	cmp	r3, #0
87805770:	d1f1      	bne.n	87805756 <prvIdleTask+0x12>
87805772:	f8d8 3008 	ldr.w	r3, [r8, #8]
87805776:	2b01      	cmp	r3, #1
87805778:	d900      	bls.n	8780577c <prvIdleTask+0x38>
8780577a:	df00      	svc	0
8780577c:	f7fa fec2 	bl	87800504 <vApplicationIdleHook>
87805780:	e7f3      	b.n	8780576a <prvIdleTask+0x26>
87805782:	f001 fc95 	bl	878070b0 <vPortEnterCritical>
87805786:	f8d7 30dc 	ldr.w	r3, [r7, #220]	; 0xdc
8780578a:	68dd      	ldr	r5, [r3, #12]
8780578c:	1d28      	adds	r0, r5, #4
8780578e:	f7fe ff49 	bl	87804624 <uxListRemove>
87805792:	683b      	ldr	r3, [r7, #0]
87805794:	3b01      	subs	r3, #1
87805796:	603b      	str	r3, [r7, #0]
87805798:	f8d7 3120 	ldr.w	r3, [r7, #288]	; 0x120
8780579c:	3b01      	subs	r3, #1
8780579e:	f8c7 3120 	str.w	r3, [r7, #288]	; 0x120
878057a2:	f001 fbf3 	bl	87806f8c <vPortExitCritical>
878057a6:	4628      	mov	r0, r5
878057a8:	f7ff faba 	bl	87804d20 <prvDeleteTCB>
878057ac:	e7dd      	b.n	8780576a <prvIdleTask+0x26>
878057ae:	bf00      	nop

878057b0 <xTaskGetHandle>:
878057b0:	e92d 41f0 	stmdb	sp!, {r4, r5, r6, r7, r8, lr}
878057b4:	4607      	mov	r7, r0
878057b6:	f7fb f82f 	bl	87800818 <strlen>
878057ba:	2809      	cmp	r0, #9
878057bc:	d839      	bhi.n	87805832 <xTaskGetHandle+0x82>
878057be:	f24d 7678 	movw	r6, #55160	; 0xd778
878057c2:	f2c8 7680 	movt	r6, #34688	; 0x8780
878057c6:	f8d6 3124 	ldr.w	r3, [r6, #292]	; 0x124
878057ca:	f106 0480 	add.w	r4, r6, #128	; 0x80
878057ce:	f1a6 080c 	sub.w	r8, r6, #12
878057d2:	3301      	adds	r3, #1
878057d4:	f8c6 3124 	str.w	r3, [r6, #292]	; 0x124
878057d8:	4620      	mov	r0, r4
878057da:	4639      	mov	r1, r7
878057dc:	f7ff f920 	bl	87804a20 <prvSearchForNameWithinSingleList>
878057e0:	3c14      	subs	r4, #20
878057e2:	4605      	mov	r5, r0
878057e4:	bb00      	cbnz	r0, 87805828 <xTaskGetHandle+0x78>
878057e6:	4544      	cmp	r4, r8
878057e8:	d1f6      	bne.n	878057d8 <xTaskGetHandle+0x28>
878057ea:	f8d6 00f8 	ldr.w	r0, [r6, #248]	; 0xf8
878057ee:	4639      	mov	r1, r7
878057f0:	f24d 7478 	movw	r4, #55160	; 0xd778
878057f4:	f7ff f914 	bl	87804a20 <prvSearchForNameWithinSingleList>
878057f8:	f2c8 7480 	movt	r4, #34688	; 0x8780
878057fc:	4605      	mov	r5, r0
878057fe:	b998      	cbnz	r0, 87805828 <xTaskGetHandle+0x78>
87805800:	f8d4 00fc 	ldr.w	r0, [r4, #252]	; 0xfc
87805804:	4639      	mov	r1, r7
87805806:	f7ff f90b 	bl	87804a20 <prvSearchForNameWithinSingleList>
8780580a:	4605      	mov	r5, r0
8780580c:	b960      	cbnz	r0, 87805828 <xTaskGetHandle+0x78>
8780580e:	4639      	mov	r1, r7
87805810:	f104 00e4 	add.w	r0, r4, #228	; 0xe4
87805814:	f7ff f904 	bl	87804a20 <prvSearchForNameWithinSingleList>
87805818:	4605      	mov	r5, r0
8780581a:	b928      	cbnz	r0, 87805828 <xTaskGetHandle+0x78>
8780581c:	4639      	mov	r1, r7
8780581e:	f104 00d0 	add.w	r0, r4, #208	; 0xd0
87805822:	f7ff f8fd 	bl	87804a20 <prvSearchForNameWithinSingleList>
87805826:	4605      	mov	r5, r0
87805828:	f7ff fea2 	bl	87805570 <xTaskResumeAll>
8780582c:	4628      	mov	r0, r5
8780582e:	e8bd 81f0 	ldmia.w	sp!, {r4, r5, r6, r7, r8, pc}
87805832:	f64b 4058 	movw	r0, #48216	; 0xbc58
87805836:	f640 01d6 	movw	r1, #2262	; 0x8d6
8780583a:	f2c8 7080 	movt	r0, #34688	; 0x8780
8780583e:	f7fa fe6f 	bl	87800520 <vAssertCalled>
87805842:	e7bc      	b.n	878057be <xTaskGetHandle+0xe>

87805844 <xTaskAbortDelay>:
87805844:	e92d 43f8 	stmdb	sp!, {r3, r4, r5, r6, r7, r8, r9, lr}
87805848:	4605      	mov	r5, r0
8780584a:	2800      	cmp	r0, #0
8780584c:	d048      	beq.n	878058e0 <xTaskAbortDelay+0x9c>
8780584e:	f24d 7478 	movw	r4, #55160	; 0xd778
87805852:	4628      	mov	r0, r5
87805854:	f2c8 7480 	movt	r4, #34688	; 0x8780
87805858:	f8d4 3124 	ldr.w	r3, [r4, #292]	; 0x124
8780585c:	3301      	adds	r3, #1
8780585e:	f8c4 3124 	str.w	r3, [r4, #292]	; 0x124
87805862:	f7ff fb97 	bl	87804f94 <eTaskGetState>
87805866:	2802      	cmp	r0, #2
87805868:	d004      	beq.n	87805874 <xTaskAbortDelay+0x30>
8780586a:	f7ff fe81 	bl	87805570 <xTaskResumeAll>
8780586e:	2000      	movs	r0, #0
87805870:	e8bd 83f8 	ldmia.w	sp!, {r3, r4, r5, r6, r7, r8, r9, pc}
87805874:	f105 0804 	add.w	r8, r5, #4
87805878:	4640      	mov	r0, r8
8780587a:	f7fe fed3 	bl	87804624 <uxListRemove>
8780587e:	f001 fc17 	bl	878070b0 <vPortEnterCritical>
87805882:	6aab      	ldr	r3, [r5, #40]	; 0x28
87805884:	b133      	cbz	r3, 87805894 <xTaskAbortDelay+0x50>
87805886:	f105 0018 	add.w	r0, r5, #24
8780588a:	f7fe fecb 	bl	87804624 <uxListRemove>
8780588e:	2301      	movs	r3, #1
87805890:	f885 305a 	strb.w	r3, [r5, #90]	; 0x5a
87805894:	f001 fb7a 	bl	87806f8c <vPortExitCritical>
87805898:	6aef      	ldr	r7, [r5, #44]	; 0x2c
8780589a:	f04f 0901 	mov.w	r9, #1
8780589e:	f8d4 2108 	ldr.w	r2, [r4, #264]	; 0x108
878058a2:	f24d 7678 	movw	r6, #55160	; 0xd778
878058a6:	f2c8 7680 	movt	r6, #34688	; 0x8780
878058aa:	4641      	mov	r1, r8
878058ac:	f106 0008 	add.w	r0, r6, #8
878058b0:	013b      	lsls	r3, r7, #4
878058b2:	fa09 fe07 	lsl.w	lr, r9, r7
878058b6:	eb03 0387 	add.w	r3, r3, r7, lsl #2
878058ba:	ea4e 0202 	orr.w	r2, lr, r2
878058be:	f8c4 2108 	str.w	r2, [r4, #264]	; 0x108
878058c2:	4418      	add	r0, r3
878058c4:	f7fe fe84 	bl	878045d0 <vListInsertEnd>
878058c8:	6863      	ldr	r3, [r4, #4]
878058ca:	6aea      	ldr	r2, [r5, #44]	; 0x2c
878058cc:	6adb      	ldr	r3, [r3, #44]	; 0x2c
878058ce:	429a      	cmp	r2, r3
878058d0:	bf88      	it	hi
878058d2:	f8c6 9114 	strhi.w	r9, [r6, #276]	; 0x114
878058d6:	f7ff fe4b 	bl	87805570 <xTaskResumeAll>
878058da:	2000      	movs	r0, #0
878058dc:	e8bd 83f8 	ldmia.w	sp!, {r3, r4, r5, r6, r7, r8, r9, pc}
878058e0:	f64b 4058 	movw	r0, #48216	; 0xbc58
878058e4:	f44f 6118 	mov.w	r1, #2432	; 0x980
878058e8:	f2c8 7080 	movt	r0, #34688	; 0x8780
878058ec:	f7fa fe18 	bl	87800520 <vAssertCalled>
878058f0:	e7ad      	b.n	8780584e <xTaskAbortDelay+0xa>
878058f2:	bf00      	nop

878058f4 <vTaskSwitchContext>:
878058f4:	f24d 7378 	movw	r3, #55160	; 0xd778
878058f8:	f2c8 7380 	movt	r3, #34688	; 0x8780
878058fc:	f8d3 2124 	ldr.w	r2, [r3, #292]	; 0x124
87805900:	b90a      	cbnz	r2, 87805906 <vTaskSwitchContext+0x12>
87805902:	f7ff ba29 	b.w	87804d58 <vTaskSwitchContext.part.5>
87805906:	2201      	movs	r2, #1
87805908:	f8c3 2114 	str.w	r2, [r3, #276]	; 0x114
8780590c:	4770      	bx	lr
8780590e:	bf00      	nop

87805910 <vTaskPlaceOnEventList>:
87805910:	b538      	push	{r3, r4, r5, lr}
87805912:	460d      	mov	r5, r1
87805914:	4604      	mov	r4, r0
87805916:	b170      	cbz	r0, 87805936 <vTaskPlaceOnEventList+0x26>
87805918:	f24d 7378 	movw	r3, #55160	; 0xd778
8780591c:	4620      	mov	r0, r4
8780591e:	f2c8 7380 	movt	r3, #34688	; 0x8780
87805922:	6859      	ldr	r1, [r3, #4]
87805924:	3118      	adds	r1, #24
87805926:	f7fe fe63 	bl	878045f0 <vListInsert>
8780592a:	4628      	mov	r0, r5
8780592c:	2101      	movs	r1, #1
8780592e:	e8bd 4038 	ldmia.w	sp!, {r3, r4, r5, lr}
87805932:	f7ff b913 	b.w	87804b5c <prvAddCurrentTaskToDelayedList>
87805936:	f64b 4058 	movw	r0, #48216	; 0xbc58
8780593a:	f640 3106 	movw	r1, #2822	; 0xb06
8780593e:	f2c8 7080 	movt	r0, #34688	; 0x8780
87805942:	f7fa fded 	bl	87800520 <vAssertCalled>
87805946:	e7e7      	b.n	87805918 <vTaskPlaceOnEventList+0x8>

87805948 <vTaskPlaceOnUnorderedEventList>:
87805948:	b5f8      	push	{r3, r4, r5, r6, r7, lr}
8780594a:	460d      	mov	r5, r1
8780594c:	4617      	mov	r7, r2
8780594e:	4606      	mov	r6, r0
87805950:	b1e8      	cbz	r0, 8780598e <vTaskPlaceOnUnorderedEventList+0x46>
87805952:	f24d 7478 	movw	r4, #55160	; 0xd778
87805956:	f2c8 7480 	movt	r4, #34688	; 0x8780
8780595a:	f8d4 3124 	ldr.w	r3, [r4, #292]	; 0x124
8780595e:	b93b      	cbnz	r3, 87805970 <vTaskPlaceOnUnorderedEventList+0x28>
87805960:	f64b 4058 	movw	r0, #48216	; 0xbc58
87805964:	f640 311b 	movw	r1, #2843	; 0xb1b
87805968:	f2c8 7080 	movt	r0, #34688	; 0x8780
8780596c:	f7fa fdd8 	bl	87800520 <vAssertCalled>
87805970:	6863      	ldr	r3, [r4, #4]
87805972:	f045 4500 	orr.w	r5, r5, #2147483648	; 0x80000000
87805976:	6861      	ldr	r1, [r4, #4]
87805978:	4630      	mov	r0, r6
8780597a:	619d      	str	r5, [r3, #24]
8780597c:	3118      	adds	r1, #24
8780597e:	f7fe fe27 	bl	878045d0 <vListInsertEnd>
87805982:	4638      	mov	r0, r7
87805984:	2101      	movs	r1, #1
87805986:	e8bd 40f8 	ldmia.w	sp!, {r3, r4, r5, r6, r7, lr}
8780598a:	f7ff b8e7 	b.w	87804b5c <prvAddCurrentTaskToDelayedList>
8780598e:	f64b 4058 	movw	r0, #48216	; 0xbc58
87805992:	f640 3117 	movw	r1, #2839	; 0xb17
87805996:	f2c8 7080 	movt	r0, #34688	; 0x8780
8780599a:	f7fa fdc1 	bl	87800520 <vAssertCalled>
8780599e:	e7d8      	b.n	87805952 <vTaskPlaceOnUnorderedEventList+0xa>

878059a0 <vTaskPlaceOnEventListRestricted>:
878059a0:	b570      	push	{r4, r5, r6, lr}
878059a2:	460e      	mov	r6, r1
878059a4:	4614      	mov	r4, r2
878059a6:	4605      	mov	r5, r0
878059a8:	b190      	cbz	r0, 878059d0 <vTaskPlaceOnEventListRestricted+0x30>
878059aa:	f24d 7378 	movw	r3, #55160	; 0xd778
878059ae:	4628      	mov	r0, r5
878059b0:	f2c8 7380 	movt	r3, #34688	; 0x8780
878059b4:	6859      	ldr	r1, [r3, #4]
878059b6:	3118      	adds	r1, #24
878059b8:	f7fe fe0a 	bl	878045d0 <vListInsertEnd>
878059bc:	2c00      	cmp	r4, #0
878059be:	4621      	mov	r1, r4
878059c0:	bf0c      	ite	eq
878059c2:	4630      	moveq	r0, r6
878059c4:	f04f 30ff 	movne.w	r0, #4294967295	; 0xffffffff
878059c8:	e8bd 4070 	ldmia.w	sp!, {r4, r5, r6, lr}
878059cc:	f7ff b8c6 	b.w	87804b5c <prvAddCurrentTaskToDelayedList>
878059d0:	f64b 4058 	movw	r0, #48216	; 0xbc58
878059d4:	f640 3131 	movw	r1, #2865	; 0xb31
878059d8:	f2c8 7080 	movt	r0, #34688	; 0x8780
878059dc:	f7fa fda0 	bl	87800520 <vAssertCalled>
878059e0:	e7e3      	b.n	878059aa <vTaskPlaceOnEventListRestricted+0xa>
878059e2:	bf00      	nop

878059e4 <xTaskRemoveFromEventList>:
878059e4:	68c3      	ldr	r3, [r0, #12]
878059e6:	e92d 41f0 	stmdb	sp!, {r4, r5, r6, r7, r8, lr}
878059ea:	68dd      	ldr	r5, [r3, #12]
878059ec:	b3b5      	cbz	r5, 87805a5c <xTaskRemoveFromEventList+0x78>
878059ee:	f105 0618 	add.w	r6, r5, #24
878059f2:	f24d 7478 	movw	r4, #55160	; 0xd778
878059f6:	4630      	mov	r0, r6
878059f8:	f2c8 7480 	movt	r4, #34688	; 0x8780
878059fc:	f7fe fe12 	bl	87804624 <uxListRemove>
87805a00:	f8d4 3124 	ldr.w	r3, [r4, #292]	; 0x124
87805a04:	bb23      	cbnz	r3, 87805a50 <xTaskRemoveFromEventList+0x6c>
87805a06:	f105 0804 	add.w	r8, r5, #4
87805a0a:	4640      	mov	r0, r8
87805a0c:	f7fe fe0a 	bl	87804624 <uxListRemove>
87805a10:	6aef      	ldr	r7, [r5, #44]	; 0x2c
87805a12:	2201      	movs	r2, #1
87805a14:	f8d4 6108 	ldr.w	r6, [r4, #264]	; 0x108
87805a18:	f104 0008 	add.w	r0, r4, #8
87805a1c:	4641      	mov	r1, r8
87805a1e:	013b      	lsls	r3, r7, #4
87805a20:	40ba      	lsls	r2, r7
87805a22:	eb03 0387 	add.w	r3, r3, r7, lsl #2
87805a26:	4332      	orrs	r2, r6
87805a28:	f8c4 2108 	str.w	r2, [r4, #264]	; 0x108
87805a2c:	4418      	add	r0, r3
87805a2e:	f7fe fdcf 	bl	878045d0 <vListInsertEnd>
87805a32:	6862      	ldr	r2, [r4, #4]
87805a34:	f24d 7378 	movw	r3, #55160	; 0xd778
87805a38:	6ae9      	ldr	r1, [r5, #44]	; 0x2c
87805a3a:	f2c8 7380 	movt	r3, #34688	; 0x8780
87805a3e:	6ad2      	ldr	r2, [r2, #44]	; 0x2c
87805a40:	4291      	cmp	r1, r2
87805a42:	bf8a      	itet	hi
87805a44:	2001      	movhi	r0, #1
87805a46:	2000      	movls	r0, #0
87805a48:	f8c3 0114 	strhi.w	r0, [r3, #276]	; 0x114
87805a4c:	e8bd 81f0 	ldmia.w	sp!, {r4, r5, r6, r7, r8, pc}
87805a50:	4631      	mov	r1, r6
87805a52:	f104 00bc 	add.w	r0, r4, #188	; 0xbc
87805a56:	f7fe fdbb 	bl	878045d0 <vListInsertEnd>
87805a5a:	e7ea      	b.n	87805a32 <xTaskRemoveFromEventList+0x4e>
87805a5c:	f64b 4058 	movw	r0, #48216	; 0xbc58
87805a60:	f640 3161 	movw	r1, #2913	; 0xb61
87805a64:	f2c8 7080 	movt	r0, #34688	; 0x8780
87805a68:	f7fa fd5a 	bl	87800520 <vAssertCalled>
87805a6c:	e7bf      	b.n	878059ee <xTaskRemoveFromEventList+0xa>
87805a6e:	bf00      	nop

87805a70 <xTaskRemoveFromUnorderedEventList>:
87805a70:	e92d 41f0 	stmdb	sp!, {r4, r5, r6, r7, r8, lr}
87805a74:	f24d 7478 	movw	r4, #55160	; 0xd778
87805a78:	f2c8 7480 	movt	r4, #34688	; 0x8780
87805a7c:	4605      	mov	r5, r0
87805a7e:	460f      	mov	r7, r1
87805a80:	f8d4 3124 	ldr.w	r3, [r4, #292]	; 0x124
87805a84:	b373      	cbz	r3, 87805ae4 <xTaskRemoveFromUnorderedEventList+0x74>
87805a86:	68ee      	ldr	r6, [r5, #12]
87805a88:	f047 4700 	orr.w	r7, r7, #2147483648	; 0x80000000
87805a8c:	602f      	str	r7, [r5, #0]
87805a8e:	b396      	cbz	r6, 87805af6 <xTaskRemoveFromUnorderedEventList+0x86>
87805a90:	f106 0804 	add.w	r8, r6, #4
87805a94:	4628      	mov	r0, r5
87805a96:	f7fe fdc5 	bl	87804624 <uxListRemove>
87805a9a:	4640      	mov	r0, r8
87805a9c:	2501      	movs	r5, #1
87805a9e:	f7fe fdc1 	bl	87804624 <uxListRemove>
87805aa2:	6af0      	ldr	r0, [r6, #44]	; 0x2c
87805aa4:	f24d 7778 	movw	r7, #55160	; 0xd778
87805aa8:	f8d4 2108 	ldr.w	r2, [r4, #264]	; 0x108
87805aac:	f2c8 7780 	movt	r7, #34688	; 0x8780
87805ab0:	f107 0e08 	add.w	lr, r7, #8
87805ab4:	4641      	mov	r1, r8
87805ab6:	0103      	lsls	r3, r0, #4
87805ab8:	fa05 fc00 	lsl.w	ip, r5, r0
87805abc:	eb03 0080 	add.w	r0, r3, r0, lsl #2
87805ac0:	ea4c 0202 	orr.w	r2, ip, r2
87805ac4:	f8c4 2108 	str.w	r2, [r4, #264]	; 0x108
87805ac8:	4470      	add	r0, lr
87805aca:	f7fe fd81 	bl	878045d0 <vListInsertEnd>
87805ace:	6863      	ldr	r3, [r4, #4]
87805ad0:	6af2      	ldr	r2, [r6, #44]	; 0x2c
87805ad2:	6adb      	ldr	r3, [r3, #44]	; 0x2c
87805ad4:	429a      	cmp	r2, r3
87805ad6:	bf86      	itte	hi
87805ad8:	4628      	movhi	r0, r5
87805ada:	f8c7 5114 	strhi.w	r5, [r7, #276]	; 0x114
87805ade:	2000      	movls	r0, #0
87805ae0:	e8bd 81f0 	ldmia.w	sp!, {r4, r5, r6, r7, r8, pc}
87805ae4:	f64b 4058 	movw	r0, #48216	; 0xbc58
87805ae8:	f640 3199 	movw	r1, #2969	; 0xb99
87805aec:	f2c8 7080 	movt	r0, #34688	; 0x8780
87805af0:	f7fa fd16 	bl	87800520 <vAssertCalled>
87805af4:	e7c7      	b.n	87805a86 <xTaskRemoveFromUnorderedEventList+0x16>
87805af6:	f64b 4058 	movw	r0, #48216	; 0xbc58
87805afa:	f640 31a1 	movw	r1, #2977	; 0xba1
87805afe:	f2c8 7080 	movt	r0, #34688	; 0x8780
87805b02:	f7fa fd0d 	bl	87800520 <vAssertCalled>
87805b06:	e7c3      	b.n	87805a90 <xTaskRemoveFromUnorderedEventList+0x20>

87805b08 <vTaskSetTimeOutState>:
87805b08:	b510      	push	{r4, lr}
87805b0a:	4604      	mov	r4, r0
87805b0c:	b150      	cbz	r0, 87805b24 <vTaskSetTimeOutState+0x1c>
87805b0e:	f24d 7378 	movw	r3, #55160	; 0xd778
87805b12:	f2c8 7380 	movt	r3, #34688	; 0x8780
87805b16:	f8d3 212c 	ldr.w	r2, [r3, #300]	; 0x12c
87805b1a:	f8d3 310c 	ldr.w	r3, [r3, #268]	; 0x10c
87805b1e:	e884 000c 	stmia.w	r4, {r2, r3}
87805b22:	bd10      	pop	{r4, pc}
87805b24:	f64b 4058 	movw	r0, #48216	; 0xbc58
87805b28:	f640 31c1 	movw	r1, #3009	; 0xbc1
87805b2c:	f2c8 7080 	movt	r0, #34688	; 0x8780
87805b30:	f7fa fcf6 	bl	87800520 <vAssertCalled>
87805b34:	e7eb      	b.n	87805b0e <vTaskSetTimeOutState+0x6>
87805b36:	bf00      	nop

87805b38 <xTaskCheckForTimeOut>:
87805b38:	b538      	push	{r3, r4, r5, lr}
87805b3a:	460d      	mov	r5, r1
87805b3c:	4604      	mov	r4, r0
87805b3e:	b360      	cbz	r0, 87805b9a <xTaskCheckForTimeOut+0x62>
87805b40:	2d00      	cmp	r5, #0
87805b42:	d03e      	beq.n	87805bc2 <xTaskCheckForTimeOut+0x8a>
87805b44:	f001 fab4 	bl	878070b0 <vPortEnterCritical>
87805b48:	f24d 7378 	movw	r3, #55160	; 0xd778
87805b4c:	f2c8 7380 	movt	r3, #34688	; 0x8780
87805b50:	f8d3 110c 	ldr.w	r1, [r3, #268]	; 0x10c
87805b54:	685a      	ldr	r2, [r3, #4]
87805b56:	f892 005a 	ldrb.w	r0, [r2, #90]	; 0x5a
87805b5a:	b9a8      	cbnz	r0, 87805b88 <xTaskCheckForTimeOut+0x50>
87805b5c:	682a      	ldr	r2, [r5, #0]
87805b5e:	f1b2 3fff 	cmp.w	r2, #4294967295	; 0xffffffff
87805b62:	bf08      	it	eq
87805b64:	4604      	moveq	r4, r0
87805b66:	d00b      	beq.n	87805b80 <xTaskCheckForTimeOut+0x48>
87805b68:	f8d3 312c 	ldr.w	r3, [r3, #300]	; 0x12c
87805b6c:	6820      	ldr	r0, [r4, #0]
87805b6e:	4298      	cmp	r0, r3
87805b70:	6863      	ldr	r3, [r4, #4]
87805b72:	d001      	beq.n	87805b78 <xTaskCheckForTimeOut+0x40>
87805b74:	4299      	cmp	r1, r3
87805b76:	d202      	bcs.n	87805b7e <xTaskCheckForTimeOut+0x46>
87805b78:	1ac8      	subs	r0, r1, r3
87805b7a:	4282      	cmp	r2, r0
87805b7c:	d816      	bhi.n	87805bac <xTaskCheckForTimeOut+0x74>
87805b7e:	2401      	movs	r4, #1
87805b80:	f001 fa04 	bl	87806f8c <vPortExitCritical>
87805b84:	4620      	mov	r0, r4
87805b86:	bd38      	pop	{r3, r4, r5, pc}
87805b88:	685b      	ldr	r3, [r3, #4]
87805b8a:	2200      	movs	r2, #0
87805b8c:	2401      	movs	r4, #1
87805b8e:	f883 205a 	strb.w	r2, [r3, #90]	; 0x5a
87805b92:	f001 f9fb 	bl	87806f8c <vPortExitCritical>
87805b96:	4620      	mov	r0, r4
87805b98:	bd38      	pop	{r3, r4, r5, pc}
87805b9a:	f64b 4058 	movw	r0, #48216	; 0xbc58
87805b9e:	f640 31cb 	movw	r1, #3019	; 0xbcb
87805ba2:	f2c8 7080 	movt	r0, #34688	; 0x8780
87805ba6:	f7fa fcbb 	bl	87800520 <vAssertCalled>
87805baa:	e7c9      	b.n	87805b40 <xTaskCheckForTimeOut+0x8>
87805bac:	1a52      	subs	r2, r2, r1
87805bae:	4620      	mov	r0, r4
87805bb0:	441a      	add	r2, r3
87805bb2:	2400      	movs	r4, #0
87805bb4:	602a      	str	r2, [r5, #0]
87805bb6:	f7ff ffa7 	bl	87805b08 <vTaskSetTimeOutState>
87805bba:	f001 f9e7 	bl	87806f8c <vPortExitCritical>
87805bbe:	4620      	mov	r0, r4
87805bc0:	bd38      	pop	{r3, r4, r5, pc}
87805bc2:	f64b 4058 	movw	r0, #48216	; 0xbc58
87805bc6:	f640 31cc 	movw	r1, #3020	; 0xbcc
87805bca:	f2c8 7080 	movt	r0, #34688	; 0x8780
87805bce:	f7fa fca7 	bl	87800520 <vAssertCalled>
87805bd2:	e7b7      	b.n	87805b44 <xTaskCheckForTimeOut+0xc>

87805bd4 <vTaskMissedYield>:
87805bd4:	f24d 7378 	movw	r3, #55160	; 0xd778
87805bd8:	2201      	movs	r2, #1
87805bda:	f2c8 7380 	movt	r3, #34688	; 0x8780
87805bde:	f8c3 2114 	str.w	r2, [r3, #276]	; 0x114
87805be2:	4770      	bx	lr

87805be4 <uxTaskGetTaskNumber>:
87805be4:	b100      	cbz	r0, 87805be8 <uxTaskGetTaskNumber+0x4>
87805be6:	6c40      	ldr	r0, [r0, #68]	; 0x44
87805be8:	4770      	bx	lr
87805bea:	bf00      	nop

87805bec <vTaskSetTaskNumber>:
87805bec:	b100      	cbz	r0, 87805bf0 <vTaskSetTaskNumber+0x4>
87805bee:	6441      	str	r1, [r0, #68]	; 0x44
87805bf0:	4770      	bx	lr
87805bf2:	bf00      	nop

87805bf4 <vTaskGetInfo>:
87805bf4:	e92d 41f0 	stmdb	sp!, {r4, r5, r6, r7, r8, lr}
87805bf8:	460c      	mov	r4, r1
87805bfa:	4690      	mov	r8, r2
87805bfc:	461f      	mov	r7, r3
87805bfe:	4606      	mov	r6, r0
87805c00:	4605      	mov	r5, r0
87805c02:	2800      	cmp	r0, #0
87805c04:	d03f      	beq.n	87805c86 <vTaskGetInfo+0x92>
87805c06:	6aeb      	ldr	r3, [r5, #44]	; 0x2c
87805c08:	f105 0034 	add.w	r0, r5, #52	; 0x34
87805c0c:	6b29      	ldr	r1, [r5, #48]	; 0x30
87805c0e:	6c2a      	ldr	r2, [r5, #64]	; 0x40
87805c10:	6123      	str	r3, [r4, #16]
87805c12:	68e3      	ldr	r3, [r4, #12]
87805c14:	6025      	str	r5, [r4, #0]
87805c16:	61e1      	str	r1, [r4, #28]
87805c18:	2b03      	cmp	r3, #3
87805c1a:	60a2      	str	r2, [r4, #8]
87805c1c:	6060      	str	r0, [r4, #4]
87805c1e:	d01d      	beq.n	87805c5c <vTaskGetInfo+0x68>
87805c20:	6caa      	ldr	r2, [r5, #72]	; 0x48
87805c22:	2f05      	cmp	r7, #5
87805c24:	6d2b      	ldr	r3, [r5, #80]	; 0x50
87805c26:	bf18      	it	ne
87805c28:	60e7      	strne	r7, [r4, #12]
87805c2a:	6162      	str	r2, [r4, #20]
87805c2c:	61a3      	str	r3, [r4, #24]
87805c2e:	d025      	beq.n	87805c7c <vTaskGetInfo+0x88>
87805c30:	f1b8 0f00 	cmp.w	r8, #0
87805c34:	d00e      	beq.n	87805c54 <vTaskGetInfo+0x60>
87805c36:	6b29      	ldr	r1, [r5, #48]	; 0x30
87805c38:	780b      	ldrb	r3, [r1, #0]
87805c3a:	2ba5      	cmp	r3, #165	; 0xa5
87805c3c:	d129      	bne.n	87805c92 <vTaskGetInfo+0x9e>
87805c3e:	1c4b      	adds	r3, r1, #1
87805c40:	1a58      	subs	r0, r3, r1
87805c42:	f813 2b01 	ldrb.w	r2, [r3], #1
87805c46:	2aa5      	cmp	r2, #165	; 0xa5
87805c48:	d0fa      	beq.n	87805c40 <vTaskGetInfo+0x4c>
87805c4a:	f3c0 008f 	ubfx	r0, r0, #2, #16
87805c4e:	8420      	strh	r0, [r4, #32]
87805c50:	e8bd 81f0 	ldmia.w	sp!, {r4, r5, r6, r7, r8, pc}
87805c54:	f8a4 8020 	strh.w	r8, [r4, #32]
87805c58:	e8bd 81f0 	ldmia.w	sp!, {r4, r5, r6, r7, r8, pc}
87805c5c:	f24d 7378 	movw	r3, #55160	; 0xd778
87805c60:	6aa9      	ldr	r1, [r5, #40]	; 0x28
87805c62:	f2c8 7380 	movt	r3, #34688	; 0x8780
87805c66:	f8d3 2124 	ldr.w	r2, [r3, #292]	; 0x124
87805c6a:	3201      	adds	r2, #1
87805c6c:	f8c3 2124 	str.w	r2, [r3, #292]	; 0x124
87805c70:	b109      	cbz	r1, 87805c76 <vTaskGetInfo+0x82>
87805c72:	2302      	movs	r3, #2
87805c74:	60e3      	str	r3, [r4, #12]
87805c76:	f7ff fc7b 	bl	87805570 <xTaskResumeAll>
87805c7a:	e7d1      	b.n	87805c20 <vTaskGetInfo+0x2c>
87805c7c:	4630      	mov	r0, r6
87805c7e:	f7ff f989 	bl	87804f94 <eTaskGetState>
87805c82:	60e0      	str	r0, [r4, #12]
87805c84:	e7d4      	b.n	87805c30 <vTaskGetInfo+0x3c>
87805c86:	f24d 7378 	movw	r3, #55160	; 0xd778
87805c8a:	f2c8 7380 	movt	r3, #34688	; 0x8780
87805c8e:	685d      	ldr	r5, [r3, #4]
87805c90:	e7b9      	b.n	87805c06 <vTaskGetInfo+0x12>
87805c92:	2000      	movs	r0, #0
87805c94:	e7db      	b.n	87805c4e <vTaskGetInfo+0x5a>
87805c96:	bf00      	nop

87805c98 <prvListTasksWithinSingleList.part.6>:
87805c98:	684b      	ldr	r3, [r1, #4]
87805c9a:	e92d 47f0 	stmdb	sp!, {r4, r5, r6, r7, r8, r9, sl, lr}
87805c9e:	f101 0808 	add.w	r8, r1, #8
87805ca2:	460e      	mov	r6, r1
87805ca4:	4692      	mov	sl, r2
87805ca6:	4605      	mov	r5, r0
87805ca8:	2700      	movs	r7, #0
87805caa:	685b      	ldr	r3, [r3, #4]
87805cac:	4543      	cmp	r3, r8
87805cae:	604b      	str	r3, [r1, #4]
87805cb0:	bf08      	it	eq
87805cb2:	685b      	ldreq	r3, [r3, #4]
87805cb4:	f8d3 900c 	ldr.w	r9, [r3, #12]
87805cb8:	e000      	b.n	87805cbc <prvListTasksWithinSingleList.part.6+0x24>
87805cba:	6873      	ldr	r3, [r6, #4]
87805cbc:	685c      	ldr	r4, [r3, #4]
87805cbe:	4629      	mov	r1, r5
87805cc0:	2201      	movs	r2, #1
87805cc2:	4653      	mov	r3, sl
87805cc4:	4417      	add	r7, r2
87805cc6:	3524      	adds	r5, #36	; 0x24
87805cc8:	45a0      	cmp	r8, r4
87805cca:	6074      	str	r4, [r6, #4]
87805ccc:	bf04      	itt	eq
87805cce:	68f4      	ldreq	r4, [r6, #12]
87805cd0:	6074      	streq	r4, [r6, #4]
87805cd2:	68e4      	ldr	r4, [r4, #12]
87805cd4:	4620      	mov	r0, r4
87805cd6:	f7ff ff8d 	bl	87805bf4 <vTaskGetInfo>
87805cda:	45a1      	cmp	r9, r4
87805cdc:	d1ed      	bne.n	87805cba <prvListTasksWithinSingleList.part.6+0x22>
87805cde:	4638      	mov	r0, r7
87805ce0:	e8bd 87f0 	ldmia.w	sp!, {r4, r5, r6, r7, r8, r9, sl, pc}

87805ce4 <uxTaskGetSystemState>:
87805ce4:	e92d 43f8 	stmdb	sp!, {r3, r4, r5, r6, r7, r8, r9, lr}
87805ce8:	f24d 7678 	movw	r6, #55160	; 0xd778
87805cec:	f2c8 7680 	movt	r6, #34688	; 0x8780
87805cf0:	f8d6 3124 	ldr.w	r3, [r6, #292]	; 0x124
87805cf4:	3301      	adds	r3, #1
87805cf6:	f8c6 3124 	str.w	r3, [r6, #292]	; 0x124
87805cfa:	6833      	ldr	r3, [r6, #0]
87805cfc:	428b      	cmp	r3, r1
87805cfe:	bf88      	it	hi
87805d00:	2400      	movhi	r4, #0
87805d02:	d83b      	bhi.n	87805d7c <uxTaskGetSystemState+0x98>
87805d04:	4607      	mov	r7, r0
87805d06:	4690      	mov	r8, r2
87805d08:	f106 0480 	add.w	r4, r6, #128	; 0x80
87805d0c:	f1a6 090c 	sub.w	r9, r6, #12
87805d10:	2500      	movs	r5, #0
87805d12:	e003      	b.n	87805d1c <uxTaskGetSystemState+0x38>
87805d14:	3c14      	subs	r4, #20
87805d16:	4405      	add	r5, r0
87805d18:	454c      	cmp	r4, r9
87805d1a:	d00f      	beq.n	87805d3c <uxTaskGetSystemState+0x58>
87805d1c:	6823      	ldr	r3, [r4, #0]
87805d1e:	4618      	mov	r0, r3
87805d20:	2b00      	cmp	r3, #0
87805d22:	d0f7      	beq.n	87805d14 <uxTaskGetSystemState+0x30>
87805d24:	0168      	lsls	r0, r5, #5
87805d26:	4621      	mov	r1, r4
87805d28:	2201      	movs	r2, #1
87805d2a:	eb00 0085 	add.w	r0, r0, r5, lsl #2
87805d2e:	3c14      	subs	r4, #20
87805d30:	4438      	add	r0, r7
87805d32:	f7ff ffb1 	bl	87805c98 <prvListTasksWithinSingleList.part.6>
87805d36:	454c      	cmp	r4, r9
87805d38:	4405      	add	r5, r0
87805d3a:	d1ef      	bne.n	87805d1c <uxTaskGetSystemState+0x38>
87805d3c:	f8d6 10f8 	ldr.w	r1, [r6, #248]	; 0xf8
87805d40:	6808      	ldr	r0, [r1, #0]
87805d42:	bb48      	cbnz	r0, 87805d98 <uxTaskGetSystemState+0xb4>
87805d44:	f8d6 10fc 	ldr.w	r1, [r6, #252]	; 0xfc
87805d48:	4405      	add	r5, r0
87805d4a:	6808      	ldr	r0, [r1, #0]
87805d4c:	bb88      	cbnz	r0, 87805db2 <uxTaskGetSystemState+0xce>
87805d4e:	f8d6 40d0 	ldr.w	r4, [r6, #208]	; 0xd0
87805d52:	4405      	add	r5, r0
87805d54:	4620      	mov	r0, r4
87805d56:	2c00      	cmp	r4, #0
87805d58:	d138      	bne.n	87805dcc <uxTaskGetSystemState+0xe8>
87805d5a:	f8d6 30e4 	ldr.w	r3, [r6, #228]	; 0xe4
87805d5e:	4405      	add	r5, r0
87805d60:	4618      	mov	r0, r3
87805d62:	b983      	cbnz	r3, 87805d86 <uxTaskGetSystemState+0xa2>
87805d64:	1944      	adds	r4, r0, r5
87805d66:	f1b8 0f00 	cmp.w	r8, #0
87805d6a:	d007      	beq.n	87805d7c <uxTaskGetSystemState+0x98>
87805d6c:	f244 13b0 	movw	r3, #16816	; 0x41b0
87805d70:	f2c8 7382 	movt	r3, #34690	; 0x8782
87805d74:	e9d3 2300 	ldrd	r2, r3, [r3]
87805d78:	f8c8 2000 	str.w	r2, [r8]
87805d7c:	f7ff fbf8 	bl	87805570 <xTaskResumeAll>
87805d80:	4620      	mov	r0, r4
87805d82:	e8bd 83f8 	ldmia.w	sp!, {r3, r4, r5, r6, r7, r8, r9, pc}
87805d86:	0168      	lsls	r0, r5, #5
87805d88:	2203      	movs	r2, #3
87805d8a:	4918      	ldr	r1, [pc, #96]	; (87805dec <uxTaskGetSystemState+0x108>)
87805d8c:	eb00 0085 	add.w	r0, r0, r5, lsl #2
87805d90:	4438      	add	r0, r7
87805d92:	f7ff ff81 	bl	87805c98 <prvListTasksWithinSingleList.part.6>
87805d96:	e7e5      	b.n	87805d64 <uxTaskGetSystemState+0x80>
87805d98:	0168      	lsls	r0, r5, #5
87805d9a:	2202      	movs	r2, #2
87805d9c:	eb00 0085 	add.w	r0, r0, r5, lsl #2
87805da0:	4438      	add	r0, r7
87805da2:	f7ff ff79 	bl	87805c98 <prvListTasksWithinSingleList.part.6>
87805da6:	f8d6 10fc 	ldr.w	r1, [r6, #252]	; 0xfc
87805daa:	4405      	add	r5, r0
87805dac:	6808      	ldr	r0, [r1, #0]
87805dae:	2800      	cmp	r0, #0
87805db0:	d0cd      	beq.n	87805d4e <uxTaskGetSystemState+0x6a>
87805db2:	0168      	lsls	r0, r5, #5
87805db4:	2202      	movs	r2, #2
87805db6:	eb00 0085 	add.w	r0, r0, r5, lsl #2
87805dba:	4438      	add	r0, r7
87805dbc:	f7ff ff6c 	bl	87805c98 <prvListTasksWithinSingleList.part.6>
87805dc0:	f8d6 40d0 	ldr.w	r4, [r6, #208]	; 0xd0
87805dc4:	4405      	add	r5, r0
87805dc6:	4620      	mov	r0, r4
87805dc8:	2c00      	cmp	r4, #0
87805dca:	d0c6      	beq.n	87805d5a <uxTaskGetSystemState+0x76>
87805dcc:	0168      	lsls	r0, r5, #5
87805dce:	2204      	movs	r2, #4
87805dd0:	4907      	ldr	r1, [pc, #28]	; (87805df0 <uxTaskGetSystemState+0x10c>)
87805dd2:	eb00 0085 	add.w	r0, r0, r5, lsl #2
87805dd6:	4438      	add	r0, r7
87805dd8:	f7ff ff5e 	bl	87805c98 <prvListTasksWithinSingleList.part.6>
87805ddc:	f8d6 30e4 	ldr.w	r3, [r6, #228]	; 0xe4
87805de0:	4405      	add	r5, r0
87805de2:	4618      	mov	r0, r3
87805de4:	2b00      	cmp	r3, #0
87805de6:	d0bd      	beq.n	87805d64 <uxTaskGetSystemState+0x80>
87805de8:	e7cd      	b.n	87805d86 <uxTaskGetSystemState+0xa2>
87805dea:	bf00      	nop
87805dec:	8780d85c 			; <UNDEFINED> instruction: 0x8780d85c
87805df0:	8780d848 	strhi	sp, [r0, r8, asr #16]

87805df4 <xTaskGetCurrentTaskHandle>:
87805df4:	f24d 7378 	movw	r3, #55160	; 0xd778
87805df8:	f2c8 7380 	movt	r3, #34688	; 0x8780
87805dfc:	6858      	ldr	r0, [r3, #4]
87805dfe:	4770      	bx	lr

87805e00 <xTaskGetSchedulerState>:
87805e00:	f24d 7378 	movw	r3, #55160	; 0xd778
87805e04:	f2c8 7380 	movt	r3, #34688	; 0x8780
87805e08:	f8d3 2100 	ldr.w	r2, [r3, #256]	; 0x100
87805e0c:	b132      	cbz	r2, 87805e1c <xTaskGetSchedulerState+0x1c>
87805e0e:	f8d3 3124 	ldr.w	r3, [r3, #292]	; 0x124
87805e12:	2b00      	cmp	r3, #0
87805e14:	bf0c      	ite	eq
87805e16:	2002      	moveq	r0, #2
87805e18:	2000      	movne	r0, #0
87805e1a:	4770      	bx	lr
87805e1c:	2001      	movs	r0, #1
87805e1e:	4770      	bx	lr

87805e20 <vTaskPriorityInherit>:
87805e20:	2800      	cmp	r0, #0
87805e22:	d04e      	beq.n	87805ec2 <vTaskPriorityInherit+0xa2>
87805e24:	e92d 41f0 	stmdb	sp!, {r4, r5, r6, r7, r8, lr}
87805e28:	f24d 7478 	movw	r4, #55160	; 0xd778
87805e2c:	f2c8 7480 	movt	r4, #34688	; 0x8780
87805e30:	6ac2      	ldr	r2, [r0, #44]	; 0x2c
87805e32:	6863      	ldr	r3, [r4, #4]
87805e34:	6adb      	ldr	r3, [r3, #44]	; 0x2c
87805e36:	429a      	cmp	r2, r3
87805e38:	d217      	bcs.n	87805e6a <vTaskPriorityInherit+0x4a>
87805e3a:	6983      	ldr	r3, [r0, #24]
87805e3c:	f24d 7578 	movw	r5, #55160	; 0xd778
87805e40:	f2c8 7580 	movt	r5, #34688	; 0x8780
87805e44:	6941      	ldr	r1, [r0, #20]
87805e46:	f105 0608 	add.w	r6, r5, #8
87805e4a:	2b00      	cmp	r3, #0
87805e4c:	bfa1      	itttt	ge
87805e4e:	6863      	ldrge	r3, [r4, #4]
87805e50:	6adb      	ldrge	r3, [r3, #44]	; 0x2c
87805e52:	f1c3 0307 	rsbge	r3, r3, #7
87805e56:	6183      	strge	r3, [r0, #24]
87805e58:	0113      	lsls	r3, r2, #4
87805e5a:	eb03 0382 	add.w	r3, r3, r2, lsl #2
87805e5e:	4433      	add	r3, r6
87805e60:	4299      	cmp	r1, r3
87805e62:	d004      	beq.n	87805e6e <vTaskPriorityInherit+0x4e>
87805e64:	686b      	ldr	r3, [r5, #4]
87805e66:	6adb      	ldr	r3, [r3, #44]	; 0x2c
87805e68:	62c3      	str	r3, [r0, #44]	; 0x2c
87805e6a:	e8bd 81f0 	ldmia.w	sp!, {r4, r5, r6, r7, r8, pc}
87805e6e:	f100 0804 	add.w	r8, r0, #4
87805e72:	4607      	mov	r7, r0
87805e74:	4640      	mov	r0, r8
87805e76:	f7fe fbd5 	bl	87804624 <uxListRemove>
87805e7a:	b970      	cbnz	r0, 87805e9a <vTaskPriorityInherit+0x7a>
87805e7c:	6afa      	ldr	r2, [r7, #44]	; 0x2c
87805e7e:	0113      	lsls	r3, r2, #4
87805e80:	eb03 0382 	add.w	r3, r3, r2, lsl #2
87805e84:	442b      	add	r3, r5
87805e86:	689b      	ldr	r3, [r3, #8]
87805e88:	b93b      	cbnz	r3, 87805e9a <vTaskPriorityInherit+0x7a>
87805e8a:	f8d5 1108 	ldr.w	r1, [r5, #264]	; 0x108
87805e8e:	2301      	movs	r3, #1
87805e90:	4093      	lsls	r3, r2
87805e92:	ea21 0303 	bic.w	r3, r1, r3
87805e96:	f8c5 3108 	str.w	r3, [r5, #264]	; 0x108
87805e9a:	6863      	ldr	r3, [r4, #4]
87805e9c:	2501      	movs	r5, #1
87805e9e:	f8d4 2108 	ldr.w	r2, [r4, #264]	; 0x108
87805ea2:	4641      	mov	r1, r8
87805ea4:	6adb      	ldr	r3, [r3, #44]	; 0x2c
87805ea6:	62fb      	str	r3, [r7, #44]	; 0x2c
87805ea8:	0118      	lsls	r0, r3, #4
87805eaa:	409d      	lsls	r5, r3
87805eac:	eb00 0083 	add.w	r0, r0, r3, lsl #2
87805eb0:	ea45 0302 	orr.w	r3, r5, r2
87805eb4:	f8c4 3108 	str.w	r3, [r4, #264]	; 0x108
87805eb8:	4430      	add	r0, r6
87805eba:	e8bd 41f0 	ldmia.w	sp!, {r4, r5, r6, r7, r8, lr}
87805ebe:	f7fe bb87 	b.w	878045d0 <vListInsertEnd>
87805ec2:	4770      	bx	lr

87805ec4 <xTaskPriorityDisinherit>:
87805ec4:	2800      	cmp	r0, #0
87805ec6:	d05b      	beq.n	87805f80 <xTaskPriorityDisinherit+0xbc>
87805ec8:	b5f8      	push	{r3, r4, r5, r6, r7, lr}
87805eca:	f24d 7578 	movw	r5, #55160	; 0xd778
87805ece:	f2c8 7580 	movt	r5, #34688	; 0x8780
87805ed2:	4604      	mov	r4, r0
87805ed4:	686b      	ldr	r3, [r5, #4]
87805ed6:	4298      	cmp	r0, r3
87805ed8:	d007      	beq.n	87805eea <xTaskPriorityDisinherit+0x26>
87805eda:	f64b 4058 	movw	r0, #48216	; 0xbc58
87805ede:	f640 61c7 	movw	r1, #3783	; 0xec7
87805ee2:	f2c8 7080 	movt	r0, #34688	; 0x8780
87805ee6:	f7fa fb1b 	bl	87800520 <vAssertCalled>
87805eea:	6ce3      	ldr	r3, [r4, #76]	; 0x4c
87805eec:	2b00      	cmp	r3, #0
87805eee:	d03d      	beq.n	87805f6c <xTaskPriorityDisinherit+0xa8>
87805ef0:	6ae1      	ldr	r1, [r4, #44]	; 0x2c
87805ef2:	3b01      	subs	r3, #1
87805ef4:	6ca2      	ldr	r2, [r4, #72]	; 0x48
87805ef6:	64e3      	str	r3, [r4, #76]	; 0x4c
87805ef8:	fab3 f383 	clz	r3, r3
87805efc:	095b      	lsrs	r3, r3, #5
87805efe:	4291      	cmp	r1, r2
87805f00:	bf08      	it	eq
87805f02:	2300      	moveq	r3, #0
87805f04:	b90b      	cbnz	r3, 87805f0a <xTaskPriorityDisinherit+0x46>
87805f06:	2000      	movs	r0, #0
87805f08:	bdf8      	pop	{r3, r4, r5, r6, r7, pc}
87805f0a:	1d27      	adds	r7, r4, #4
87805f0c:	4638      	mov	r0, r7
87805f0e:	f7fe fb89 	bl	87804624 <uxListRemove>
87805f12:	b990      	cbnz	r0, 87805f3a <xTaskPriorityDisinherit+0x76>
87805f14:	6ae1      	ldr	r1, [r4, #44]	; 0x2c
87805f16:	f24d 7278 	movw	r2, #55160	; 0xd778
87805f1a:	f2c8 7280 	movt	r2, #34688	; 0x8780
87805f1e:	010b      	lsls	r3, r1, #4
87805f20:	eb03 0381 	add.w	r3, r3, r1, lsl #2
87805f24:	442b      	add	r3, r5
87805f26:	689b      	ldr	r3, [r3, #8]
87805f28:	b93b      	cbnz	r3, 87805f3a <xTaskPriorityDisinherit+0x76>
87805f2a:	f8d2 0108 	ldr.w	r0, [r2, #264]	; 0x108
87805f2e:	2301      	movs	r3, #1
87805f30:	408b      	lsls	r3, r1
87805f32:	ea20 0303 	bic.w	r3, r0, r3
87805f36:	f8c2 3108 	str.w	r3, [r2, #264]	; 0x108
87805f3a:	6ca3      	ldr	r3, [r4, #72]	; 0x48
87805f3c:	2601      	movs	r6, #1
87805f3e:	f8d5 2108 	ldr.w	r2, [r5, #264]	; 0x108
87805f42:	4639      	mov	r1, r7
87805f44:	f8df e03c 	ldr.w	lr, [pc, #60]	; 87805f84 <xTaskPriorityDisinherit+0xc0>
87805f48:	62e3      	str	r3, [r4, #44]	; 0x2c
87805f4a:	0118      	lsls	r0, r3, #4
87805f4c:	fa06 f703 	lsl.w	r7, r6, r3
87805f50:	eb00 0083 	add.w	r0, r0, r3, lsl #2
87805f54:	f1c3 0307 	rsb	r3, r3, #7
87805f58:	61a3      	str	r3, [r4, #24]
87805f5a:	ea47 0302 	orr.w	r3, r7, r2
87805f5e:	4470      	add	r0, lr
87805f60:	f8c5 3108 	str.w	r3, [r5, #264]	; 0x108
87805f64:	f7fe fb34 	bl	878045d0 <vListInsertEnd>
87805f68:	4630      	mov	r0, r6
87805f6a:	bdf8      	pop	{r3, r4, r5, r6, r7, pc}
87805f6c:	f64b 4058 	movw	r0, #48216	; 0xbc58
87805f70:	f640 61c9 	movw	r1, #3785	; 0xec9
87805f74:	f2c8 7080 	movt	r0, #34688	; 0x8780
87805f78:	f7fa fad2 	bl	87800520 <vAssertCalled>
87805f7c:	6ce3      	ldr	r3, [r4, #76]	; 0x4c
87805f7e:	e7b7      	b.n	87805ef0 <xTaskPriorityDisinherit+0x2c>
87805f80:	2000      	movs	r0, #0
87805f82:	4770      	bx	lr
87805f84:	8780d780 	strhi	sp, [r0, r0, lsl #15]

87805f88 <vTaskList>:
87805f88:	f24d 7378 	movw	r3, #55160	; 0xd778
87805f8c:	e92d 43f0 	stmdb	sp!, {r4, r5, r6, r7, r8, r9, lr}
87805f90:	f2c8 7380 	movt	r3, #34688	; 0x8780
87805f94:	b085      	sub	sp, #20
87805f96:	2400      	movs	r4, #0
87805f98:	4606      	mov	r6, r0
87805f9a:	681a      	ldr	r2, [r3, #0]
87805f9c:	7004      	strb	r4, [r0, #0]
87805f9e:	9202      	str	r2, [sp, #8]
87805fa0:	681b      	ldr	r3, [r3, #0]
87805fa2:	0158      	lsls	r0, r3, #5
87805fa4:	eb00 0083 	add.w	r0, r0, r3, lsl #2
87805fa8:	f000 fe06 	bl	87806bb8 <pvPortMalloc>
87805fac:	2800      	cmp	r0, #0
87805fae:	d053      	beq.n	87806058 <vTaskList+0xd0>
87805fb0:	4622      	mov	r2, r4
87805fb2:	9902      	ldr	r1, [sp, #8]
87805fb4:	4607      	mov	r7, r0
87805fb6:	f7ff fe95 	bl	87805ce4 <uxTaskGetSystemState>
87805fba:	9002      	str	r0, [sp, #8]
87805fbc:	9403      	str	r4, [sp, #12]
87805fbe:	9a03      	ldr	r2, [sp, #12]
87805fc0:	9b02      	ldr	r3, [sp, #8]
87805fc2:	429a      	cmp	r2, r3
87805fc4:	bf3c      	itt	cc
87805fc6:	f64b 38c8 	movwcc	r8, #48072	; 0xbbc8
87805fca:	f2c8 7880 	movtcc	r8, #34688	; 0x8780
87805fce:	d240      	bcs.n	87806052 <vTaskList+0xca>
87805fd0:	9a03      	ldr	r2, [sp, #12]
87805fd2:	2500      	movs	r5, #0
87805fd4:	4630      	mov	r0, r6
87805fd6:	0153      	lsls	r3, r2, #5
87805fd8:	eb03 0382 	add.w	r3, r3, r2, lsl #2
87805fdc:	9a03      	ldr	r2, [sp, #12]
87805fde:	443b      	add	r3, r7
87805fe0:	68db      	ldr	r3, [r3, #12]
87805fe2:	3b01      	subs	r3, #1
87805fe4:	2b03      	cmp	r3, #3
87805fe6:	bf98      	it	ls
87805fe8:	f818 5003 	ldrbls.w	r5, [r8, r3]
87805fec:	0153      	lsls	r3, r2, #5
87805fee:	eb03 0382 	add.w	r3, r3, r2, lsl #2
87805ff2:	443b      	add	r3, r7
87805ff4:	6859      	ldr	r1, [r3, #4]
87805ff6:	f7fe fdff 	bl	87804bf8 <prvWriteNameToBuffer>
87805ffa:	f8dd 900c 	ldr.w	r9, [sp, #12]
87805ffe:	462a      	mov	r2, r5
87806000:	9c03      	ldr	r4, [sp, #12]
87806002:	f64b 4178 	movw	r1, #48248	; 0xbc78
87806006:	f8dd c00c 	ldr.w	ip, [sp, #12]
8780600a:	4606      	mov	r6, r0
8780600c:	f2c8 7180 	movt	r1, #34688	; 0x8780
87806010:	ea4f 1e49 	mov.w	lr, r9, lsl #5
87806014:	0163      	lsls	r3, r4, #5
87806016:	ea4f 154c 	mov.w	r5, ip, lsl #5
8780601a:	eb0e 0e89 	add.w	lr, lr, r9, lsl #2
8780601e:	eb03 0484 	add.w	r4, r3, r4, lsl #2
87806022:	eb05 058c 	add.w	r5, r5, ip, lsl #2
87806026:	eb07 030e 	add.w	r3, r7, lr
8780602a:	443c      	add	r4, r7
8780602c:	691b      	ldr	r3, [r3, #16]
8780602e:	443d      	add	r5, r7
87806030:	68ad      	ldr	r5, [r5, #8]
87806032:	9501      	str	r5, [sp, #4]
87806034:	8c24      	ldrh	r4, [r4, #32]
87806036:	9400      	str	r4, [sp, #0]
87806038:	f7fb fc0e 	bl	87801858 <sprintf>
8780603c:	4630      	mov	r0, r6
8780603e:	f7fa fbeb 	bl	87800818 <strlen>
87806042:	9b03      	ldr	r3, [sp, #12]
87806044:	4406      	add	r6, r0
87806046:	3301      	adds	r3, #1
87806048:	9303      	str	r3, [sp, #12]
8780604a:	9a03      	ldr	r2, [sp, #12]
8780604c:	9b02      	ldr	r3, [sp, #8]
8780604e:	429a      	cmp	r2, r3
87806050:	d3be      	bcc.n	87805fd0 <vTaskList+0x48>
87806052:	4638      	mov	r0, r7
87806054:	f000 fe6c 	bl	87806d30 <vPortFree>
87806058:	b005      	add	sp, #20
8780605a:	e8bd 83f0 	ldmia.w	sp!, {r4, r5, r6, r7, r8, r9, pc}
8780605e:	bf00      	nop

87806060 <vTaskGetRunTimeStats>:
87806060:	f24d 7378 	movw	r3, #55160	; 0xd778
87806064:	b5f0      	push	{r4, r5, r6, r7, lr}
87806066:	f2c8 7380 	movt	r3, #34688	; 0x8780
8780606a:	b085      	sub	sp, #20
8780606c:	2600      	movs	r6, #0
8780606e:	4604      	mov	r4, r0
87806070:	681a      	ldr	r2, [r3, #0]
87806072:	7006      	strb	r6, [r0, #0]
87806074:	9201      	str	r2, [sp, #4]
87806076:	681b      	ldr	r3, [r3, #0]
87806078:	0158      	lsls	r0, r3, #5
8780607a:	eb00 0083 	add.w	r0, r0, r3, lsl #2
8780607e:	f000 fd9b 	bl	87806bb8 <pvPortMalloc>
87806082:	2800      	cmp	r0, #0
87806084:	d054      	beq.n	87806130 <vTaskGetRunTimeStats+0xd0>
87806086:	9901      	ldr	r1, [sp, #4]
87806088:	aa03      	add	r2, sp, #12
8780608a:	4605      	mov	r5, r0
8780608c:	f7ff fe2a 	bl	87805ce4 <uxTaskGetSystemState>
87806090:	9b03      	ldr	r3, [sp, #12]
87806092:	f248 521f 	movw	r2, #34079	; 0x851f
87806096:	f2c5 12eb 	movt	r2, #20971	; 0x51eb
8780609a:	9001      	str	r0, [sp, #4]
8780609c:	fba3 2302 	umull	r2, r3, r3, r2
878060a0:	0959      	lsrs	r1, r3, #5
878060a2:	9103      	str	r1, [sp, #12]
878060a4:	2900      	cmp	r1, #0
878060a6:	d040      	beq.n	8780612a <vTaskGetRunTimeStats+0xca>
878060a8:	9602      	str	r6, [sp, #8]
878060aa:	9a02      	ldr	r2, [sp, #8]
878060ac:	9b01      	ldr	r3, [sp, #4]
878060ae:	429a      	cmp	r2, r3
878060b0:	d319      	bcc.n	878060e6 <vTaskGetRunTimeStats+0x86>
878060b2:	e03a      	b.n	8780612a <vTaskGetRunTimeStats+0xca>
878060b4:	9f02      	ldr	r7, [sp, #8]
878060b6:	f64b 4188 	movw	r1, #48264	; 0xbc88
878060ba:	4633      	mov	r3, r6
878060bc:	f2c8 7180 	movt	r1, #34688	; 0x8780
878060c0:	017a      	lsls	r2, r7, #5
878060c2:	eb02 0287 	add.w	r2, r2, r7, lsl #2
878060c6:	442a      	add	r2, r5
878060c8:	6992      	ldr	r2, [r2, #24]
878060ca:	f7fb fbc5 	bl	87801858 <sprintf>
878060ce:	4620      	mov	r0, r4
878060d0:	f7fa fba2 	bl	87800818 <strlen>
878060d4:	9b02      	ldr	r3, [sp, #8]
878060d6:	4404      	add	r4, r0
878060d8:	3301      	adds	r3, #1
878060da:	9302      	str	r3, [sp, #8]
878060dc:	9a02      	ldr	r2, [sp, #8]
878060de:	9b01      	ldr	r3, [sp, #4]
878060e0:	429a      	cmp	r2, r3
878060e2:	d222      	bcs.n	8780612a <vTaskGetRunTimeStats+0xca>
878060e4:	9903      	ldr	r1, [sp, #12]
878060e6:	9a02      	ldr	r2, [sp, #8]
878060e8:	0153      	lsls	r3, r2, #5
878060ea:	eb03 0382 	add.w	r3, r3, r2, lsl #2
878060ee:	442b      	add	r3, r5
878060f0:	6998      	ldr	r0, [r3, #24]
878060f2:	f001 f82d 	bl	87807150 <__aeabi_uidiv>
878060f6:	9902      	ldr	r1, [sp, #8]
878060f8:	4606      	mov	r6, r0
878060fa:	4620      	mov	r0, r4
878060fc:	014a      	lsls	r2, r1, #5
878060fe:	eb02 0281 	add.w	r2, r2, r1, lsl #2
87806102:	442a      	add	r2, r5
87806104:	6851      	ldr	r1, [r2, #4]
87806106:	f7fe fd77 	bl	87804bf8 <prvWriteNameToBuffer>
8780610a:	4604      	mov	r4, r0
8780610c:	2e00      	cmp	r6, #0
8780610e:	d1d1      	bne.n	878060b4 <vTaskGetRunTimeStats+0x54>
87806110:	9a02      	ldr	r2, [sp, #8]
87806112:	f64b 4194 	movw	r1, #48276	; 0xbc94
87806116:	f2c8 7180 	movt	r1, #34688	; 0x8780
8780611a:	0153      	lsls	r3, r2, #5
8780611c:	eb03 0382 	add.w	r3, r3, r2, lsl #2
87806120:	442b      	add	r3, r5
87806122:	699a      	ldr	r2, [r3, #24]
87806124:	f7fb fb98 	bl	87801858 <sprintf>
87806128:	e7d1      	b.n	878060ce <vTaskGetRunTimeStats+0x6e>
8780612a:	4628      	mov	r0, r5
8780612c:	f000 fe00 	bl	87806d30 <vPortFree>
87806130:	b005      	add	sp, #20
87806132:	bdf0      	pop	{r4, r5, r6, r7, pc}

87806134 <uxTaskResetEventItemValue>:
87806134:	f24d 7378 	movw	r3, #55160	; 0xd778
87806138:	f2c8 7380 	movt	r3, #34688	; 0x8780
8780613c:	6859      	ldr	r1, [r3, #4]
8780613e:	685a      	ldr	r2, [r3, #4]
87806140:	685b      	ldr	r3, [r3, #4]
87806142:	6988      	ldr	r0, [r1, #24]
87806144:	6adb      	ldr	r3, [r3, #44]	; 0x2c
87806146:	f1c3 0307 	rsb	r3, r3, #7
8780614a:	6193      	str	r3, [r2, #24]
8780614c:	4770      	bx	lr
8780614e:	bf00      	nop

87806150 <pvTaskIncrementMutexHeldCount>:
87806150:	f24d 7378 	movw	r3, #55160	; 0xd778
87806154:	f2c8 7380 	movt	r3, #34688	; 0x8780
87806158:	685a      	ldr	r2, [r3, #4]
8780615a:	b11a      	cbz	r2, 87806164 <pvTaskIncrementMutexHeldCount+0x14>
8780615c:	6859      	ldr	r1, [r3, #4]
8780615e:	6cca      	ldr	r2, [r1, #76]	; 0x4c
87806160:	3201      	adds	r2, #1
87806162:	64ca      	str	r2, [r1, #76]	; 0x4c
87806164:	6858      	ldr	r0, [r3, #4]
87806166:	4770      	bx	lr

87806168 <ulTaskNotifyTake>:
87806168:	b570      	push	{r4, r5, r6, lr}
8780616a:	f24d 7478 	movw	r4, #55160	; 0xd778
8780616e:	f2c8 7480 	movt	r4, #34688	; 0x8780
87806172:	4606      	mov	r6, r0
87806174:	460d      	mov	r5, r1
87806176:	f000 ff9b 	bl	878070b0 <vPortEnterCritical>
8780617a:	6863      	ldr	r3, [r4, #4]
8780617c:	6d5b      	ldr	r3, [r3, #84]	; 0x54
8780617e:	b923      	cbnz	r3, 8780618a <ulTaskNotifyTake+0x22>
87806180:	6863      	ldr	r3, [r4, #4]
87806182:	2101      	movs	r1, #1
87806184:	f883 1058 	strb.w	r1, [r3, #88]	; 0x58
87806188:	b9cd      	cbnz	r5, 878061be <ulTaskNotifyTake+0x56>
8780618a:	f000 feff 	bl	87806f8c <vPortExitCritical>
8780618e:	f000 ff8f 	bl	878070b0 <vPortEnterCritical>
87806192:	6862      	ldr	r2, [r4, #4]
87806194:	f24d 7378 	movw	r3, #55160	; 0xd778
87806198:	f2c8 7380 	movt	r3, #34688	; 0x8780
8780619c:	6d55      	ldr	r5, [r2, #84]	; 0x54
8780619e:	b11d      	cbz	r5, 878061a8 <ulTaskNotifyTake+0x40>
878061a0:	685b      	ldr	r3, [r3, #4]
878061a2:	b94e      	cbnz	r6, 878061b8 <ulTaskNotifyTake+0x50>
878061a4:	1e6a      	subs	r2, r5, #1
878061a6:	655a      	str	r2, [r3, #84]	; 0x54
878061a8:	6863      	ldr	r3, [r4, #4]
878061aa:	2200      	movs	r2, #0
878061ac:	f883 2058 	strb.w	r2, [r3, #88]	; 0x58
878061b0:	f000 feec 	bl	87806f8c <vPortExitCritical>
878061b4:	4628      	mov	r0, r5
878061b6:	bd70      	pop	{r4, r5, r6, pc}
878061b8:	2200      	movs	r2, #0
878061ba:	655a      	str	r2, [r3, #84]	; 0x54
878061bc:	e7f4      	b.n	878061a8 <ulTaskNotifyTake+0x40>
878061be:	4628      	mov	r0, r5
878061c0:	f7fe fccc 	bl	87804b5c <prvAddCurrentTaskToDelayedList>
878061c4:	df00      	svc	0
878061c6:	e7e0      	b.n	8780618a <ulTaskNotifyTake+0x22>

878061c8 <xTaskNotifyWait>:
878061c8:	e92d 43f8 	stmdb	sp!, {r3, r4, r5, r6, r7, r8, r9, lr}
878061cc:	f24d 7478 	movw	r4, #55160	; 0xd778
878061d0:	f2c8 7480 	movt	r4, #34688	; 0x8780
878061d4:	4615      	mov	r5, r2
878061d6:	4681      	mov	r9, r0
878061d8:	460e      	mov	r6, r1
878061da:	4698      	mov	r8, r3
878061dc:	f000 ff68 	bl	878070b0 <vPortEnterCritical>
878061e0:	6862      	ldr	r2, [r4, #4]
878061e2:	f892 2058 	ldrb.w	r2, [r2, #88]	; 0x58
878061e6:	2a02      	cmp	r2, #2
878061e8:	d00b      	beq.n	87806202 <xTaskNotifyWait+0x3a>
878061ea:	6867      	ldr	r7, [r4, #4]
878061ec:	2101      	movs	r1, #1
878061ee:	6d7a      	ldr	r2, [r7, #84]	; 0x54
878061f0:	ea22 0209 	bic.w	r2, r2, r9
878061f4:	657a      	str	r2, [r7, #84]	; 0x54
878061f6:	6863      	ldr	r3, [r4, #4]
878061f8:	f883 1058 	strb.w	r1, [r3, #88]	; 0x58
878061fc:	f1b8 0f00 	cmp.w	r8, #0
87806200:	d121      	bne.n	87806246 <xTaskNotifyWait+0x7e>
87806202:	f000 fec3 	bl	87806f8c <vPortExitCritical>
87806206:	f000 ff53 	bl	878070b0 <vPortEnterCritical>
8780620a:	b115      	cbz	r5, 87806212 <xTaskNotifyWait+0x4a>
8780620c:	6863      	ldr	r3, [r4, #4]
8780620e:	6d5b      	ldr	r3, [r3, #84]	; 0x54
87806210:	602b      	str	r3, [r5, #0]
87806212:	6862      	ldr	r2, [r4, #4]
87806214:	f24d 7378 	movw	r3, #55160	; 0xd778
87806218:	f2c8 7380 	movt	r3, #34688	; 0x8780
8780621c:	f892 2058 	ldrb.w	r2, [r2, #88]	; 0x58
87806220:	2a01      	cmp	r2, #1
87806222:	f04f 0200 	mov.w	r2, #0
87806226:	bf1b      	ittet	ne
87806228:	685b      	ldrne	r3, [r3, #4]
8780622a:	2501      	movne	r5, #1
8780622c:	2500      	moveq	r5, #0
8780622e:	6d59      	ldrne	r1, [r3, #84]	; 0x54
87806230:	bf1c      	itt	ne
87806232:	43b1      	bicne	r1, r6
87806234:	6559      	strne	r1, [r3, #84]	; 0x54
87806236:	6863      	ldr	r3, [r4, #4]
87806238:	f883 2058 	strb.w	r2, [r3, #88]	; 0x58
8780623c:	f000 fea6 	bl	87806f8c <vPortExitCritical>
87806240:	4628      	mov	r0, r5
87806242:	e8bd 83f8 	ldmia.w	sp!, {r3, r4, r5, r6, r7, r8, r9, pc}
87806246:	4640      	mov	r0, r8
87806248:	f7fe fc88 	bl	87804b5c <prvAddCurrentTaskToDelayedList>
8780624c:	df00      	svc	0
8780624e:	e7d8      	b.n	87806202 <xTaskNotifyWait+0x3a>

87806250 <xTaskGenericNotify>:
87806250:	b5f8      	push	{r3, r4, r5, r6, r7, lr}
87806252:	460f      	mov	r7, r1
87806254:	4615      	mov	r5, r2
87806256:	461e      	mov	r6, r3
87806258:	4604      	mov	r4, r0
8780625a:	2800      	cmp	r0, #0
8780625c:	d050      	beq.n	87806300 <xTaskGenericNotify+0xb0>
8780625e:	f000 ff27 	bl	878070b0 <vPortEnterCritical>
87806262:	b10e      	cbz	r6, 87806268 <xTaskGenericNotify+0x18>
87806264:	6d63      	ldr	r3, [r4, #84]	; 0x54
87806266:	6033      	str	r3, [r6, #0]
87806268:	f894 3058 	ldrb.w	r3, [r4, #88]	; 0x58
8780626c:	1e6a      	subs	r2, r5, #1
8780626e:	2102      	movs	r1, #2
87806270:	f884 1058 	strb.w	r1, [r4, #88]	; 0x58
87806274:	b2dd      	uxtb	r5, r3
87806276:	2a03      	cmp	r2, #3
87806278:	d808      	bhi.n	8780628c <xTaskGenericNotify+0x3c>
8780627a:	e8df f002 	tbb	[pc, r2]
8780627e:	02060e3d 	andeq	r0, r6, #976	; 0x3d0
87806282:	2d02      	cmp	r5, #2
87806284:	bf08      	it	eq
87806286:	2400      	moveq	r4, #0
87806288:	d003      	beq.n	87806292 <xTaskGenericNotify+0x42>
8780628a:	6567      	str	r7, [r4, #84]	; 0x54
8780628c:	2d01      	cmp	r5, #1
8780628e:	d00a      	beq.n	878062a6 <xTaskGenericNotify+0x56>
87806290:	2401      	movs	r4, #1
87806292:	f000 fe7b 	bl	87806f8c <vPortExitCritical>
87806296:	4620      	mov	r0, r4
87806298:	bdf8      	pop	{r3, r4, r5, r6, r7, pc}
8780629a:	6d63      	ldr	r3, [r4, #84]	; 0x54
8780629c:	2d01      	cmp	r5, #1
8780629e:	f103 0301 	add.w	r3, r3, #1
878062a2:	6563      	str	r3, [r4, #84]	; 0x54
878062a4:	d1f4      	bne.n	87806290 <xTaskGenericNotify+0x40>
878062a6:	1d27      	adds	r7, r4, #4
878062a8:	f24d 7678 	movw	r6, #55160	; 0xd778
878062ac:	4638      	mov	r0, r7
878062ae:	f2c8 7680 	movt	r6, #34688	; 0x8780
878062b2:	f7fe f9b7 	bl	87804624 <uxListRemove>
878062b6:	6ae0      	ldr	r0, [r4, #44]	; 0x2c
878062b8:	f106 0e08 	add.w	lr, r6, #8
878062bc:	f8d6 2108 	ldr.w	r2, [r6, #264]	; 0x108
878062c0:	4639      	mov	r1, r7
878062c2:	0103      	lsls	r3, r0, #4
878062c4:	4085      	lsls	r5, r0
878062c6:	eb03 0080 	add.w	r0, r3, r0, lsl #2
878062ca:	4315      	orrs	r5, r2
878062cc:	f8c6 5108 	str.w	r5, [r6, #264]	; 0x108
878062d0:	4470      	add	r0, lr
878062d2:	f7fe f97d 	bl	878045d0 <vListInsertEnd>
878062d6:	6aa3      	ldr	r3, [r4, #40]	; 0x28
878062d8:	b13b      	cbz	r3, 878062ea <xTaskGenericNotify+0x9a>
878062da:	f64b 4058 	movw	r0, #48216	; 0xbc58
878062de:	f241 1135 	movw	r1, #4405	; 0x1135
878062e2:	f2c8 7080 	movt	r0, #34688	; 0x8780
878062e6:	f7fa f91b 	bl	87800520 <vAssertCalled>
878062ea:	6873      	ldr	r3, [r6, #4]
878062ec:	6ae2      	ldr	r2, [r4, #44]	; 0x2c
878062ee:	6adb      	ldr	r3, [r3, #44]	; 0x2c
878062f0:	429a      	cmp	r2, r3
878062f2:	d9cd      	bls.n	87806290 <xTaskGenericNotify+0x40>
878062f4:	df00      	svc	0
878062f6:	e7cb      	b.n	87806290 <xTaskGenericNotify+0x40>
878062f8:	6d63      	ldr	r3, [r4, #84]	; 0x54
878062fa:	431f      	orrs	r7, r3
878062fc:	6567      	str	r7, [r4, #84]	; 0x54
878062fe:	e7c5      	b.n	8780628c <xTaskGenericNotify+0x3c>
87806300:	f64b 4058 	movw	r0, #48216	; 0xbc58
87806304:	f241 01fd 	movw	r1, #4349	; 0x10fd
87806308:	f2c8 7080 	movt	r0, #34688	; 0x8780
8780630c:	f7fa f908 	bl	87800520 <vAssertCalled>
87806310:	e7a5      	b.n	8780625e <xTaskGenericNotify+0xe>
87806312:	bf00      	nop

87806314 <xTaskGenericNotifyFromISR>:
87806314:	e92d 41f0 	stmdb	sp!, {r4, r5, r6, r7, r8, lr}
87806318:	4688      	mov	r8, r1
8780631a:	4615      	mov	r5, r2
8780631c:	461e      	mov	r6, r3
8780631e:	4604      	mov	r4, r0
87806320:	2800      	cmp	r0, #0
87806322:	d06f      	beq.n	87806404 <xTaskGenericNotifyFromISR+0xf0>
87806324:	f000 fee4 	bl	878070f0 <vPortValidateInterruptPriority>
87806328:	f000 fea6 	bl	87807078 <ulPortSetInterruptMask>
8780632c:	4607      	mov	r7, r0
8780632e:	b10e      	cbz	r6, 87806334 <xTaskGenericNotifyFromISR+0x20>
87806330:	6d63      	ldr	r3, [r4, #84]	; 0x54
87806332:	6033      	str	r3, [r6, #0]
87806334:	f894 3058 	ldrb.w	r3, [r4, #88]	; 0x58
87806338:	2102      	movs	r1, #2
8780633a:	1e6a      	subs	r2, r5, #1
8780633c:	f884 1058 	strb.w	r1, [r4, #88]	; 0x58
87806340:	b2db      	uxtb	r3, r3
87806342:	2a03      	cmp	r2, #3
87806344:	d809      	bhi.n	8780635a <xTaskGenericNotifyFromISR+0x46>
87806346:	e8df f002 	tbb	[pc, r2]
8780634a:	02061141 	andeq	r1, r6, #1073741840	; 0x40000010
8780634e:	2b02      	cmp	r3, #2
87806350:	bf08      	it	eq
87806352:	2400      	moveq	r4, #0
87806354:	d004      	beq.n	87806360 <xTaskGenericNotifyFromISR+0x4c>
87806356:	f8c4 8054 	str.w	r8, [r4, #84]	; 0x54
8780635a:	2b01      	cmp	r3, #1
8780635c:	d00c      	beq.n	87806378 <xTaskGenericNotifyFromISR+0x64>
8780635e:	2401      	movs	r4, #1
87806360:	4638      	mov	r0, r7
87806362:	f000 fe73 	bl	8780704c <vPortClearInterruptMask>
87806366:	4620      	mov	r0, r4
87806368:	e8bd 81f0 	ldmia.w	sp!, {r4, r5, r6, r7, r8, pc}
8780636c:	6d62      	ldr	r2, [r4, #84]	; 0x54
8780636e:	2b01      	cmp	r3, #1
87806370:	f102 0201 	add.w	r2, r2, #1
87806374:	6562      	str	r2, [r4, #84]	; 0x54
87806376:	d1f2      	bne.n	8780635e <xTaskGenericNotifyFromISR+0x4a>
87806378:	6aa3      	ldr	r3, [r4, #40]	; 0x28
8780637a:	b13b      	cbz	r3, 8780638c <xTaskGenericNotifyFromISR+0x78>
8780637c:	f64b 4058 	movw	r0, #48216	; 0xbc58
87806380:	f241 11af 	movw	r1, #4527	; 0x11af
87806384:	f2c8 7080 	movt	r0, #34688	; 0x8780
87806388:	f7fa f8ca 	bl	87800520 <vAssertCalled>
8780638c:	f24d 7578 	movw	r5, #55160	; 0xd778
87806390:	f2c8 7580 	movt	r5, #34688	; 0x8780
87806394:	f8d5 3124 	ldr.w	r3, [r5, #292]	; 0x124
87806398:	b1eb      	cbz	r3, 878063d6 <xTaskGenericNotifyFromISR+0xc2>
8780639a:	f104 0118 	add.w	r1, r4, #24
8780639e:	f105 00bc 	add.w	r0, r5, #188	; 0xbc
878063a2:	f7fe f915 	bl	878045d0 <vListInsertEnd>
878063a6:	686a      	ldr	r2, [r5, #4]
878063a8:	f24d 7378 	movw	r3, #55160	; 0xd778
878063ac:	6ae1      	ldr	r1, [r4, #44]	; 0x2c
878063ae:	f2c8 7380 	movt	r3, #34688	; 0x8780
878063b2:	6ad2      	ldr	r2, [r2, #44]	; 0x2c
878063b4:	4291      	cmp	r1, r2
878063b6:	d9d2      	bls.n	8780635e <xTaskGenericNotifyFromISR+0x4a>
878063b8:	9a06      	ldr	r2, [sp, #24]
878063ba:	2401      	movs	r4, #1
878063bc:	b35a      	cbz	r2, 87806416 <xTaskGenericNotifyFromISR+0x102>
878063be:	4638      	mov	r0, r7
878063c0:	6014      	str	r4, [r2, #0]
878063c2:	f000 fe43 	bl	8780704c <vPortClearInterruptMask>
878063c6:	4620      	mov	r0, r4
878063c8:	e8bd 81f0 	ldmia.w	sp!, {r4, r5, r6, r7, r8, pc}
878063cc:	6d62      	ldr	r2, [r4, #84]	; 0x54
878063ce:	ea48 0202 	orr.w	r2, r8, r2
878063d2:	6562      	str	r2, [r4, #84]	; 0x54
878063d4:	e7c1      	b.n	8780635a <xTaskGenericNotifyFromISR+0x46>
878063d6:	f104 0804 	add.w	r8, r4, #4
878063da:	4640      	mov	r0, r8
878063dc:	f7fe f922 	bl	87804624 <uxListRemove>
878063e0:	6ae0      	ldr	r0, [r4, #44]	; 0x2c
878063e2:	2201      	movs	r2, #1
878063e4:	f8d5 6108 	ldr.w	r6, [r5, #264]	; 0x108
878063e8:	f105 0e08 	add.w	lr, r5, #8
878063ec:	4641      	mov	r1, r8
878063ee:	0103      	lsls	r3, r0, #4
878063f0:	4082      	lsls	r2, r0
878063f2:	eb03 0080 	add.w	r0, r3, r0, lsl #2
878063f6:	4332      	orrs	r2, r6
878063f8:	f8c5 2108 	str.w	r2, [r5, #264]	; 0x108
878063fc:	4470      	add	r0, lr
878063fe:	f7fe f8e7 	bl	878045d0 <vListInsertEnd>
87806402:	e7d0      	b.n	878063a6 <xTaskGenericNotifyFromISR+0x92>
87806404:	f64b 4058 	movw	r0, #48216	; 0xbc58
87806408:	f241 1168 	movw	r1, #4456	; 0x1168
8780640c:	f2c8 7080 	movt	r0, #34688	; 0x8780
87806410:	f7fa f886 	bl	87800520 <vAssertCalled>
87806414:	e786      	b.n	87806324 <xTaskGenericNotifyFromISR+0x10>
87806416:	f8c3 4114 	str.w	r4, [r3, #276]	; 0x114
8780641a:	e7a1      	b.n	87806360 <xTaskGenericNotifyFromISR+0x4c>

8780641c <vTaskNotifyGiveFromISR>:
8780641c:	e92d 41f0 	stmdb	sp!, {r4, r5, r6, r7, r8, lr}
87806420:	460f      	mov	r7, r1
87806422:	4604      	mov	r4, r0
87806424:	2800      	cmp	r0, #0
87806426:	d057      	beq.n	878064d8 <vTaskNotifyGiveFromISR+0xbc>
87806428:	f000 fe62 	bl	878070f0 <vPortValidateInterruptPriority>
8780642c:	f000 fe24 	bl	87807078 <ulPortSetInterruptMask>
87806430:	f894 2058 	ldrb.w	r2, [r4, #88]	; 0x58
87806434:	2302      	movs	r3, #2
87806436:	f884 3058 	strb.w	r3, [r4, #88]	; 0x58
8780643a:	4606      	mov	r6, r0
8780643c:	6d63      	ldr	r3, [r4, #84]	; 0x54
8780643e:	2a01      	cmp	r2, #1
87806440:	f103 0301 	add.w	r3, r3, #1
87806444:	6563      	str	r3, [r4, #84]	; 0x54
87806446:	d004      	beq.n	87806452 <vTaskNotifyGiveFromISR+0x36>
87806448:	4630      	mov	r0, r6
8780644a:	e8bd 41f0 	ldmia.w	sp!, {r4, r5, r6, r7, r8, lr}
8780644e:	f000 bdfd 	b.w	8780704c <vPortClearInterruptMask>
87806452:	6aa3      	ldr	r3, [r4, #40]	; 0x28
87806454:	b13b      	cbz	r3, 87806466 <vTaskNotifyGiveFromISR+0x4a>
87806456:	f64b 4058 	movw	r0, #48216	; 0xbc58
8780645a:	f241 2109 	movw	r1, #4617	; 0x1209
8780645e:	f2c8 7080 	movt	r0, #34688	; 0x8780
87806462:	f7fa f85d 	bl	87800520 <vAssertCalled>
87806466:	f24d 7578 	movw	r5, #55160	; 0xd778
8780646a:	f2c8 7580 	movt	r5, #34688	; 0x8780
8780646e:	f8d5 3124 	ldr.w	r3, [r5, #292]	; 0x124
87806472:	b1b3      	cbz	r3, 878064a2 <vTaskNotifyGiveFromISR+0x86>
87806474:	f104 0118 	add.w	r1, r4, #24
87806478:	f105 00bc 	add.w	r0, r5, #188	; 0xbc
8780647c:	f7fe f8a8 	bl	878045d0 <vListInsertEnd>
87806480:	686a      	ldr	r2, [r5, #4]
87806482:	f24d 7378 	movw	r3, #55160	; 0xd778
87806486:	6ae1      	ldr	r1, [r4, #44]	; 0x2c
87806488:	f2c8 7380 	movt	r3, #34688	; 0x8780
8780648c:	6ad2      	ldr	r2, [r2, #44]	; 0x2c
8780648e:	4291      	cmp	r1, r2
87806490:	d9da      	bls.n	87806448 <vTaskNotifyGiveFromISR+0x2c>
87806492:	b357      	cbz	r7, 878064ea <vTaskNotifyGiveFromISR+0xce>
87806494:	2301      	movs	r3, #1
87806496:	4630      	mov	r0, r6
87806498:	603b      	str	r3, [r7, #0]
8780649a:	e8bd 41f0 	ldmia.w	sp!, {r4, r5, r6, r7, r8, lr}
8780649e:	f000 bdd5 	b.w	8780704c <vPortClearInterruptMask>
878064a2:	f104 0804 	add.w	r8, r4, #4
878064a6:	4640      	mov	r0, r8
878064a8:	f7fe f8bc 	bl	87804624 <uxListRemove>
878064ac:	f8d4 e02c 	ldr.w	lr, [r4, #44]	; 0x2c
878064b0:	2201      	movs	r2, #1
878064b2:	f8d5 0108 	ldr.w	r0, [r5, #264]	; 0x108
878064b6:	f105 0c08 	add.w	ip, r5, #8
878064ba:	4641      	mov	r1, r8
878064bc:	ea4f 130e 	mov.w	r3, lr, lsl #4
878064c0:	fa02 f20e 	lsl.w	r2, r2, lr
878064c4:	eb03 038e 	add.w	r3, r3, lr, lsl #2
878064c8:	4302      	orrs	r2, r0
878064ca:	f8c5 2108 	str.w	r2, [r5, #264]	; 0x108
878064ce:	eb0c 0003 	add.w	r0, ip, r3
878064d2:	f7fe f87d 	bl	878045d0 <vListInsertEnd>
878064d6:	e7d3      	b.n	87806480 <vTaskNotifyGiveFromISR+0x64>
878064d8:	f64b 4058 	movw	r0, #48216	; 0xbc58
878064dc:	f241 11e3 	movw	r1, #4579	; 0x11e3
878064e0:	f2c8 7080 	movt	r0, #34688	; 0x8780
878064e4:	f7fa f81c 	bl	87800520 <vAssertCalled>
878064e8:	e79e      	b.n	87806428 <vTaskNotifyGiveFromISR+0xc>
878064ea:	2201      	movs	r2, #1
878064ec:	f8c3 2114 	str.w	r2, [r3, #276]	; 0x114
878064f0:	e7aa      	b.n	87806448 <vTaskNotifyGiveFromISR+0x2c>
878064f2:	bf00      	nop

878064f4 <xTaskNotifyStateClear>:
878064f4:	b538      	push	{r3, r4, r5, lr}
878064f6:	4604      	mov	r4, r0
878064f8:	b170      	cbz	r0, 87806518 <xTaskNotifyStateClear+0x24>
878064fa:	f000 fdd9 	bl	878070b0 <vPortEnterCritical>
878064fe:	f894 3058 	ldrb.w	r3, [r4, #88]	; 0x58
87806502:	2b02      	cmp	r3, #2
87806504:	bf05      	ittet	eq
87806506:	2300      	moveq	r3, #0
87806508:	2501      	moveq	r5, #1
8780650a:	2500      	movne	r5, #0
8780650c:	f884 3058 	strbeq.w	r3, [r4, #88]	; 0x58
87806510:	f000 fd3c 	bl	87806f8c <vPortExitCritical>
87806514:	4628      	mov	r0, r5
87806516:	bd38      	pop	{r3, r4, r5, pc}
87806518:	f24d 7378 	movw	r3, #55160	; 0xd778
8780651c:	f2c8 7380 	movt	r3, #34688	; 0x8780
87806520:	685c      	ldr	r4, [r3, #4]
87806522:	e7ea      	b.n	878064fa <xTaskNotifyStateClear+0x6>

87806524 <prvCheckForValidListAndQueue>:
87806524:	b5f0      	push	{r4, r5, r6, r7, lr}
87806526:	f64d 04ac 	movw	r4, #55468	; 0xd8ac
8780652a:	b083      	sub	sp, #12
8780652c:	f2c8 7480 	movt	r4, #34688	; 0x8780
87806530:	f000 fdbe 	bl	878070b0 <vPortEnterCritical>
87806534:	6825      	ldr	r5, [r4, #0]
87806536:	b125      	cbz	r5, 87806542 <prvCheckForValidListAndQueue+0x1e>
87806538:	b003      	add	sp, #12
8780653a:	e8bd 40f0 	ldmia.w	sp!, {r4, r5, r6, r7, lr}
8780653e:	f000 bd25 	b.w	87806f8c <vPortExitCritical>
87806542:	1d27      	adds	r7, r4, #4
87806544:	f104 0618 	add.w	r6, r4, #24
87806548:	4638      	mov	r0, r7
8780654a:	f7fe f831 	bl	878045b0 <vListInitialise>
8780654e:	4630      	mov	r0, r6
87806550:	f7fe f82e 	bl	878045b0 <vListInitialise>
87806554:	9500      	str	r5, [sp, #0]
87806556:	f104 0334 	add.w	r3, r4, #52	; 0x34
8780655a:	f104 0288 	add.w	r2, r4, #136	; 0x88
8780655e:	2110      	movs	r1, #16
87806560:	2005      	movs	r0, #5
87806562:	62e7      	str	r7, [r4, #44]	; 0x2c
87806564:	6326      	str	r6, [r4, #48]	; 0x30
87806566:	f7fd fa95 	bl	87803a94 <xQueueGenericCreateStatic>
8780656a:	6020      	str	r0, [r4, #0]
8780656c:	2800      	cmp	r0, #0
8780656e:	d0e3      	beq.n	87806538 <prvCheckForValidListAndQueue+0x14>
87806570:	f64b 41a0 	movw	r1, #48288	; 0xbca0
87806574:	f2c8 7180 	movt	r1, #34688	; 0x8780
87806578:	f7fd ff64 	bl	87804444 <vQueueAddToRegistry>
8780657c:	e7dc      	b.n	87806538 <prvCheckForValidListAndQueue+0x14>
8780657e:	bf00      	nop

87806580 <prvInsertTimerInActiveList>:
87806580:	4291      	cmp	r1, r2
87806582:	b510      	push	{r4, lr}
87806584:	6100      	str	r0, [r0, #16]
87806586:	6041      	str	r1, [r0, #4]
87806588:	d805      	bhi.n	87806596 <prvInsertTimerInActiveList+0x16>
8780658a:	6981      	ldr	r1, [r0, #24]
8780658c:	1ad2      	subs	r2, r2, r3
8780658e:	428a      	cmp	r2, r1
87806590:	d314      	bcc.n	878065bc <prvInsertTimerInActiveList+0x3c>
87806592:	2001      	movs	r0, #1
87806594:	bd10      	pop	{r4, pc}
87806596:	4299      	cmp	r1, r3
87806598:	bf2c      	ite	cs
8780659a:	2401      	movcs	r4, #1
8780659c:	2400      	movcc	r4, #0
8780659e:	429a      	cmp	r2, r3
878065a0:	bf28      	it	cs
878065a2:	2400      	movcs	r4, #0
878065a4:	2c00      	cmp	r4, #0
878065a6:	d1f4      	bne.n	87806592 <prvInsertTimerInActiveList+0x12>
878065a8:	f64d 03ac 	movw	r3, #55468	; 0xd8ac
878065ac:	1d01      	adds	r1, r0, #4
878065ae:	f2c8 7380 	movt	r3, #34688	; 0x8780
878065b2:	6ad8      	ldr	r0, [r3, #44]	; 0x2c
878065b4:	f7fe f81c 	bl	878045f0 <vListInsert>
878065b8:	4620      	mov	r0, r4
878065ba:	bd10      	pop	{r4, pc}
878065bc:	f64d 03ac 	movw	r3, #55468	; 0xd8ac
878065c0:	1d01      	adds	r1, r0, #4
878065c2:	f2c8 7380 	movt	r3, #34688	; 0x8780
878065c6:	6b18      	ldr	r0, [r3, #48]	; 0x30
878065c8:	f7fe f812 	bl	878045f0 <vListInsert>
878065cc:	2000      	movs	r0, #0
878065ce:	bd10      	pop	{r4, pc}

878065d0 <xTimerCreateTimerTask>:
878065d0:	b5f0      	push	{r4, r5, r6, r7, lr}
878065d2:	f64d 04ac 	movw	r4, #55468	; 0xd8ac
878065d6:	b089      	sub	sp, #36	; 0x24
878065d8:	f2c8 7480 	movt	r4, #34688	; 0x8780
878065dc:	f7ff ffa2 	bl	87806524 <prvCheckForValidListAndQueue>
878065e0:	6823      	ldr	r3, [r4, #0]
878065e2:	b1fb      	cbz	r3, 87806624 <xTimerCreateTimerTask+0x54>
878065e4:	2500      	movs	r5, #0
878065e6:	aa07      	add	r2, sp, #28
878065e8:	a906      	add	r1, sp, #24
878065ea:	a805      	add	r0, sp, #20
878065ec:	9505      	str	r5, [sp, #20]
878065ee:	2606      	movs	r6, #6
878065f0:	9506      	str	r5, [sp, #24]
878065f2:	f7f9 ffb7 	bl	87800564 <vApplicationGetTimerTaskMemory>
878065f6:	9f05      	ldr	r7, [sp, #20]
878065f8:	462b      	mov	r3, r5
878065fa:	9d06      	ldr	r5, [sp, #24]
878065fc:	f64b 41c0 	movw	r1, #48320	; 0xbcc0
87806600:	f246 70f9 	movw	r0, #26617	; 0x67f9
87806604:	9a07      	ldr	r2, [sp, #28]
87806606:	9702      	str	r7, [sp, #8]
87806608:	f2c8 7180 	movt	r1, #34688	; 0x8780
8780660c:	9501      	str	r5, [sp, #4]
8780660e:	f2c8 7080 	movt	r0, #34688	; 0x8780
87806612:	9600      	str	r6, [sp, #0]
87806614:	f7fe fbfc 	bl	87804e10 <xTaskCreateStatic>
87806618:	f8c4 00d8 	str.w	r0, [r4, #216]	; 0xd8
8780661c:	b110      	cbz	r0, 87806624 <xTimerCreateTimerTask+0x54>
8780661e:	2001      	movs	r0, #1
87806620:	b009      	add	sp, #36	; 0x24
87806622:	bdf0      	pop	{r4, r5, r6, r7, pc}
87806624:	f64b 40a8 	movw	r0, #48296	; 0xbca8
87806628:	f240 1133 	movw	r1, #307	; 0x133
8780662c:	f2c8 7080 	movt	r0, #34688	; 0x8780
87806630:	f7f9 ff76 	bl	87800520 <vAssertCalled>
87806634:	2000      	movs	r0, #0
87806636:	b009      	add	sp, #36	; 0x24
87806638:	bdf0      	pop	{r4, r5, r6, r7, pc}
8780663a:	bf00      	nop

8780663c <xTimerCreate>:
8780663c:	e92d 41f0 	stmdb	sp!, {r4, r5, r6, r7, r8, lr}
87806640:	4680      	mov	r8, r0
87806642:	2030      	movs	r0, #48	; 0x30
87806644:	460d      	mov	r5, r1
87806646:	4617      	mov	r7, r2
87806648:	461e      	mov	r6, r3
8780664a:	f000 fab5 	bl	87806bb8 <pvPortMalloc>
8780664e:	4604      	mov	r4, r0
87806650:	b178      	cbz	r0, 87806672 <xTimerCreate+0x36>
87806652:	b18d      	cbz	r5, 87806678 <xTimerCreate+0x3c>
87806654:	f7ff ff66 	bl	87806524 <prvCheckForValidListAndQueue>
87806658:	9b06      	ldr	r3, [sp, #24]
8780665a:	1d20      	adds	r0, r4, #4
8780665c:	f8c4 8000 	str.w	r8, [r4]
87806660:	61a5      	str	r5, [r4, #24]
87806662:	6263      	str	r3, [r4, #36]	; 0x24
87806664:	61e7      	str	r7, [r4, #28]
87806666:	6226      	str	r6, [r4, #32]
87806668:	f7fd ffae 	bl	878045c8 <vListInitialiseItem>
8780666c:	2300      	movs	r3, #0
8780666e:	f884 302c 	strb.w	r3, [r4, #44]	; 0x2c
87806672:	4620      	mov	r0, r4
87806674:	e8bd 81f0 	ldmia.w	sp!, {r4, r5, r6, r7, r8, pc}
87806678:	f64b 40a8 	movw	r0, #48296	; 0xbca8
8780667c:	f44f 71c6 	mov.w	r1, #396	; 0x18c
87806680:	f2c8 7080 	movt	r0, #34688	; 0x8780
87806684:	f7f9 ff4c 	bl	87800520 <vAssertCalled>
87806688:	e7e4      	b.n	87806654 <xTimerCreate+0x18>
8780668a:	bf00      	nop

8780668c <xTimerCreateStatic>:
8780668c:	e92d 41f0 	stmdb	sp!, {r4, r5, r6, r7, r8, lr}
87806690:	2430      	movs	r4, #48	; 0x30
87806692:	b082      	sub	sp, #8
87806694:	460d      	mov	r5, r1
87806696:	4606      	mov	r6, r0
87806698:	4617      	mov	r7, r2
8780669a:	9401      	str	r4, [sp, #4]
8780669c:	4698      	mov	r8, r3
8780669e:	9901      	ldr	r1, [sp, #4]
878066a0:	9c09      	ldr	r4, [sp, #36]	; 0x24
878066a2:	2930      	cmp	r1, #48	; 0x30
878066a4:	d007      	beq.n	878066b6 <xTimerCreateStatic+0x2a>
878066a6:	f64b 40a8 	movw	r0, #48296	; 0xbca8
878066aa:	f240 1169 	movw	r1, #361	; 0x169
878066ae:	f2c8 7080 	movt	r0, #34688	; 0x8780
878066b2:	f7f9 ff35 	bl	87800520 <vAssertCalled>
878066b6:	b1e4      	cbz	r4, 878066f2 <xTimerCreateStatic+0x66>
878066b8:	b195      	cbz	r5, 878066e0 <xTimerCreateStatic+0x54>
878066ba:	f7ff ff33 	bl	87806524 <prvCheckForValidListAndQueue>
878066be:	9b08      	ldr	r3, [sp, #32]
878066c0:	1d20      	adds	r0, r4, #4
878066c2:	6026      	str	r6, [r4, #0]
878066c4:	61a5      	str	r5, [r4, #24]
878066c6:	6263      	str	r3, [r4, #36]	; 0x24
878066c8:	61e7      	str	r7, [r4, #28]
878066ca:	f8c4 8020 	str.w	r8, [r4, #32]
878066ce:	f7fd ff7b 	bl	878045c8 <vListInitialiseItem>
878066d2:	2301      	movs	r3, #1
878066d4:	f884 302c 	strb.w	r3, [r4, #44]	; 0x2c
878066d8:	4620      	mov	r0, r4
878066da:	b002      	add	sp, #8
878066dc:	e8bd 81f0 	ldmia.w	sp!, {r4, r5, r6, r7, r8, pc}
878066e0:	f64b 40a8 	movw	r0, #48296	; 0xbca8
878066e4:	f44f 71c6 	mov.w	r1, #396	; 0x18c
878066e8:	f2c8 7080 	movt	r0, #34688	; 0x8780
878066ec:	f7f9 ff18 	bl	87800520 <vAssertCalled>
878066f0:	e7e3      	b.n	878066ba <xTimerCreateStatic+0x2e>
878066f2:	f64b 40a8 	movw	r0, #48296	; 0xbca8
878066f6:	f44f 71b7 	mov.w	r1, #366	; 0x16e
878066fa:	f2c8 7080 	movt	r0, #34688	; 0x8780
878066fe:	f7f9 ff0f 	bl	87800520 <vAssertCalled>
87806702:	e7e9      	b.n	878066d8 <xTimerCreateStatic+0x4c>

87806704 <xTimerGenericCommand>:
87806704:	b570      	push	{r4, r5, r6, lr}
87806706:	460e      	mov	r6, r1
87806708:	b086      	sub	sp, #24
8780670a:	4605      	mov	r5, r0
8780670c:	b308      	cbz	r0, 87806752 <xTimerGenericCommand+0x4e>
8780670e:	f64d 04ac 	movw	r4, #55468	; 0xd8ac
87806712:	f2c8 7480 	movt	r4, #34688	; 0x8780
87806716:	6820      	ldr	r0, [r4, #0]
87806718:	b190      	cbz	r0, 87806740 <xTimerGenericCommand+0x3c>
8780671a:	2e05      	cmp	r6, #5
8780671c:	9602      	str	r6, [sp, #8]
8780671e:	9203      	str	r2, [sp, #12]
87806720:	9504      	str	r5, [sp, #16]
87806722:	dc0f      	bgt.n	87806744 <xTimerGenericCommand+0x40>
87806724:	f7ff fb6c 	bl	87805e00 <xTaskGetSchedulerState>
87806728:	2802      	cmp	r0, #2
8780672a:	a902      	add	r1, sp, #8
8780672c:	bf11      	iteee	ne
8780672e:	2300      	movne	r3, #0
87806730:	6820      	ldreq	r0, [r4, #0]
87806732:	2300      	moveq	r3, #0
87806734:	9a0a      	ldreq	r2, [sp, #40]	; 0x28
87806736:	bf1c      	itt	ne
87806738:	6820      	ldrne	r0, [r4, #0]
8780673a:	461a      	movne	r2, r3
8780673c:	f7fd fa8e 	bl	87803c5c <xQueueGenericSend>
87806740:	b006      	add	sp, #24
87806742:	bd70      	pop	{r4, r5, r6, pc}
87806744:	461a      	mov	r2, r3
87806746:	a902      	add	r1, sp, #8
87806748:	2300      	movs	r3, #0
8780674a:	f7fd fb97 	bl	87803e7c <xQueueGenericSendFromISR>
8780674e:	b006      	add	sp, #24
87806750:	bd70      	pop	{r4, r5, r6, pc}
87806752:	f64b 40a8 	movw	r0, #48296	; 0xbca8
87806756:	f44f 71d3 	mov.w	r1, #422	; 0x1a6
8780675a:	f2c8 7080 	movt	r0, #34688	; 0x8780
8780675e:	e88d 000c 	stmia.w	sp, {r2, r3}
87806762:	f7f9 fedd 	bl	87800520 <vAssertCalled>
87806766:	e89d 000c 	ldmia.w	sp, {r2, r3}
8780676a:	e7d0      	b.n	8780670e <xTimerGenericCommand+0xa>

8780676c <prvSwitchTimerLists>:
8780676c:	e92d 47f0 	stmdb	sp!, {r4, r5, r6, r7, r8, r9, sl, lr}
87806770:	f64d 05ac 	movw	r5, #55468	; 0xd8ac
87806774:	f2c8 7580 	movt	r5, #34688	; 0x8780
87806778:	b082      	sub	sp, #8
8780677a:	f04f 0800 	mov.w	r8, #0
8780677e:	46aa      	mov	sl, r5
87806780:	e00d      	b.n	8780679e <prvSwitchTimerLists+0x32>
87806782:	68d3      	ldr	r3, [r2, #12]
87806784:	68dc      	ldr	r4, [r3, #12]
87806786:	681f      	ldr	r7, [r3, #0]
87806788:	f104 0904 	add.w	r9, r4, #4
8780678c:	4648      	mov	r0, r9
8780678e:	f7fd ff49 	bl	87804624 <uxListRemove>
87806792:	6a63      	ldr	r3, [r4, #36]	; 0x24
87806794:	4620      	mov	r0, r4
87806796:	4798      	blx	r3
87806798:	69e3      	ldr	r3, [r4, #28]
8780679a:	2b01      	cmp	r3, #1
8780679c:	d00d      	beq.n	878067ba <prvSwitchTimerLists+0x4e>
8780679e:	6aea      	ldr	r2, [r5, #44]	; 0x2c
878067a0:	f64d 03ac 	movw	r3, #55468	; 0xd8ac
878067a4:	f2c8 7380 	movt	r3, #34688	; 0x8780
878067a8:	6811      	ldr	r1, [r2, #0]
878067aa:	2900      	cmp	r1, #0
878067ac:	d1e9      	bne.n	87806782 <prvSwitchTimerLists+0x16>
878067ae:	6b19      	ldr	r1, [r3, #48]	; 0x30
878067b0:	631a      	str	r2, [r3, #48]	; 0x30
878067b2:	62d9      	str	r1, [r3, #44]	; 0x2c
878067b4:	b002      	add	sp, #8
878067b6:	e8bd 87f0 	ldmia.w	sp!, {r4, r5, r6, r7, r8, r9, sl, pc}
878067ba:	69a6      	ldr	r6, [r4, #24]
878067bc:	2300      	movs	r3, #0
878067be:	4619      	mov	r1, r3
878067c0:	463a      	mov	r2, r7
878067c2:	4620      	mov	r0, r4
878067c4:	443e      	add	r6, r7
878067c6:	42be      	cmp	r6, r7
878067c8:	d907      	bls.n	878067da <prvSwitchTimerLists+0x6e>
878067ca:	6066      	str	r6, [r4, #4]
878067cc:	4649      	mov	r1, r9
878067ce:	6124      	str	r4, [r4, #16]
878067d0:	f8da 002c 	ldr.w	r0, [sl, #44]	; 0x2c
878067d4:	f7fd ff0c 	bl	878045f0 <vListInsert>
878067d8:	e7e1      	b.n	8780679e <prvSwitchTimerLists+0x32>
878067da:	f8cd 8000 	str.w	r8, [sp]
878067de:	f7ff ff91 	bl	87806704 <xTimerGenericCommand>
878067e2:	2800      	cmp	r0, #0
878067e4:	d1db      	bne.n	8780679e <prvSwitchTimerLists+0x32>
878067e6:	f64b 40a8 	movw	r0, #48296	; 0xbca8
878067ea:	f240 3192 	movw	r1, #914	; 0x392
878067ee:	f2c8 7080 	movt	r0, #34688	; 0x8780
878067f2:	f7f9 fe95 	bl	87800520 <vAssertCalled>
878067f6:	e7d2      	b.n	8780679e <prvSwitchTimerLists+0x32>

878067f8 <prvTimerTask>:
878067f8:	e92d 43f0 	stmdb	sp!, {r4, r5, r6, r7, r8, r9, lr}
878067fc:	f64d 05ac 	movw	r5, #55468	; 0xd8ac
87806800:	f2c8 7580 	movt	r5, #34688	; 0x8780
87806804:	b087      	sub	sp, #28
87806806:	f04f 0800 	mov.w	r8, #0
8780680a:	462e      	mov	r6, r5
8780680c:	6aeb      	ldr	r3, [r5, #44]	; 0x2c
8780680e:	681f      	ldr	r7, [r3, #0]
87806810:	2f00      	cmp	r7, #0
87806812:	f000 808e 	beq.w	87806932 <prvTimerTask+0x13a>
87806816:	68db      	ldr	r3, [r3, #12]
87806818:	681f      	ldr	r7, [r3, #0]
8780681a:	f7fe fddf 	bl	878053dc <vTaskSuspendAll>
8780681e:	f7fe fde7 	bl	878053f0 <xTaskGetTickCount>
87806822:	f8d6 30dc 	ldr.w	r3, [r6, #220]	; 0xdc
87806826:	4604      	mov	r4, r0
87806828:	4298      	cmp	r0, r3
8780682a:	f0c0 8093 	bcc.w	87806954 <prvTimerTask+0x15c>
8780682e:	42b8      	cmp	r0, r7
87806830:	f8c6 00dc 	str.w	r0, [r6, #220]	; 0xdc
87806834:	bf38      	it	cc
87806836:	2200      	movcc	r2, #0
87806838:	f080 8096 	bcs.w	87806968 <prvTimerTask+0x170>
8780683c:	1b39      	subs	r1, r7, r4
8780683e:	6828      	ldr	r0, [r5, #0]
87806840:	f7fd fe4c 	bl	878044dc <vQueueWaitForMessageRestricted>
87806844:	f7fe fe94 	bl	87805570 <xTaskResumeAll>
87806848:	b900      	cbnz	r0, 8780684c <prvTimerTask+0x54>
8780684a:	df00      	svc	0
8780684c:	2300      	movs	r3, #0
8780684e:	a902      	add	r1, sp, #8
87806850:	461a      	mov	r2, r3
87806852:	6828      	ldr	r0, [r5, #0]
87806854:	f7fd fbea 	bl	8780402c <xQueueGenericReceive>
87806858:	2800      	cmp	r0, #0
8780685a:	d0d7      	beq.n	8780680c <prvTimerTask+0x14>
8780685c:	9b02      	ldr	r3, [sp, #8]
8780685e:	2b00      	cmp	r3, #0
87806860:	db5f      	blt.n	87806922 <prvTimerTask+0x12a>
87806862:	9c04      	ldr	r4, [sp, #16]
87806864:	6963      	ldr	r3, [r4, #20]
87806866:	b113      	cbz	r3, 8780686e <prvTimerTask+0x76>
87806868:	1d20      	adds	r0, r4, #4
8780686a:	f7fd fedb 	bl	87804624 <uxListRemove>
8780686e:	f7fe fdbf 	bl	878053f0 <xTaskGetTickCount>
87806872:	f8d5 30dc 	ldr.w	r3, [r5, #220]	; 0xdc
87806876:	4607      	mov	r7, r0
87806878:	4298      	cmp	r0, r3
8780687a:	d372      	bcc.n	87806962 <prvTimerTask+0x16a>
8780687c:	9b02      	ldr	r3, [sp, #8]
8780687e:	f8c5 70dc 	str.w	r7, [r5, #220]	; 0xdc
87806882:	2b09      	cmp	r3, #9
87806884:	d8e2      	bhi.n	8780684c <prvTimerTask+0x54>
87806886:	a201      	add	r2, pc, #4	; (adr r2, 8780688c <prvTimerTask+0x94>)
87806888:	f852 f023 	ldr.w	pc, [r2, r3, lsl #2]
8780688c:	878068cb 	strhi	r6, [r0, fp, asr #17]
87806890:	878068cb 	strhi	r6, [r0, fp, asr #17]
87806894:	878068cb 	strhi	r6, [r0, fp, asr #17]
87806898:	8780684d 	strhi	r6, [r0, sp, asr #16]
8780689c:	878068b5 			; <UNDEFINED> instruction: 0x878068b5
878068a0:	87806913 	usada8hi	r0, r3, r9, r6
878068a4:	878068cb 	strhi	r6, [r0, fp, asr #17]
878068a8:	878068cb 	strhi	r6, [r0, fp, asr #17]
878068ac:	8780684d 	strhi	r6, [r0, sp, asr #16]
878068b0:	878068b5 			; <UNDEFINED> instruction: 0x878068b5
878068b4:	9903      	ldr	r1, [sp, #12]
878068b6:	61a1      	str	r1, [r4, #24]
878068b8:	2900      	cmp	r1, #0
878068ba:	d068      	beq.n	8780698e <prvTimerTask+0x196>
878068bc:	4439      	add	r1, r7
878068be:	4620      	mov	r0, r4
878068c0:	463b      	mov	r3, r7
878068c2:	463a      	mov	r2, r7
878068c4:	f7ff fe5c 	bl	87806580 <prvInsertTimerInActiveList>
878068c8:	e7c0      	b.n	8780684c <prvTimerTask+0x54>
878068ca:	9b03      	ldr	r3, [sp, #12]
878068cc:	463a      	mov	r2, r7
878068ce:	69a1      	ldr	r1, [r4, #24]
878068d0:	4620      	mov	r0, r4
878068d2:	4419      	add	r1, r3
878068d4:	f7ff fe54 	bl	87806580 <prvInsertTimerInActiveList>
878068d8:	2800      	cmp	r0, #0
878068da:	d0b7      	beq.n	8780684c <prvTimerTask+0x54>
878068dc:	6a63      	ldr	r3, [r4, #36]	; 0x24
878068de:	4620      	mov	r0, r4
878068e0:	4798      	blx	r3
878068e2:	69e3      	ldr	r3, [r4, #28]
878068e4:	2b01      	cmp	r3, #1
878068e6:	d1b1      	bne.n	8780684c <prvTimerTask+0x54>
878068e8:	69a2      	ldr	r2, [r4, #24]
878068ea:	2300      	movs	r3, #0
878068ec:	9f03      	ldr	r7, [sp, #12]
878068ee:	4620      	mov	r0, r4
878068f0:	f8cd 8000 	str.w	r8, [sp]
878068f4:	4619      	mov	r1, r3
878068f6:	443a      	add	r2, r7
878068f8:	f7ff ff04 	bl	87806704 <xTimerGenericCommand>
878068fc:	2800      	cmp	r0, #0
878068fe:	d1a5      	bne.n	8780684c <prvTimerTask+0x54>
87806900:	f64b 40a8 	movw	r0, #48296	; 0xbca8
87806904:	f240 3121 	movw	r1, #801	; 0x321
87806908:	f2c8 7080 	movt	r0, #34688	; 0x8780
8780690c:	f7f9 fe08 	bl	87800520 <vAssertCalled>
87806910:	e79c      	b.n	8780684c <prvTimerTask+0x54>
87806912:	f894 302c 	ldrb.w	r3, [r4, #44]	; 0x2c
87806916:	2b00      	cmp	r3, #0
87806918:	d198      	bne.n	8780684c <prvTimerTask+0x54>
8780691a:	4620      	mov	r0, r4
8780691c:	f000 fa08 	bl	87806d30 <vPortFree>
87806920:	e794      	b.n	8780684c <prvTimerTask+0x54>
87806922:	9b03      	ldr	r3, [sp, #12]
87806924:	9905      	ldr	r1, [sp, #20]
87806926:	9804      	ldr	r0, [sp, #16]
87806928:	4798      	blx	r3
8780692a:	9b02      	ldr	r3, [sp, #8]
8780692c:	2b00      	cmp	r3, #0
8780692e:	db8d      	blt.n	8780684c <prvTimerTask+0x54>
87806930:	e797      	b.n	87806862 <prvTimerTask+0x6a>
87806932:	f7fe fd53 	bl	878053dc <vTaskSuspendAll>
87806936:	f7fe fd5b 	bl	878053f0 <xTaskGetTickCount>
8780693a:	f8d6 30dc 	ldr.w	r3, [r6, #220]	; 0xdc
8780693e:	4604      	mov	r4, r0
87806940:	4298      	cmp	r0, r3
87806942:	d307      	bcc.n	87806954 <prvTimerTask+0x15c>
87806944:	6b33      	ldr	r3, [r6, #48]	; 0x30
87806946:	f8c6 40dc 	str.w	r4, [r6, #220]	; 0xdc
8780694a:	681a      	ldr	r2, [r3, #0]
8780694c:	fab2 f282 	clz	r2, r2
87806950:	0952      	lsrs	r2, r2, #5
87806952:	e773      	b.n	8780683c <prvTimerTask+0x44>
87806954:	f7ff ff0a 	bl	8780676c <prvSwitchTimerLists>
87806958:	f8c5 40dc 	str.w	r4, [r5, #220]	; 0xdc
8780695c:	f7fe fe08 	bl	87805570 <xTaskResumeAll>
87806960:	e774      	b.n	8780684c <prvTimerTask+0x54>
87806962:	f7ff ff03 	bl	8780676c <prvSwitchTimerLists>
87806966:	e789      	b.n	8780687c <prvTimerTask+0x84>
87806968:	f7fe fe02 	bl	87805570 <xTaskResumeAll>
8780696c:	6af3      	ldr	r3, [r6, #44]	; 0x2c
8780696e:	68db      	ldr	r3, [r3, #12]
87806970:	f8d3 900c 	ldr.w	r9, [r3, #12]
87806974:	f109 0004 	add.w	r0, r9, #4
87806978:	f7fd fe54 	bl	87804624 <uxListRemove>
8780697c:	f8d9 301c 	ldr.w	r3, [r9, #28]
87806980:	2b01      	cmp	r3, #1
87806982:	d00e      	beq.n	878069a2 <prvTimerTask+0x1aa>
87806984:	f8d9 3024 	ldr.w	r3, [r9, #36]	; 0x24
87806988:	4648      	mov	r0, r9
8780698a:	4798      	blx	r3
8780698c:	e75e      	b.n	8780684c <prvTimerTask+0x54>
8780698e:	f64b 40a8 	movw	r0, #48296	; 0xbca8
87806992:	f44f 714e 	mov.w	r1, #824	; 0x338
87806996:	f2c8 7080 	movt	r0, #34688	; 0x8780
8780699a:	f7f9 fdc1 	bl	87800520 <vAssertCalled>
8780699e:	69a1      	ldr	r1, [r4, #24]
878069a0:	e78c      	b.n	878068bc <prvTimerTask+0xc4>
878069a2:	f8d9 1018 	ldr.w	r1, [r9, #24]
878069a6:	4622      	mov	r2, r4
878069a8:	463b      	mov	r3, r7
878069aa:	4648      	mov	r0, r9
878069ac:	4439      	add	r1, r7
878069ae:	f7ff fde7 	bl	87806580 <prvInsertTimerInActiveList>
878069b2:	2800      	cmp	r0, #0
878069b4:	d0e6      	beq.n	87806984 <prvTimerTask+0x18c>
878069b6:	2300      	movs	r3, #0
878069b8:	f8cd 8000 	str.w	r8, [sp]
878069bc:	463a      	mov	r2, r7
878069be:	4619      	mov	r1, r3
878069c0:	4648      	mov	r0, r9
878069c2:	f7ff fe9f 	bl	87806704 <xTimerGenericCommand>
878069c6:	2800      	cmp	r0, #0
878069c8:	d1dc      	bne.n	87806984 <prvTimerTask+0x18c>
878069ca:	f64b 40a8 	movw	r0, #48296	; 0xbca8
878069ce:	f44f 7102 	mov.w	r1, #520	; 0x208
878069d2:	f2c8 7080 	movt	r0, #34688	; 0x8780
878069d6:	f7f9 fda3 	bl	87800520 <vAssertCalled>
878069da:	e7d3      	b.n	87806984 <prvTimerTask+0x18c>

878069dc <xTimerGetTimerDaemonTaskHandle>:
878069dc:	b510      	push	{r4, lr}
878069de:	f64d 04ac 	movw	r4, #55468	; 0xd8ac
878069e2:	f2c8 7480 	movt	r4, #34688	; 0x8780
878069e6:	f8d4 00d8 	ldr.w	r0, [r4, #216]	; 0xd8
878069ea:	b100      	cbz	r0, 878069ee <xTimerGetTimerDaemonTaskHandle+0x12>
878069ec:	bd10      	pop	{r4, pc}
878069ee:	f64b 40a8 	movw	r0, #48296	; 0xbca8
878069f2:	f44f 71e8 	mov.w	r1, #464	; 0x1d0
878069f6:	f2c8 7080 	movt	r0, #34688	; 0x8780
878069fa:	f7f9 fd91 	bl	87800520 <vAssertCalled>
878069fe:	f8d4 00d8 	ldr.w	r0, [r4, #216]	; 0xd8
87806a02:	bd10      	pop	{r4, pc}

87806a04 <xTimerGetPeriod>:
87806a04:	b510      	push	{r4, lr}
87806a06:	4604      	mov	r4, r0
87806a08:	b108      	cbz	r0, 87806a0e <xTimerGetPeriod+0xa>
87806a0a:	69a0      	ldr	r0, [r4, #24]
87806a0c:	bd10      	pop	{r4, pc}
87806a0e:	f64b 40a8 	movw	r0, #48296	; 0xbca8
87806a12:	f240 11d9 	movw	r1, #473	; 0x1d9
87806a16:	f2c8 7080 	movt	r0, #34688	; 0x8780
87806a1a:	f7f9 fd81 	bl	87800520 <vAssertCalled>
87806a1e:	69a0      	ldr	r0, [r4, #24]
87806a20:	bd10      	pop	{r4, pc}
87806a22:	bf00      	nop

87806a24 <xTimerGetExpiryTime>:
87806a24:	b510      	push	{r4, lr}
87806a26:	4604      	mov	r4, r0
87806a28:	b108      	cbz	r0, 87806a2e <xTimerGetExpiryTime+0xa>
87806a2a:	6860      	ldr	r0, [r4, #4]
87806a2c:	bd10      	pop	{r4, pc}
87806a2e:	f64b 40a8 	movw	r0, #48296	; 0xbca8
87806a32:	f240 11e3 	movw	r1, #483	; 0x1e3
87806a36:	f2c8 7080 	movt	r0, #34688	; 0x8780
87806a3a:	f7f9 fd71 	bl	87800520 <vAssertCalled>
87806a3e:	6860      	ldr	r0, [r4, #4]
87806a40:	bd10      	pop	{r4, pc}
87806a42:	bf00      	nop

87806a44 <pcTimerGetName>:
87806a44:	b510      	push	{r4, lr}
87806a46:	4604      	mov	r4, r0
87806a48:	b108      	cbz	r0, 87806a4e <pcTimerGetName+0xa>
87806a4a:	6820      	ldr	r0, [r4, #0]
87806a4c:	bd10      	pop	{r4, pc}
87806a4e:	f64b 40a8 	movw	r0, #48296	; 0xbca8
87806a52:	f240 11ed 	movw	r1, #493	; 0x1ed
87806a56:	f2c8 7080 	movt	r0, #34688	; 0x8780
87806a5a:	f7f9 fd61 	bl	87800520 <vAssertCalled>
87806a5e:	6820      	ldr	r0, [r4, #0]
87806a60:	bd10      	pop	{r4, pc}
87806a62:	bf00      	nop

87806a64 <xTimerIsTimerActive>:
87806a64:	b510      	push	{r4, lr}
87806a66:	4604      	mov	r4, r0
87806a68:	b148      	cbz	r0, 87806a7e <xTimerIsTimerActive+0x1a>
87806a6a:	f000 fb21 	bl	878070b0 <vPortEnterCritical>
87806a6e:	6964      	ldr	r4, [r4, #20]
87806a70:	3400      	adds	r4, #0
87806a72:	bf18      	it	ne
87806a74:	2401      	movne	r4, #1
87806a76:	f000 fa89 	bl	87806f8c <vPortExitCritical>
87806a7a:	4620      	mov	r0, r4
87806a7c:	bd10      	pop	{r4, pc}
87806a7e:	f64b 40a8 	movw	r0, #48296	; 0xbca8
87806a82:	f240 31da 	movw	r1, #986	; 0x3da
87806a86:	f2c8 7080 	movt	r0, #34688	; 0x8780
87806a8a:	f7f9 fd49 	bl	87800520 <vAssertCalled>
87806a8e:	e7ec      	b.n	87806a6a <xTimerIsTimerActive+0x6>

87806a90 <pvTimerGetTimerID>:
87806a90:	b510      	push	{r4, lr}
87806a92:	4604      	mov	r4, r0
87806a94:	b130      	cbz	r0, 87806aa4 <pvTimerGetTimerID+0x14>
87806a96:	f000 fb0b 	bl	878070b0 <vPortEnterCritical>
87806a9a:	6a24      	ldr	r4, [r4, #32]
87806a9c:	f000 fa76 	bl	87806f8c <vPortExitCritical>
87806aa0:	4620      	mov	r0, r4
87806aa2:	bd10      	pop	{r4, pc}
87806aa4:	f64b 40a8 	movw	r0, #48296	; 0xbca8
87806aa8:	f240 31ef 	movw	r1, #1007	; 0x3ef
87806aac:	f2c8 7080 	movt	r0, #34688	; 0x8780
87806ab0:	f7f9 fd36 	bl	87800520 <vAssertCalled>
87806ab4:	e7ef      	b.n	87806a96 <pvTimerGetTimerID+0x6>
87806ab6:	bf00      	nop

87806ab8 <vTimerSetTimerID>:
87806ab8:	b538      	push	{r3, r4, r5, lr}
87806aba:	460d      	mov	r5, r1
87806abc:	4604      	mov	r4, r0
87806abe:	b130      	cbz	r0, 87806ace <vTimerSetTimerID+0x16>
87806ac0:	f000 faf6 	bl	878070b0 <vPortEnterCritical>
87806ac4:	6225      	str	r5, [r4, #32]
87806ac6:	e8bd 4038 	ldmia.w	sp!, {r3, r4, r5, lr}
87806aca:	f000 ba5f 	b.w	87806f8c <vPortExitCritical>
87806ace:	f64b 40a8 	movw	r0, #48296	; 0xbca8
87806ad2:	f240 31ff 	movw	r1, #1023	; 0x3ff
87806ad6:	f2c8 7080 	movt	r0, #34688	; 0x8780
87806ada:	f7f9 fd21 	bl	87800520 <vAssertCalled>
87806ade:	f000 fae7 	bl	878070b0 <vPortEnterCritical>
87806ae2:	6225      	str	r5, [r4, #32]
87806ae4:	e8bd 4038 	ldmia.w	sp!, {r3, r4, r5, lr}
87806ae8:	f000 ba50 	b.w	87806f8c <vPortExitCritical>

87806aec <xTimerPendFunctionCallFromISR>:
87806aec:	b570      	push	{r4, r5, r6, lr}
87806aee:	f64d 04ac 	movw	r4, #55468	; 0xd8ac
87806af2:	b084      	sub	sp, #16
87806af4:	461e      	mov	r6, r3
87806af6:	f2c8 7480 	movt	r4, #34688	; 0x8780
87806afa:	f06f 0501 	mvn.w	r5, #1
87806afe:	9001      	str	r0, [sp, #4]
87806b00:	2300      	movs	r3, #0
87806b02:	9102      	str	r1, [sp, #8]
87806b04:	4669      	mov	r1, sp
87806b06:	9203      	str	r2, [sp, #12]
87806b08:	4632      	mov	r2, r6
87806b0a:	6820      	ldr	r0, [r4, #0]
87806b0c:	9500      	str	r5, [sp, #0]
87806b0e:	f7fd f9b5 	bl	87803e7c <xQueueGenericSendFromISR>
87806b12:	b004      	add	sp, #16
87806b14:	bd70      	pop	{r4, r5, r6, pc}
87806b16:	bf00      	nop

87806b18 <xTimerPendFunctionCall>:
87806b18:	b5f0      	push	{r4, r5, r6, r7, lr}
87806b1a:	f64d 04ac 	movw	r4, #55468	; 0xd8ac
87806b1e:	f2c8 7480 	movt	r4, #34688	; 0x8780
87806b22:	4607      	mov	r7, r0
87806b24:	b087      	sub	sp, #28
87806b26:	460e      	mov	r6, r1
87806b28:	6820      	ldr	r0, [r4, #0]
87806b2a:	4615      	mov	r5, r2
87806b2c:	b160      	cbz	r0, 87806b48 <xTimerPendFunctionCall+0x30>
87806b2e:	461a      	mov	r2, r3
87806b30:	f04f 34ff 	mov.w	r4, #4294967295	; 0xffffffff
87806b34:	2300      	movs	r3, #0
87806b36:	a902      	add	r1, sp, #8
87806b38:	9703      	str	r7, [sp, #12]
87806b3a:	9604      	str	r6, [sp, #16]
87806b3c:	9505      	str	r5, [sp, #20]
87806b3e:	9402      	str	r4, [sp, #8]
87806b40:	f7fd f88c 	bl	87803c5c <xQueueGenericSend>
87806b44:	b007      	add	sp, #28
87806b46:	bdf0      	pop	{r4, r5, r6, r7, pc}
87806b48:	f64b 40a8 	movw	r0, #48296	; 0xbca8
87806b4c:	f240 412b 	movw	r1, #1067	; 0x42b
87806b50:	f2c8 7080 	movt	r0, #34688	; 0x8780
87806b54:	9301      	str	r3, [sp, #4]
87806b56:	f7f9 fce3 	bl	87800520 <vAssertCalled>
87806b5a:	6820      	ldr	r0, [r4, #0]
87806b5c:	9b01      	ldr	r3, [sp, #4]
87806b5e:	e7e6      	b.n	87806b2e <xTimerPendFunctionCall+0x16>

87806b60 <prvInsertBlockIntoFreeList>:
87806b60:	f64d 118c 	movw	r1, #55692	; 0xd98c
87806b64:	f2c8 7180 	movt	r1, #34688	; 0x8780
87806b68:	460a      	mov	r2, r1
87806b6a:	e000      	b.n	87806b6e <prvInsertBlockIntoFreeList+0xe>
87806b6c:	461a      	mov	r2, r3
87806b6e:	6813      	ldr	r3, [r2, #0]
87806b70:	4283      	cmp	r3, r0
87806b72:	d3fb      	bcc.n	87806b6c <prvInsertBlockIntoFreeList+0xc>
87806b74:	b430      	push	{r4, r5}
87806b76:	6855      	ldr	r5, [r2, #4]
87806b78:	1954      	adds	r4, r2, r5
87806b7a:	4284      	cmp	r4, r0
87806b7c:	6844      	ldr	r4, [r0, #4]
87806b7e:	bf04      	itt	eq
87806b80:	4610      	moveq	r0, r2
87806b82:	1964      	addeq	r4, r4, r5
87806b84:	eb00 0504 	add.w	r5, r0, r4
87806b88:	bf08      	it	eq
87806b8a:	6054      	streq	r4, [r2, #4]
87806b8c:	42ab      	cmp	r3, r5
87806b8e:	d005      	beq.n	87806b9c <prvInsertBlockIntoFreeList+0x3c>
87806b90:	4290      	cmp	r0, r2
87806b92:	6003      	str	r3, [r0, #0]
87806b94:	bc30      	pop	{r4, r5}
87806b96:	bf18      	it	ne
87806b98:	6010      	strne	r0, [r2, #0]
87806b9a:	4770      	bx	lr
87806b9c:	6889      	ldr	r1, [r1, #8]
87806b9e:	428b      	cmp	r3, r1
87806ba0:	d0f6      	beq.n	87806b90 <prvInsertBlockIntoFreeList+0x30>
87806ba2:	6859      	ldr	r1, [r3, #4]
87806ba4:	4290      	cmp	r0, r2
87806ba6:	681b      	ldr	r3, [r3, #0]
87806ba8:	440c      	add	r4, r1
87806baa:	e880 0018 	stmia.w	r0, {r3, r4}
87806bae:	bf18      	it	ne
87806bb0:	6010      	strne	r0, [r2, #0]
87806bb2:	bc30      	pop	{r4, r5}
87806bb4:	4770      	bx	lr
87806bb6:	bf00      	nop

87806bb8 <pvPortMalloc>:
87806bb8:	e92d 4ff0 	stmdb	sp!, {r4, r5, r6, r7, r8, r9, sl, fp, lr}
87806bbc:	b083      	sub	sp, #12
87806bbe:	4605      	mov	r5, r0
87806bc0:	f7fe fc0c 	bl	878053dc <vTaskSuspendAll>
87806bc4:	f64d 1e8c 	movw	lr, #55692	; 0xd98c
87806bc8:	f2c8 7e80 	movt	lr, #34688	; 0x8780
87806bcc:	f8de 3008 	ldr.w	r3, [lr, #8]
87806bd0:	2b00      	cmp	r3, #0
87806bd2:	f000 8081 	beq.w	87806cd8 <pvPortMalloc+0x120>
87806bd6:	f8de 800c 	ldr.w	r8, [lr, #12]
87806bda:	ea18 0f05 	tst.w	r8, r5
87806bde:	d166      	bne.n	87806cae <pvPortMalloc+0xf6>
87806be0:	2d00      	cmp	r5, #0
87806be2:	d064      	beq.n	87806cae <pvPortMalloc+0xf6>
87806be4:	3508      	adds	r5, #8
87806be6:	076b      	lsls	r3, r5, #29
87806be8:	bf1c      	itt	ne
87806bea:	f025 0507 	bicne.w	r5, r5, #7
87806bee:	3508      	addne	r5, #8
87806bf0:	2d00      	cmp	r5, #0
87806bf2:	d05c      	beq.n	87806cae <pvPortMalloc+0xf6>
87806bf4:	f643 57e4 	movw	r7, #15844	; 0x3de4
87806bf8:	f2c8 7782 	movt	r7, #34690	; 0x8782
87806bfc:	f8d7 63bc 	ldr.w	r6, [r7, #956]	; 0x3bc
87806c00:	42b5      	cmp	r5, r6
87806c02:	d854      	bhi.n	87806cae <pvPortMalloc+0xf6>
87806c04:	f8de 4000 	ldr.w	r4, [lr]
87806c08:	f64d 1e8c 	movw	lr, #55692	; 0xd98c
87806c0c:	f2c8 7e80 	movt	lr, #34688	; 0x8780
87806c10:	4671      	mov	r1, lr
87806c12:	e003      	b.n	87806c1c <pvPortMalloc+0x64>
87806c14:	6823      	ldr	r3, [r4, #0]
87806c16:	b123      	cbz	r3, 87806c22 <pvPortMalloc+0x6a>
87806c18:	4621      	mov	r1, r4
87806c1a:	461c      	mov	r4, r3
87806c1c:	6862      	ldr	r2, [r4, #4]
87806c1e:	4295      	cmp	r5, r2
87806c20:	d8f8      	bhi.n	87806c14 <pvPortMalloc+0x5c>
87806c22:	f8de 3008 	ldr.w	r3, [lr, #8]
87806c26:	f64d 198c 	movw	r9, #55692	; 0xd98c
87806c2a:	4610      	mov	r0, r2
87806c2c:	f2c8 7980 	movt	r9, #34688	; 0x8780
87806c30:	42a3      	cmp	r3, r4
87806c32:	d03c      	beq.n	87806cae <pvPortMalloc+0xf6>
87806c34:	6823      	ldr	r3, [r4, #0]
87806c36:	1b52      	subs	r2, r2, r5
87806c38:	2a10      	cmp	r2, #16
87806c3a:	9301      	str	r3, [sp, #4]
87806c3c:	680b      	ldr	r3, [r1, #0]
87806c3e:	f103 0a08 	add.w	sl, r3, #8
87806c42:	9b01      	ldr	r3, [sp, #4]
87806c44:	600b      	str	r3, [r1, #0]
87806c46:	d90b      	bls.n	87806c60 <pvPortMalloc+0xa8>
87806c48:	eb04 0b05 	add.w	fp, r4, r5
87806c4c:	f01b 0f07 	tst.w	fp, #7
87806c50:	d134      	bne.n	87806cbc <pvPortMalloc+0x104>
87806c52:	f8cb 2004 	str.w	r2, [fp, #4]
87806c56:	4658      	mov	r0, fp
87806c58:	6065      	str	r5, [r4, #4]
87806c5a:	f7ff ff81 	bl	87806b60 <prvInsertBlockIntoFreeList>
87806c5e:	6860      	ldr	r0, [r4, #4]
87806c60:	f8d7 23b8 	ldr.w	r2, [r7, #952]	; 0x3b8
87806c64:	1a36      	subs	r6, r6, r0
87806c66:	f643 53e4 	movw	r3, #15844	; 0x3de4
87806c6a:	f8c7 63bc 	str.w	r6, [r7, #956]	; 0x3bc
87806c6e:	f2c8 7382 	movt	r3, #34690	; 0x8782
87806c72:	4296      	cmp	r6, r2
87806c74:	f04f 0200 	mov.w	r2, #0
87806c78:	bf38      	it	cc
87806c7a:	f8c3 63b8 	strcc.w	r6, [r3, #952]	; 0x3b8
87806c7e:	ea48 0300 	orr.w	r3, r8, r0
87806c82:	e884 000c 	stmia.w	r4, {r2, r3}
87806c86:	f7fe fc73 	bl	87805570 <xTaskResumeAll>
87806c8a:	f1ba 0f00 	cmp.w	sl, #0
87806c8e:	d010      	beq.n	87806cb2 <pvPortMalloc+0xfa>
87806c90:	f01a 0f07 	tst.w	sl, #7
87806c94:	d007      	beq.n	87806ca6 <pvPortMalloc+0xee>
87806c96:	f64b 40c8 	movw	r0, #48328	; 0xbcc8
87806c9a:	f44f 7196 	mov.w	r1, #300	; 0x12c
87806c9e:	f2c8 7080 	movt	r0, #34688	; 0x8780
87806ca2:	f7f9 fc3d 	bl	87800520 <vAssertCalled>
87806ca6:	4650      	mov	r0, sl
87806ca8:	b003      	add	sp, #12
87806caa:	e8bd 8ff0 	ldmia.w	sp!, {r4, r5, r6, r7, r8, r9, sl, fp, pc}
87806cae:	f7fe fc5f 	bl	87805570 <xTaskResumeAll>
87806cb2:	f7f9 fc1f 	bl	878004f4 <vApplicationMallocFailedHook>
87806cb6:	f04f 0a00 	mov.w	sl, #0
87806cba:	e7f4      	b.n	87806ca6 <pvPortMalloc+0xee>
87806cbc:	f64b 40c8 	movw	r0, #48328	; 0xbcc8
87806cc0:	21ec      	movs	r1, #236	; 0xec
87806cc2:	f2c8 7080 	movt	r0, #34688	; 0x8780
87806cc6:	f7f9 fc2b 	bl	87800520 <vAssertCalled>
87806cca:	6862      	ldr	r2, [r4, #4]
87806ccc:	f8d9 800c 	ldr.w	r8, [r9, #12]
87806cd0:	f8d7 63bc 	ldr.w	r6, [r7, #956]	; 0x3bc
87806cd4:	1b52      	subs	r2, r2, r5
87806cd6:	e7bc      	b.n	87806c52 <pvPortMalloc+0x9a>
87806cd8:	f10e 0210 	add.w	r2, lr, #16
87806cdc:	2400      	movs	r4, #0
87806cde:	0751      	lsls	r1, r2, #29
87806ce0:	f04f 4600 	mov.w	r6, #2147483648	; 0x80000000
87806ce4:	bf1d      	ittte	ne
87806ce6:	f10e 0117 	addne.w	r1, lr, #23
87806cea:	f502 33b4 	addne.w	r3, r2, #92160	; 0x16800
87806cee:	f021 0107 	bicne.w	r1, r1, #7
87806cf2:	f44f 33b4 	moveq.w	r3, #92160	; 0x16800
87806cf6:	bf1c      	itt	ne
87806cf8:	460a      	movne	r2, r1
87806cfa:	1a5b      	subne	r3, r3, r1
87806cfc:	4413      	add	r3, r2
87806cfe:	f643 51e4 	movw	r1, #15844	; 0x3de4
87806d02:	3b08      	subs	r3, #8
87806d04:	f2c8 7182 	movt	r1, #34690	; 0x8782
87806d08:	f023 0307 	bic.w	r3, r3, #7
87806d0c:	e88e 0014 	stmia.w	lr, {r2, r4}
87806d10:	1a98      	subs	r0, r3, r2
87806d12:	605c      	str	r4, [r3, #4]
87806d14:	601c      	str	r4, [r3, #0]
87806d16:	46b0      	mov	r8, r6
87806d18:	f8ce 3008 	str.w	r3, [lr, #8]
87806d1c:	f8c1 03b8 	str.w	r0, [r1, #952]	; 0x3b8
87806d20:	f8c1 03bc 	str.w	r0, [r1, #956]	; 0x3bc
87806d24:	6050      	str	r0, [r2, #4]
87806d26:	6013      	str	r3, [r2, #0]
87806d28:	f8ce 600c 	str.w	r6, [lr, #12]
87806d2c:	e755      	b.n	87806bda <pvPortMalloc+0x22>
87806d2e:	bf00      	nop

87806d30 <vPortFree>:
87806d30:	2800      	cmp	r0, #0
87806d32:	d049      	beq.n	87806dc8 <vPortFree+0x98>
87806d34:	b538      	push	{r3, r4, r5, lr}
87806d36:	f64d 158c 	movw	r5, #55692	; 0xd98c
87806d3a:	f2c8 7580 	movt	r5, #34688	; 0x8780
87806d3e:	f850 3c04 	ldr.w	r3, [r0, #-4]
87806d42:	4604      	mov	r4, r0
87806d44:	68ea      	ldr	r2, [r5, #12]
87806d46:	421a      	tst	r2, r3
87806d48:	d013      	beq.n	87806d72 <vPortFree+0x42>
87806d4a:	f850 1c08 	ldr.w	r1, [r0, #-8]
87806d4e:	b309      	cbz	r1, 87806d94 <vPortFree+0x64>
87806d50:	f64b 40c8 	movw	r0, #48328	; 0xbcc8
87806d54:	f240 1141 	movw	r1, #321	; 0x141
87806d58:	f2c8 7080 	movt	r0, #34688	; 0x8780
87806d5c:	f7f9 fbe0 	bl	87800520 <vAssertCalled>
87806d60:	68ea      	ldr	r2, [r5, #12]
87806d62:	f854 3c04 	ldr.w	r3, [r4, #-4]
87806d66:	421a      	tst	r2, r3
87806d68:	d002      	beq.n	87806d70 <vPortFree+0x40>
87806d6a:	f854 1c08 	ldr.w	r1, [r4, #-8]
87806d6e:	b189      	cbz	r1, 87806d94 <vPortFree+0x64>
87806d70:	bd38      	pop	{r3, r4, r5, pc}
87806d72:	f64b 40c8 	movw	r0, #48328	; 0xbcc8
87806d76:	f44f 71a0 	mov.w	r1, #320	; 0x140
87806d7a:	f2c8 7080 	movt	r0, #34688	; 0x8780
87806d7e:	f7f9 fbcf 	bl	87800520 <vAssertCalled>
87806d82:	f854 3c08 	ldr.w	r3, [r4, #-8]
87806d86:	2b00      	cmp	r3, #0
87806d88:	d1e2      	bne.n	87806d50 <vPortFree+0x20>
87806d8a:	68ea      	ldr	r2, [r5, #12]
87806d8c:	f854 3c04 	ldr.w	r3, [r4, #-4]
87806d90:	421a      	tst	r2, r3
87806d92:	d018      	beq.n	87806dc6 <vPortFree+0x96>
87806d94:	ea23 0302 	bic.w	r3, r3, r2
87806d98:	f844 3c04 	str.w	r3, [r4, #-4]
87806d9c:	f7fe fb1e 	bl	878053dc <vTaskSuspendAll>
87806da0:	f643 53e4 	movw	r3, #15844	; 0x3de4
87806da4:	f854 2c04 	ldr.w	r2, [r4, #-4]
87806da8:	f2c8 7382 	movt	r3, #34690	; 0x8782
87806dac:	f1a4 0008 	sub.w	r0, r4, #8
87806db0:	f8d3 13bc 	ldr.w	r1, [r3, #956]	; 0x3bc
87806db4:	440a      	add	r2, r1
87806db6:	f8c3 23bc 	str.w	r2, [r3, #956]	; 0x3bc
87806dba:	f7ff fed1 	bl	87806b60 <prvInsertBlockIntoFreeList>
87806dbe:	e8bd 4038 	ldmia.w	sp!, {r3, r4, r5, lr}
87806dc2:	f7fe bbd5 	b.w	87805570 <xTaskResumeAll>
87806dc6:	bd38      	pop	{r3, r4, r5, pc}
87806dc8:	4770      	bx	lr
87806dca:	bf00      	nop

87806dcc <xPortGetFreeHeapSize>:
87806dcc:	f643 53e4 	movw	r3, #15844	; 0x3de4
87806dd0:	f2c8 7382 	movt	r3, #34690	; 0x8782
87806dd4:	f8d3 03bc 	ldr.w	r0, [r3, #956]	; 0x3bc
87806dd8:	4770      	bx	lr
87806dda:	bf00      	nop

87806ddc <xPortGetMinimumEverFreeHeapSize>:
87806ddc:	f643 53e4 	movw	r3, #15844	; 0x3de4
87806de0:	f2c8 7382 	movt	r3, #34690	; 0x8782
87806de4:	f8d3 03b8 	ldr.w	r0, [r3, #952]	; 0x3b8
87806de8:	4770      	bx	lr
87806dea:	bf00      	nop

87806dec <vPortInitialiseBlocks>:
87806dec:	4770      	bx	lr
87806dee:	bf00      	nop

87806df0 <pxPortInitialiseStack>:
87806df0:	b5f0      	push	{r4, r5, r6, r7, lr}
87806df2:	4603      	mov	r3, r0
87806df4:	f840 1c10 	str.w	r1, [r0, #-16]
87806df8:	f011 0f01 	tst.w	r1, #1
87806dfc:	f04f 3712 	mov.w	r7, #303174162	; 0x12121212
87806e00:	f04f 3611 	mov.w	r6, #286331153	; 0x11111111
87806e04:	f840 2c48 	str.w	r2, [r0, #-72]
87806e08:	f04f 3510 	mov.w	r5, #269488144	; 0x10101010
87806e0c:	f04f 3409 	mov.w	r4, #151587081	; 0x9090909
87806e10:	f04f 3108 	mov.w	r1, #134744072	; 0x8080808
87806e14:	f04f 3007 	mov.w	r0, #117901063	; 0x7070707
87806e18:	f04f 3206 	mov.w	r2, #101058054	; 0x6060606
87806e1c:	f843 7c18 	str.w	r7, [r3, #-24]
87806e20:	bf08      	it	eq
87806e22:	f04f 0e1f 	moveq.w	lr, #31
87806e26:	f843 6c1c 	str.w	r6, [r3, #-28]
87806e2a:	bf18      	it	ne
87806e2c:	f04f 0e3f 	movne.w	lr, #63	; 0x3f
87806e30:	f843 5c20 	str.w	r5, [r3, #-32]
87806e34:	f04f 3705 	mov.w	r7, #84215045	; 0x5050505
87806e38:	f843 4c24 	str.w	r4, [r3, #-36]
87806e3c:	f04f 3604 	mov.w	r6, #67372036	; 0x4040404
87806e40:	f843 1c28 	str.w	r1, [r3, #-40]
87806e44:	f04f 3503 	mov.w	r5, #50529027	; 0x3030303
87806e48:	f843 0c2c 	str.w	r0, [r3, #-44]
87806e4c:	f04f 3402 	mov.w	r4, #33686018	; 0x2020202
87806e50:	f843 2c30 	str.w	r2, [r3, #-48]
87806e54:	f04f 3101 	mov.w	r1, #16843009	; 0x1010101
87806e58:	2200      	movs	r2, #0
87806e5a:	4618      	mov	r0, r3
87806e5c:	f843 ec0c 	str.w	lr, [r3, #-12]
87806e60:	f843 7c34 	str.w	r7, [r3, #-52]
87806e64:	f843 6c38 	str.w	r6, [r3, #-56]
87806e68:	f843 5c3c 	str.w	r5, [r3, #-60]
87806e6c:	f843 4c40 	str.w	r4, [r3, #-64]
87806e70:	f843 1c44 	str.w	r1, [r3, #-68]
87806e74:	601a      	str	r2, [r3, #0]
87806e76:	f843 2c04 	str.w	r2, [r3, #-4]
87806e7a:	f843 2c08 	str.w	r2, [r3, #-8]
87806e7e:	f843 2c14 	str.w	r2, [r3, #-20]
87806e82:	f843 2c4c 	str.w	r2, [r3, #-76]
87806e86:	f840 2d50 	str.w	r2, [r0, #-80]!
87806e8a:	bdf0      	pop	{r4, r5, r6, r7, pc}

87806e8c <xPortStartScheduler>:
87806e8c:	f44f 53a0 	mov.w	r3, #5120	; 0x1400
87806e90:	b500      	push	{lr}
87806e92:	f2c0 03a0 	movt	r3, #160	; 0xa0
87806e96:	b083      	sub	sp, #12
87806e98:	21ff      	movs	r1, #255	; 0xff
87806e9a:	781a      	ldrb	r2, [r3, #0]
87806e9c:	b2d2      	uxtb	r2, r2
87806e9e:	9201      	str	r2, [sp, #4]
87806ea0:	7019      	strb	r1, [r3, #0]
87806ea2:	781b      	ldrb	r3, [r3, #0]
87806ea4:	b2db      	uxtb	r3, r3
87806ea6:	f88d 3003 	strb.w	r3, [sp, #3]
87806eaa:	f89d 3003 	ldrb.w	r3, [sp, #3]
87806eae:	07da      	lsls	r2, r3, #31
87806eb0:	d408      	bmi.n	87806ec4 <xPortStartScheduler+0x38>
87806eb2:	f89d 3003 	ldrb.w	r3, [sp, #3]
87806eb6:	085b      	lsrs	r3, r3, #1
87806eb8:	f88d 3003 	strb.w	r3, [sp, #3]
87806ebc:	f89d 3003 	ldrb.w	r3, [sp, #3]
87806ec0:	07db      	lsls	r3, r3, #31
87806ec2:	d5f6      	bpl.n	87806eb2 <xPortStartScheduler+0x26>
87806ec4:	f89d 3003 	ldrb.w	r3, [sp, #3]
87806ec8:	2b1f      	cmp	r3, #31
87806eca:	d007      	beq.n	87806edc <xPortStartScheduler+0x50>
87806ecc:	f64b 40e0 	movw	r0, #48352	; 0xbce0
87806ed0:	f44f 71c6 	mov.w	r1, #396	; 0x18c
87806ed4:	f2c8 7080 	movt	r0, #34688	; 0x8780
87806ed8:	f7f9 fb22 	bl	87800520 <vAssertCalled>
87806edc:	9b01      	ldr	r3, [sp, #4]
87806ede:	f44f 52a0 	mov.w	r2, #5120	; 0x1400
87806ee2:	f2c0 02a0 	movt	r2, #160	; 0xa0
87806ee6:	b2db      	uxtb	r3, r3
87806ee8:	7013      	strb	r3, [r2, #0]
87806eea:	f3ef 8300 	mrs	r3, CPSR
87806eee:	f003 031f 	and.w	r3, r3, #31
87806ef2:	2b10      	cmp	r3, #16
87806ef4:	d02b      	beq.n	87806f4e <xPortStartScheduler+0xc2>
87806ef6:	f242 0308 	movw	r3, #8200	; 0x2008
87806efa:	f2c0 03a0 	movt	r3, #160	; 0xa0
87806efe:	681b      	ldr	r3, [r3, #0]
87806f00:	f003 0303 	and.w	r3, r3, #3
87806f04:	2b03      	cmp	r3, #3
87806f06:	d019      	beq.n	87806f3c <xPortStartScheduler+0xb0>
87806f08:	f242 0308 	movw	r3, #8200	; 0x2008
87806f0c:	f2c0 03a0 	movt	r3, #160	; 0xa0
87806f10:	681b      	ldr	r3, [r3, #0]
87806f12:	f003 0303 	and.w	r3, r3, #3
87806f16:	2b03      	cmp	r3, #3
87806f18:	d103      	bne.n	87806f22 <xPortStartScheduler+0x96>
87806f1a:	2000      	movs	r0, #0
87806f1c:	b003      	add	sp, #12
87806f1e:	f85d fb04 	ldr.w	pc, [sp], #4
87806f22:	b672      	cpsid	i
87806f24:	f3bf 8f4f 	dsb	sy
87806f28:	f3bf 8f6f 	isb	sy
87806f2c:	f7fb fabe 	bl	878024ac <vConfigureTickInterrupt>
87806f30:	f7f9 e952 	blx	878001d8 <vPortRestoreTaskContext>
87806f34:	2000      	movs	r0, #0
87806f36:	b003      	add	sp, #12
87806f38:	f85d fb04 	ldr.w	pc, [sp], #4
87806f3c:	f64b 40e0 	movw	r0, #48352	; 0xbce0
87806f40:	f240 119f 	movw	r1, #415	; 0x19f
87806f44:	f2c8 7080 	movt	r0, #34688	; 0x8780
87806f48:	f7f9 faea 	bl	87800520 <vAssertCalled>
87806f4c:	e7dc      	b.n	87806f08 <xPortStartScheduler+0x7c>
87806f4e:	f64b 40e0 	movw	r0, #48352	; 0xbce0
87806f52:	f44f 71cc 	mov.w	r1, #408	; 0x198
87806f56:	f2c8 7080 	movt	r0, #34688	; 0x8780
87806f5a:	f7f9 fae1 	bl	87800520 <vAssertCalled>
87806f5e:	2000      	movs	r0, #0
87806f60:	b003      	add	sp, #12
87806f62:	f85d fb04 	ldr.w	pc, [sp], #4
87806f66:	bf00      	nop

87806f68 <vPortEndScheduler>:
87806f68:	f64b 53fc 	movw	r3, #48636	; 0xbdfc
87806f6c:	f2c8 7380 	movt	r3, #34688	; 0x8780
87806f70:	681b      	ldr	r3, [r3, #0]
87806f72:	f5b3 7f7a 	cmp.w	r3, #1000	; 0x3e8
87806f76:	d007      	beq.n	87806f88 <vPortEndScheduler+0x20>
87806f78:	f64b 40e0 	movw	r0, #48352	; 0xbce0
87806f7c:	f240 11bf 	movw	r1, #447	; 0x1bf
87806f80:	f2c8 7080 	movt	r0, #34688	; 0x8780
87806f84:	f7f9 bacc 	b.w	87800520 <vAssertCalled>
87806f88:	4770      	bx	lr
87806f8a:	bf00      	nop

87806f8c <vPortExitCritical>:
87806f8c:	f64b 53fc 	movw	r3, #48636	; 0xbdfc
87806f90:	f2c8 7380 	movt	r3, #34688	; 0x8780
87806f94:	681a      	ldr	r2, [r3, #0]
87806f96:	b1c2      	cbz	r2, 87806fca <vPortExitCritical+0x3e>
87806f98:	681a      	ldr	r2, [r3, #0]
87806f9a:	3a01      	subs	r2, #1
87806f9c:	601a      	str	r2, [r3, #0]
87806f9e:	681b      	ldr	r3, [r3, #0]
87806fa0:	b99b      	cbnz	r3, 87806fca <vPortExitCritical+0x3e>
87806fa2:	b672      	cpsid	i
87806fa4:	f3bf 8f4f 	dsb	sy
87806fa8:	f3bf 8f6f 	isb	sy
87806fac:	f242 0304 	movw	r3, #8196	; 0x2004
87806fb0:	22ff      	movs	r2, #255	; 0xff
87806fb2:	f2c0 03a0 	movt	r3, #160	; 0xa0
87806fb6:	601a      	str	r2, [r3, #0]
87806fb8:	f3bf 8f4f 	dsb	sy
87806fbc:	f3bf 8f6f 	isb	sy
87806fc0:	b662      	cpsie	i
87806fc2:	f3bf 8f4f 	dsb	sy
87806fc6:	f3bf 8f6f 	isb	sy
87806fca:	4770      	bx	lr

87806fcc <FreeRTOS_Tick_Handler>:
87806fcc:	b508      	push	{r3, lr}
87806fce:	b672      	cpsid	i
87806fd0:	f3bf 8f4f 	dsb	sy
87806fd4:	f3bf 8f6f 	isb	sy
87806fd8:	f242 0304 	movw	r3, #8196	; 0x2004
87806fdc:	2290      	movs	r2, #144	; 0x90
87806fde:	f2c0 03a0 	movt	r3, #160	; 0xa0
87806fe2:	601a      	str	r2, [r3, #0]
87806fe4:	f3bf 8f4f 	dsb	sy
87806fe8:	f3bf 8f6f 	isb	sy
87806fec:	b662      	cpsie	i
87806fee:	f3bf 8f4f 	dsb	sy
87806ff2:	f3bf 8f6f 	isb	sy
87806ff6:	f7fe fa2b 	bl	87805450 <xTaskIncrementTick>
87806ffa:	b128      	cbz	r0, 87807008 <FreeRTOS_Tick_Handler+0x3c>
87806ffc:	f244 13a4 	movw	r3, #16804	; 0x41a4
87807000:	2201      	movs	r2, #1
87807002:	f2c8 7382 	movt	r3, #34690	; 0x8782
87807006:	601a      	str	r2, [r3, #0]
87807008:	b672      	cpsid	i
8780700a:	f3bf 8f4f 	dsb	sy
8780700e:	f3bf 8f6f 	isb	sy
87807012:	f242 0304 	movw	r3, #8196	; 0x2004
87807016:	22ff      	movs	r2, #255	; 0xff
87807018:	f2c0 03a0 	movt	r3, #160	; 0xa0
8780701c:	601a      	str	r2, [r3, #0]
8780701e:	f3bf 8f4f 	dsb	sy
87807022:	f3bf 8f6f 	isb	sy
87807026:	b662      	cpsie	i
87807028:	f3bf 8f4f 	dsb	sy
8780702c:	f3bf 8f6f 	isb	sy
87807030:	e8bd 4008 	ldmia.w	sp!, {r3, lr}
87807034:	f7fb ba70 	b.w	87802518 <vClearTickInterrupt>

87807038 <vPortTaskUsesFPU>:
87807038:	f244 13a4 	movw	r3, #16804	; 0x41a4
8780703c:	2101      	movs	r1, #1
8780703e:	f2c8 7382 	movt	r3, #34690	; 0x8782
87807042:	2200      	movs	r2, #0
87807044:	6059      	str	r1, [r3, #4]
87807046:	eee1 2a10 	vmsr	fpscr, r2
8780704a:	4770      	bx	lr

8780704c <vPortClearInterruptMask>:
8780704c:	b998      	cbnz	r0, 87807076 <vPortClearInterruptMask+0x2a>
8780704e:	b672      	cpsid	i
87807050:	f3bf 8f4f 	dsb	sy
87807054:	f3bf 8f6f 	isb	sy
87807058:	f242 0304 	movw	r3, #8196	; 0x2004
8780705c:	22ff      	movs	r2, #255	; 0xff
8780705e:	f2c0 03a0 	movt	r3, #160	; 0xa0
87807062:	601a      	str	r2, [r3, #0]
87807064:	f3bf 8f4f 	dsb	sy
87807068:	f3bf 8f6f 	isb	sy
8780706c:	b662      	cpsie	i
8780706e:	f3bf 8f4f 	dsb	sy
87807072:	f3bf 8f6f 	isb	sy
87807076:	4770      	bx	lr

87807078 <ulPortSetInterruptMask>:
87807078:	b672      	cpsid	i
8780707a:	f3bf 8f4f 	dsb	sy
8780707e:	f3bf 8f6f 	isb	sy
87807082:	f242 0304 	movw	r3, #8196	; 0x2004
87807086:	f2c0 03a0 	movt	r3, #160	; 0xa0
8780708a:	681a      	ldr	r2, [r3, #0]
8780708c:	2a90      	cmp	r2, #144	; 0x90
8780708e:	bf08      	it	eq
87807090:	2001      	moveq	r0, #1
87807092:	d006      	beq.n	878070a2 <ulPortSetInterruptMask+0x2a>
87807094:	2290      	movs	r2, #144	; 0x90
87807096:	601a      	str	r2, [r3, #0]
87807098:	f3bf 8f4f 	dsb	sy
8780709c:	f3bf 8f6f 	isb	sy
878070a0:	2000      	movs	r0, #0
878070a2:	b662      	cpsie	i
878070a4:	f3bf 8f4f 	dsb	sy
878070a8:	f3bf 8f6f 	isb	sy
878070ac:	4770      	bx	lr
878070ae:	bf00      	nop

878070b0 <vPortEnterCritical>:
878070b0:	b508      	push	{r3, lr}
878070b2:	f7ff ffe1 	bl	87807078 <ulPortSetInterruptMask>
878070b6:	f64b 53fc 	movw	r3, #48636	; 0xbdfc
878070ba:	f2c8 7380 	movt	r3, #34688	; 0x8780
878070be:	681a      	ldr	r2, [r3, #0]
878070c0:	3201      	adds	r2, #1
878070c2:	601a      	str	r2, [r3, #0]
878070c4:	681b      	ldr	r3, [r3, #0]
878070c6:	2b01      	cmp	r3, #1
878070c8:	d000      	beq.n	878070cc <vPortEnterCritical+0x1c>
878070ca:	bd08      	pop	{r3, pc}
878070cc:	f244 13a4 	movw	r3, #16804	; 0x41a4
878070d0:	f2c8 7382 	movt	r3, #34690	; 0x8782
878070d4:	689b      	ldr	r3, [r3, #8]
878070d6:	2b00      	cmp	r3, #0
878070d8:	d0f7      	beq.n	878070ca <vPortEnterCritical+0x1a>
878070da:	f64b 40e0 	movw	r0, #48352	; 0xbce0
878070de:	f44f 71ea 	mov.w	r1, #468	; 0x1d4
878070e2:	f2c8 7080 	movt	r0, #34688	; 0x8780
878070e6:	e8bd 4008 	ldmia.w	sp!, {r3, lr}
878070ea:	f7f9 ba19 	b.w	87800520 <vAssertCalled>
878070ee:	bf00      	nop

878070f0 <vPortValidateInterruptPriority>:
878070f0:	b508      	push	{r3, lr}
878070f2:	f242 0314 	movw	r3, #8212	; 0x2014
878070f6:	f2c0 03a0 	movt	r3, #160	; 0xa0
878070fa:	681b      	ldr	r3, [r3, #0]
878070fc:	2b8f      	cmp	r3, #143	; 0x8f
878070fe:	d913      	bls.n	87807128 <vPortValidateInterruptPriority+0x38>
87807100:	f242 0308 	movw	r3, #8200	; 0x2008
87807104:	f2c0 03a0 	movt	r3, #160	; 0xa0
87807108:	681b      	ldr	r3, [r3, #0]
8780710a:	f003 0303 	and.w	r3, r3, #3
8780710e:	2b03      	cmp	r3, #3
87807110:	d000      	beq.n	87807114 <vPortValidateInterruptPriority+0x24>
87807112:	bd08      	pop	{r3, pc}
87807114:	f64b 40e0 	movw	r0, #48352	; 0xbce0
87807118:	f240 2157 	movw	r1, #599	; 0x257
8780711c:	f2c8 7080 	movt	r0, #34688	; 0x8780
87807120:	e8bd 4008 	ldmia.w	sp!, {r3, lr}
87807124:	f7f9 b9fc 	b.w	87800520 <vAssertCalled>
87807128:	f64b 40e0 	movw	r0, #48352	; 0xbce0
8780712c:	f240 214b 	movw	r1, #587	; 0x24b
87807130:	f2c8 7080 	movt	r0, #34688	; 0x8780
87807134:	f7f9 f9f4 	bl	87800520 <vAssertCalled>
87807138:	e7e2      	b.n	87807100 <vPortValidateInterruptPriority+0x10>
8780713a:	bf00      	nop

8780713c <vApplicationFPUSafeIRQHandler>:
8780713c:	f64b 40e0 	movw	r0, #48352	; 0xbce0
87807140:	f44f 7118 	mov.w	r1, #608	; 0x260
87807144:	f2c8 7080 	movt	r0, #34688	; 0x8780
87807148:	f7f9 b9ea 	b.w	87800520 <vAssertCalled>
8780714c:	0000      	movs	r0, r0
	...

87807150 <__aeabi_uidiv>:
87807150:	1e4a      	subs	r2, r1, #1
87807152:	bf08      	it	eq
87807154:	4770      	bxeq	lr
87807156:	f0c0 8124 	bcc.w	878073a2 <__aeabi_uidiv+0x252>
8780715a:	4288      	cmp	r0, r1
8780715c:	f240 8116 	bls.w	8780738c <__aeabi_uidiv+0x23c>
87807160:	4211      	tst	r1, r2
87807162:	f000 8117 	beq.w	87807394 <__aeabi_uidiv+0x244>
87807166:	fab0 f380 	clz	r3, r0
8780716a:	fab1 f281 	clz	r2, r1
8780716e:	eba2 0303 	sub.w	r3, r2, r3
87807172:	f1c3 031f 	rsb	r3, r3, #31
87807176:	a204      	add	r2, pc, #16	; (adr r2, 87807188 <__aeabi_uidiv+0x38>)
87807178:	eb02 1303 	add.w	r3, r2, r3, lsl #4
8780717c:	f04f 0200 	mov.w	r2, #0
87807180:	469f      	mov	pc, r3
87807182:	bf00      	nop
87807184:	f3af 8000 	nop.w
87807188:	ebb0 7fc1 	cmp.w	r0, r1, lsl #31
8780718c:	bf00      	nop
8780718e:	eb42 0202 	adc.w	r2, r2, r2
87807192:	bf28      	it	cs
87807194:	eba0 70c1 	subcs.w	r0, r0, r1, lsl #31
87807198:	ebb0 7f81 	cmp.w	r0, r1, lsl #30
8780719c:	bf00      	nop
8780719e:	eb42 0202 	adc.w	r2, r2, r2
878071a2:	bf28      	it	cs
878071a4:	eba0 7081 	subcs.w	r0, r0, r1, lsl #30
878071a8:	ebb0 7f41 	cmp.w	r0, r1, lsl #29
878071ac:	bf00      	nop
878071ae:	eb42 0202 	adc.w	r2, r2, r2
878071b2:	bf28      	it	cs
878071b4:	eba0 7041 	subcs.w	r0, r0, r1, lsl #29
878071b8:	ebb0 7f01 	cmp.w	r0, r1, lsl #28
878071bc:	bf00      	nop
878071be:	eb42 0202 	adc.w	r2, r2, r2
878071c2:	bf28      	it	cs
878071c4:	eba0 7001 	subcs.w	r0, r0, r1, lsl #28
878071c8:	ebb0 6fc1 	cmp.w	r0, r1, lsl #27
878071cc:	bf00      	nop
878071ce:	eb42 0202 	adc.w	r2, r2, r2
878071d2:	bf28      	it	cs
878071d4:	eba0 60c1 	subcs.w	r0, r0, r1, lsl #27
878071d8:	ebb0 6f81 	cmp.w	r0, r1, lsl #26
878071dc:	bf00      	nop
878071de:	eb42 0202 	adc.w	r2, r2, r2
878071e2:	bf28      	it	cs
878071e4:	eba0 6081 	subcs.w	r0, r0, r1, lsl #26
878071e8:	ebb0 6f41 	cmp.w	r0, r1, lsl #25
878071ec:	bf00      	nop
878071ee:	eb42 0202 	adc.w	r2, r2, r2
878071f2:	bf28      	it	cs
878071f4:	eba0 6041 	subcs.w	r0, r0, r1, lsl #25
878071f8:	ebb0 6f01 	cmp.w	r0, r1, lsl #24
878071fc:	bf00      	nop
878071fe:	eb42 0202 	adc.w	r2, r2, r2
87807202:	bf28      	it	cs
87807204:	eba0 6001 	subcs.w	r0, r0, r1, lsl #24
87807208:	ebb0 5fc1 	cmp.w	r0, r1, lsl #23
8780720c:	bf00      	nop
8780720e:	eb42 0202 	adc.w	r2, r2, r2
87807212:	bf28      	it	cs
87807214:	eba0 50c1 	subcs.w	r0, r0, r1, lsl #23
87807218:	ebb0 5f81 	cmp.w	r0, r1, lsl #22
8780721c:	bf00      	nop
8780721e:	eb42 0202 	adc.w	r2, r2, r2
87807222:	bf28      	it	cs
87807224:	eba0 5081 	subcs.w	r0, r0, r1, lsl #22
87807228:	ebb0 5f41 	cmp.w	r0, r1, lsl #21
8780722c:	bf00      	nop
8780722e:	eb42 0202 	adc.w	r2, r2, r2
87807232:	bf28      	it	cs
87807234:	eba0 5041 	subcs.w	r0, r0, r1, lsl #21
87807238:	ebb0 5f01 	cmp.w	r0, r1, lsl #20
8780723c:	bf00      	nop
8780723e:	eb42 0202 	adc.w	r2, r2, r2
87807242:	bf28      	it	cs
87807244:	eba0 5001 	subcs.w	r0, r0, r1, lsl #20
87807248:	ebb0 4fc1 	cmp.w	r0, r1, lsl #19
8780724c:	bf00      	nop
8780724e:	eb42 0202 	adc.w	r2, r2, r2
87807252:	bf28      	it	cs
87807254:	eba0 40c1 	subcs.w	r0, r0, r1, lsl #19
87807258:	ebb0 4f81 	cmp.w	r0, r1, lsl #18
8780725c:	bf00      	nop
8780725e:	eb42 0202 	adc.w	r2, r2, r2
87807262:	bf28      	it	cs
87807264:	eba0 4081 	subcs.w	r0, r0, r1, lsl #18
87807268:	ebb0 4f41 	cmp.w	r0, r1, lsl #17
8780726c:	bf00      	nop
8780726e:	eb42 0202 	adc.w	r2, r2, r2
87807272:	bf28      	it	cs
87807274:	eba0 4041 	subcs.w	r0, r0, r1, lsl #17
87807278:	ebb0 4f01 	cmp.w	r0, r1, lsl #16
8780727c:	bf00      	nop
8780727e:	eb42 0202 	adc.w	r2, r2, r2
87807282:	bf28      	it	cs
87807284:	eba0 4001 	subcs.w	r0, r0, r1, lsl #16
87807288:	ebb0 3fc1 	cmp.w	r0, r1, lsl #15
8780728c:	bf00      	nop
8780728e:	eb42 0202 	adc.w	r2, r2, r2
87807292:	bf28      	it	cs
87807294:	eba0 30c1 	subcs.w	r0, r0, r1, lsl #15
87807298:	ebb0 3f81 	cmp.w	r0, r1, lsl #14
8780729c:	bf00      	nop
8780729e:	eb42 0202 	adc.w	r2, r2, r2
878072a2:	bf28      	it	cs
878072a4:	eba0 3081 	subcs.w	r0, r0, r1, lsl #14
878072a8:	ebb0 3f41 	cmp.w	r0, r1, lsl #13
878072ac:	bf00      	nop
878072ae:	eb42 0202 	adc.w	r2, r2, r2
878072b2:	bf28      	it	cs
878072b4:	eba0 3041 	subcs.w	r0, r0, r1, lsl #13
878072b8:	ebb0 3f01 	cmp.w	r0, r1, lsl #12
878072bc:	bf00      	nop
878072be:	eb42 0202 	adc.w	r2, r2, r2
878072c2:	bf28      	it	cs
878072c4:	eba0 3001 	subcs.w	r0, r0, r1, lsl #12
878072c8:	ebb0 2fc1 	cmp.w	r0, r1, lsl #11
878072cc:	bf00      	nop
878072ce:	eb42 0202 	adc.w	r2, r2, r2
878072d2:	bf28      	it	cs
878072d4:	eba0 20c1 	subcs.w	r0, r0, r1, lsl #11
878072d8:	ebb0 2f81 	cmp.w	r0, r1, lsl #10
878072dc:	bf00      	nop
878072de:	eb42 0202 	adc.w	r2, r2, r2
878072e2:	bf28      	it	cs
878072e4:	eba0 2081 	subcs.w	r0, r0, r1, lsl #10
878072e8:	ebb0 2f41 	cmp.w	r0, r1, lsl #9
878072ec:	bf00      	nop
878072ee:	eb42 0202 	adc.w	r2, r2, r2
878072f2:	bf28      	it	cs
878072f4:	eba0 2041 	subcs.w	r0, r0, r1, lsl #9
878072f8:	ebb0 2f01 	cmp.w	r0, r1, lsl #8
878072fc:	bf00      	nop
878072fe:	eb42 0202 	adc.w	r2, r2, r2
87807302:	bf28      	it	cs
87807304:	eba0 2001 	subcs.w	r0, r0, r1, lsl #8
87807308:	ebb0 1fc1 	cmp.w	r0, r1, lsl #7
8780730c:	bf00      	nop
8780730e:	eb42 0202 	adc.w	r2, r2, r2
87807312:	bf28      	it	cs
87807314:	eba0 10c1 	subcs.w	r0, r0, r1, lsl #7
87807318:	ebb0 1f81 	cmp.w	r0, r1, lsl #6
8780731c:	bf00      	nop
8780731e:	eb42 0202 	adc.w	r2, r2, r2
87807322:	bf28      	it	cs
87807324:	eba0 1081 	subcs.w	r0, r0, r1, lsl #6
87807328:	ebb0 1f41 	cmp.w	r0, r1, lsl #5
8780732c:	bf00      	nop
8780732e:	eb42 0202 	adc.w	r2, r2, r2
87807332:	bf28      	it	cs
87807334:	eba0 1041 	subcs.w	r0, r0, r1, lsl #5
87807338:	ebb0 1f01 	cmp.w	r0, r1, lsl #4
8780733c:	bf00      	nop
8780733e:	eb42 0202 	adc.w	r2, r2, r2
87807342:	bf28      	it	cs
87807344:	eba0 1001 	subcs.w	r0, r0, r1, lsl #4
87807348:	ebb0 0fc1 	cmp.w	r0, r1, lsl #3
8780734c:	bf00      	nop
8780734e:	eb42 0202 	adc.w	r2, r2, r2
87807352:	bf28      	it	cs
87807354:	eba0 00c1 	subcs.w	r0, r0, r1, lsl #3
87807358:	ebb0 0f81 	cmp.w	r0, r1, lsl #2
8780735c:	bf00      	nop
8780735e:	eb42 0202 	adc.w	r2, r2, r2
87807362:	bf28      	it	cs
87807364:	eba0 0081 	subcs.w	r0, r0, r1, lsl #2
87807368:	ebb0 0f41 	cmp.w	r0, r1, lsl #1
8780736c:	bf00      	nop
8780736e:	eb42 0202 	adc.w	r2, r2, r2
87807372:	bf28      	it	cs
87807374:	eba0 0041 	subcs.w	r0, r0, r1, lsl #1
87807378:	ebb0 0f01 	cmp.w	r0, r1
8780737c:	bf00      	nop
8780737e:	eb42 0202 	adc.w	r2, r2, r2
87807382:	bf28      	it	cs
87807384:	eba0 0001 	subcs.w	r0, r0, r1
87807388:	4610      	mov	r0, r2
8780738a:	4770      	bx	lr
8780738c:	bf0c      	ite	eq
8780738e:	2001      	moveq	r0, #1
87807390:	2000      	movne	r0, #0
87807392:	4770      	bx	lr
87807394:	fab1 f281 	clz	r2, r1
87807398:	f1c2 021f 	rsb	r2, r2, #31
8780739c:	fa20 f002 	lsr.w	r0, r0, r2
878073a0:	4770      	bx	lr
878073a2:	b108      	cbz	r0, 878073a8 <__aeabi_uidiv+0x258>
878073a4:	f04f 30ff 	mov.w	r0, #4294967295	; 0xffffffff
878073a8:	f000 b80e 	b.w	878073c8 <__aeabi_idiv0>

878073ac <__aeabi_uidivmod>:
878073ac:	2900      	cmp	r1, #0
878073ae:	d0f8      	beq.n	878073a2 <__aeabi_uidiv+0x252>
878073b0:	e92d 4003 	stmdb	sp!, {r0, r1, lr}
878073b4:	f7ff fecc 	bl	87807150 <__aeabi_uidiv>
878073b8:	e8bd 4006 	ldmia.w	sp!, {r1, r2, lr}
878073bc:	fb02 f300 	mul.w	r3, r2, r0
878073c0:	eba1 0103 	sub.w	r1, r1, r3
878073c4:	4770      	bx	lr
878073c6:	bf00      	nop

878073c8 <__aeabi_idiv0>:
878073c8:	b502      	push	{r1, lr}
878073ca:	f04f 0008 	mov.w	r0, #8
878073ce:	f7fb f96f 	bl	878026b0 <raise>
878073d2:	bd02      	pop	{r1, pc}
878073d4:	0000      	movs	r0, r0
	...

878073d8 <__main_from_arm>:
878073d8:	e51ff004 	ldr	pc, [pc, #-4]	; 878073dc <__main_from_arm+0x4>
878073dc:	878073e1 	strhi	r7, [r0, r1, ror #7]

Disassembly of section .text.startup:

878073e0 <main>:
878073e0:	b500      	push	{lr}
878073e2:	b083      	sub	sp, #12
878073e4:	f7fa fec2 	bl	8780216c <imx6u_clk_init>
878073e8:	2400      	movs	r4, #0
878073ea:	f7fa feb1 	bl	87802150 <clock_enable>
878073ee:	f7fc fa15 	bl	8780381c <imx6ul_hardfpu_enable>
878073f2:	f7ff fe41 	bl	87807078 <ulPortSetInterruptMask>
878073f6:	f7fa fd7f 	bl	87801ef8 <int_init>
878073fa:	f7fa ff29 	bl	87802250 <led_init>
878073fe:	f7fa ff67 	bl	878022d0 <HPdelay_init>
87807402:	f7fb fb7d 	bl	87802b00 <LCD_init>
87807406:	f7fc f83d 	bl	87803484 <rtc_init>
8780740a:	f64b 410c 	movw	r1, #48140	; 0xbc0c
8780740e:	f240 30b1 	movw	r0, #945	; 0x3b1
87807412:	4623      	mov	r3, r4
87807414:	f2c8 7180 	movt	r1, #34688	; 0x8780
87807418:	22fa      	movs	r2, #250	; 0xfa
8780741a:	9401      	str	r4, [sp, #4]
8780741c:	9400      	str	r4, [sp, #0]
8780741e:	f2c8 7080 	movt	r0, #34688	; 0x8780
87807422:	f7fd fd21 	bl	87804e68 <xTaskCreate>
87807426:	2202      	movs	r2, #2
87807428:	f64b 4114 	movw	r1, #48148	; 0xbc14
8780742c:	f240 40d9 	movw	r0, #1241	; 0x4d9
87807430:	4623      	mov	r3, r4
87807432:	9200      	str	r2, [sp, #0]
87807434:	f2c8 7180 	movt	r1, #34688	; 0x8780
87807438:	22fa      	movs	r2, #250	; 0xfa
8780743a:	9401      	str	r4, [sp, #4]
8780743c:	f2c8 7080 	movt	r0, #34688	; 0x8780
87807440:	f7fd fd12 	bl	87804e68 <xTaskCreate>
87807444:	f7fd ff78 	bl	87805338 <vTaskStartScheduler>
87807448:	e7fe      	b.n	87807448 <main+0x68>
8780744a:	bf00      	nop

Disassembly of section .rodata:

8780744c <digits.8430>:
8780744c:	33323130 	teqcc	r2, #48, 2
87807450:	37363534 			; <UNDEFINED> instruction: 0x37363534
87807454:	42413938 	submi	r3, r1, #56, 18	; 0xe0000
87807458:	46454443 	strbmi	r4, [r5], -r3, asr #8

8780745c <asc2_1206>:
	...
8780746c:	0000403f 	andeq	r4, r0, pc, lsr r0
87807470:	00000000 	andeq	r0, r0, r0
87807474:	00300000 	eorseq	r0, r0, r0
87807478:	00300040 	eorseq	r0, r0, r0, asr #32
8780747c:	00000040 	andeq	r0, r0, r0, asr #32
87807480:	c00b0009 	andgt	r0, fp, r9
87807484:	c00b003d 	andgt	r0, fp, sp, lsr r0
87807488:	0009003d 	andeq	r0, r9, sp, lsr r0
8780748c:	4024c018 	eormi	ip, r4, r8, lsl r0
87807490:	4022e07f 	eormi	lr, r2, pc, ror r0
87807494:	00008031 	andeq	r8, r0, r1, lsr r0
87807498:	c0240018 	eorgt	r0, r4, r8, lsl r0
8780749c:	800d001b 	andhi	r0, sp, fp, lsl r0
878074a0:	80014032 	andhi	r4, r1, r2, lsr r0
878074a4:	401c8003 	andsmi	r8, ip, r3
878074a8:	801c4027 	andshi	r4, ip, r7, lsr #32
878074ac:	40004007 	andmi	r4, r0, r7
878074b0:	00600010 	rsbeq	r0, r0, r0, lsl r0
	...
878074c0:	801f0000 	andshi	r0, pc, r0
878074c4:	20404020 	subcs	r4, r0, r0, lsr #32
878074c8:	20400000 	subcs	r0, r0, r0
878074cc:	801f4020 	andshi	r4, pc, r0, lsr #32
878074d0:	00000000 	andeq	r0, r0, r0
878074d4:	00060009 	andeq	r0, r6, r9
878074d8:	0006801f 	andeq	r8, r6, pc, lsl r0
878074dc:	00000009 	andeq	r0, r0, r9
878074e0:	00040004 	andeq	r0, r4, r4
878074e4:	0004803f 	andeq	r8, r4, pc, lsr r0
878074e8:	00000004 	andeq	r0, r0, r4
878074ec:	60001000 	andvs	r1, r0, r0
	...
878074f8:	00040004 	andeq	r0, r4, r4
878074fc:	00040004 	andeq	r0, r4, r4
87807500:	00000004 	andeq	r0, r0, r4
87807504:	40000000 	andmi	r0, r0, r0
	...
87807510:	c0012000 	andgt	r2, r1, r0
87807514:	00380006 	eorseq	r0, r8, r6
87807518:	00000040 	andeq	r0, r0, r0, asr #32
8780751c:	4020801f 	eormi	r8, r0, pc, lsl r0
87807520:	40204020 	eormi	r4, r0, r0, lsr #32
87807524:	0000801f 	andeq	r8, r0, pc, lsl r0
87807528:	40100000 	andsmi	r0, r0, r0
8780752c:	4000c03f 	andmi	ip, r0, pc, lsr r0
87807530:	00000000 	andeq	r0, r0, r0
87807534:	4021c018 	eormi	ip, r1, r8, lsl r0
87807538:	40244022 	eormi	r4, r4, r2, lsr #32
8780753c:	00004018 	andeq	r4, r0, r8, lsl r0
87807540:	40208010 	eormi	r8, r0, r0, lsl r0
87807544:	40244024 	eormi	r4, r4, r4, lsr #32
87807548:	0000801b 	andeq	r8, r0, fp, lsl r0
8780754c:	000d0002 	andeq	r0, sp, r2
87807550:	c03f0011 	eorsgt	r0, pc, r1, lsl r0	; <UNPREDICTABLE>
87807554:	00004001 	andeq	r4, r0, r1
87807558:	4024803c 	eormi	r8, r4, ip, lsr r0
8780755c:	40244024 	eormi	r4, r4, r4, lsr #32
87807560:	00008023 	andeq	r8, r0, r3, lsr #32
87807564:	4024801f 	eormi	r8, r4, pc, lsl r0
87807568:	40344024 	eorsmi	r4, r4, r4, lsr #32
8780756c:	00008003 	andeq	r8, r0, r3
87807570:	00200030 	eoreq	r0, r0, r0, lsr r0
87807574:	0038c027 	eorseq	ip, r8, r7, lsr #32
87807578:	00000020 	andeq	r0, r0, r0, lsr #32
8780757c:	4024801b 	eormi	r8, r4, fp, lsl r0
87807580:	40244024 	eormi	r4, r4, r4, lsr #32
87807584:	0000801b 	andeq	r8, r0, fp, lsl r0
87807588:	c022001c 	eorgt	r0, r2, ip, lsl r0
8780758c:	40224022 	eormi	r4, r2, r2, lsr #32
87807590:	0000801f 	andeq	r8, r0, pc, lsl r0
87807594:	00000000 	andeq	r0, r0, r0
87807598:	00004008 	andeq	r4, r0, r8
	...
878075a4:	00006004 	andeq	r6, r0, r4
878075a8:	00000000 	andeq	r0, r0, r0
878075ac:	00040000 	andeq	r0, r4, r0
878075b0:	0011000a 	andseq	r0, r1, sl
878075b4:	40408020 	submi	r8, r0, r0, lsr #32
878075b8:	00090009 	andeq	r0, r9, r9
878075bc:	00090009 	andeq	r0, r9, r9
878075c0:	00000009 	andeq	r0, r0, r9
878075c4:	40400000 	submi	r0, r0, r0
878075c8:	00118020 	andseq	r8, r1, r0, lsr #32
878075cc:	0004000a 	andeq	r0, r4, sl
878075d0:	00200018 	eoreq	r0, r0, r8, lsl r0
878075d4:	00244023 	eoreq	r4, r4, r3, lsr #32
878075d8:	00000018 	andeq	r0, r0, r8, lsl r0
878075dc:	4020801f 	eormi	r8, r0, pc, lsl r0
878075e0:	40294027 	eormi	r4, r9, r7, lsr #32
878075e4:	0000401f 	andeq	r4, r0, pc, lsl r0
878075e8:	c0074000 	andgt	r4, r7, r0
878075ec:	000f0039 	andeq	r0, pc, r9, lsr r0	; <UNPREDICTABLE>
878075f0:	4000c001 	andmi	ip, r0, r1
878075f4:	c03f4020 	eorsgt	r4, pc, r0, lsr #32
878075f8:	40244024 	eormi	r4, r4, r4, lsr #32
878075fc:	0000801b 	andeq	r8, r0, fp, lsl r0
87807600:	4020801f 	eormi	r8, r0, pc, lsl r0
87807604:	40204020 	eormi	r4, r0, r0, lsr #32
87807608:	00008030 	andeq	r8, r0, r0, lsr r0
8780760c:	c03f4020 	eorsgt	r4, pc, r0, lsr #32
87807610:	40204020 	eormi	r4, r0, r0, lsr #32
87807614:	0000801f 	andeq	r8, r0, pc, lsl r0
87807618:	c03f4020 	eorsgt	r4, pc, r0, lsr #32
8780761c:	402e4024 	eormi	r4, lr, r4, lsr #32
87807620:	0000c030 	andeq	ip, r0, r0, lsr r0
87807624:	c03f4020 	eorsgt	r4, pc, r0, lsr #32
87807628:	002e4024 	eoreq	r4, lr, r4, lsr #32
8780762c:	00000030 	andeq	r0, r0, r0, lsr r0
87807630:	8010000f 	andshi	r0, r0, pc
87807634:	40224020 	eormi	r4, r2, r0, lsr #32
87807638:	00028033 	andeq	r8, r2, r3, lsr r0
8780763c:	c03f4020 	eorsgt	r4, pc, r0, lsr #32
87807640:	00040004 	andeq	r0, r4, r4
87807644:	4020c03f 	eormi	ip, r0, pc, lsr r0
87807648:	40204020 	eormi	r4, r0, r0, lsr #32
8780764c:	4020c03f 	eormi	ip, r0, pc, lsr r0
87807650:	00004020 	andeq	r4, r0, r0, lsr #32
87807654:	20206000 	eorcs	r6, r0, r0
87807658:	c03f2020 	eorsgt	r2, pc, r0, lsr #32
8780765c:	00200020 	eoreq	r0, r0, r0, lsr #32
87807660:	c03f4020 	eorsgt	r4, pc, r0, lsr #32
87807664:	000b4024 	andeq	r4, fp, r4, lsr #32
87807668:	4020c030 	eormi	ip, r0, r0, lsr r0
8780766c:	c03f4020 	eorsgt	r4, pc, r0, lsr #32
87807670:	40004020 	andmi	r4, r0, r0, lsr #32
87807674:	c0004000 	andgt	r4, r0, r0
87807678:	003cc03f 	eorseq	ip, ip, pc, lsr r0
8780767c:	003cc003 	eorseq	ip, ip, r3
87807680:	0000c03f 	andeq	ip, r0, pc, lsr r0
87807684:	c03f4020 	eorsgt	r4, pc, r0, lsr #32
87807688:	0023400c 	eoreq	r4, r3, ip
8780768c:	0020c03f 	eoreq	ip, r0, pc, lsr r0
87807690:	4020801f 	eormi	r8, r0, pc, lsl r0
87807694:	40204020 	eormi	r4, r0, r0, lsr #32
87807698:	0000801f 	andeq	r8, r0, pc, lsl r0
8780769c:	c03f4020 	eorsgt	r4, pc, r0, lsr #32
878076a0:	00244024 	eoreq	r4, r4, r4, lsr #32
878076a4:	00000018 	andeq	r0, r0, r8, lsl r0
878076a8:	4021801f 	eormi	r8, r1, pc, lsl r0
878076ac:	e0204021 	eor	r4, r0, r1, lsr #32
878076b0:	0000a01f 	andeq	sl, r0, pc, lsl r0
878076b4:	c03f4020 	eorsgt	r4, pc, r0, lsr #32
878076b8:	00264024 	eoreq	r4, r6, r4, lsr #32
878076bc:	4000c019 	andmi	ip, r0, r9, lsl r0
878076c0:	4024c018 	eormi	ip, r4, r8, lsl r0
878076c4:	40224024 	eormi	r4, r2, r4, lsr #32
878076c8:	00008031 	andeq	r8, r0, r1, lsr r0
878076cc:	40200030 	eormi	r0, r0, r0, lsr r0
878076d0:	4020c03f 	eormi	ip, r0, pc, lsr r0
878076d4:	00000030 	andeq	r0, r0, r0, lsr r0
878076d8:	803f0020 	eorshi	r0, pc, r0, lsr #32
878076dc:	40004000 	andmi	r4, r0, r0
878076e0:	0020803f 	eoreq	r8, r0, pc, lsr r0
878076e4:	003e0020 	eorseq	r0, lr, r0, lsr #32
878076e8:	0007c001 	andeq	ip, r7, r1
878076ec:	00200038 	eoreq	r0, r0, r8, lsr r0
878076f0:	c0070038 	andgt	r0, r7, r8, lsr r0
878076f4:	c007003c 	andgt	r0, r7, ip, lsr r0
878076f8:	00000038 	andeq	r0, r0, r8, lsr r0
878076fc:	c0394020 	eorsgt	r4, r9, r0, lsr #32
87807700:	c0390006 	eorsgt	r0, r9, r6
87807704:	00004020 	andeq	r4, r0, r0, lsr #32
87807708:	40380020 	eorsmi	r0, r8, r0, lsr #32
8780770c:	4038c007 	eorsmi	ip, r8, r7
87807710:	00000020 	andeq	r0, r0, r0, lsr #32
87807714:	c0214030 	eorgt	r4, r1, r0, lsr r0
87807718:	40384026 	eorsmi	r4, r8, r6, lsr #32
8780771c:	0000c020 	andeq	ip, r0, r0, lsr #32
87807720:	00000000 	andeq	r0, r0, r0
87807724:	2040e07f 	subcs	lr, r0, pc, ror r0
87807728:	00002040 	andeq	r2, r0, r0, asr #32
8780772c:	00700000 	rsbseq	r0, r0, r0
87807730:	8003000c 	andhi	r0, r3, ip
87807734:	00004000 	andeq	r4, r0, r0
87807738:	20400000 	subcs	r0, r0, r0
8780773c:	e07f2040 	rsbs	r2, pc, r0, asr #32
87807740:	00000000 	andeq	r0, r0, r0
87807744:	00200000 	eoreq	r0, r0, r0
87807748:	00200040 	eoreq	r0, r0, r0, asr #32
8780774c:	00000000 	andeq	r0, r0, r0
87807750:	10001000 	andne	r1, r0, r0
87807754:	10001000 	andne	r1, r0, r0
87807758:	10001000 	andne	r1, r0, r0
8780775c:	00000000 	andeq	r0, r0, r0
87807760:	00000040 	andeq	r0, r0, r0, asr #32
87807764:	00000000 	andeq	r0, r0, r0
87807768:	80020000 	andhi	r0, r2, r0
8780776c:	40054005 	andmi	r4, r5, r5
87807770:	4000c003 	andmi	ip, r0, r3
87807774:	c03f0020 	eorsgt	r0, pc, r0, lsr #32
87807778:	40044004 	andmi	r4, r4, r4
8780777c:	00008003 	andeq	r8, r0, r3
87807780:	80030000 	andhi	r0, r3, r0
87807784:	40044004 	andmi	r4, r4, r4
87807788:	00004006 	andeq	r4, r0, r6
8780778c:	80030000 	andhi	r0, r3, r0
87807790:	40244004 	eormi	r4, r4, r4
87807794:	4000c03f 	andmi	ip, r0, pc, lsr r0
87807798:	80030000 	andhi	r0, r3, r0
8780779c:	40054005 	andmi	r4, r5, r5
878077a0:	00004003 	andeq	r4, r0, r3
878077a4:	40040000 	andmi	r0, r4, r0
878077a8:	4024c01f 	eormi	ip, r4, pc, lsl r0
878077ac:	00204024 	eoreq	r4, r0, r4, lsr #32
878077b0:	e0020000 	and	r0, r2, r0
878077b4:	50055005 	andpl	r5, r5, r5
878077b8:	20045006 	andcs	r5, r4, r6
878077bc:	c03f4020 	eorsgt	r4, pc, r0, lsr #32
878077c0:	00044004 	andeq	r4, r4, r4
878077c4:	4000c003 	andmi	ip, r0, r3
878077c8:	40040000 	andmi	r0, r4, r0
878077cc:	4000c027 	andmi	ip, r0, r7, lsr #32
878077d0:	00000000 	andeq	r0, r0, r0
878077d4:	10001000 	andne	r1, r0, r0
878077d8:	e0271004 	eor	r1, r7, r4
878077dc:	00000000 	andeq	r0, r0, r0
878077e0:	c03f4020 	eorsgt	r4, pc, r0, lsr #32
878077e4:	00074001 	andeq	r4, r7, r1
878077e8:	4004c004 	andmi	ip, r4, r4
878077ec:	40204020 	eormi	r4, r0, r0, lsr #32
878077f0:	4000c03f 	andmi	ip, r0, pc, lsr r0
878077f4:	00004000 	andeq	r4, r0, r0
878077f8:	0004c007 	andeq	ip, r4, r7
878077fc:	0004c007 	andeq	ip, r4, r7
87807800:	0000c003 	andeq	ip, r0, r3
87807804:	c0074004 	andgt	r4, r7, r4
87807808:	00044004 	andeq	r4, r4, r4
8780780c:	4000c003 	andmi	ip, r0, r3
87807810:	80030000 	andhi	r0, r3, r0
87807814:	40044004 	andmi	r4, r4, r4
87807818:	00008003 	andeq	r8, r0, r3
8780781c:	f0071004 			; <UNDEFINED> instruction: 0xf0071004
87807820:	40045004 	andmi	r5, r4, r4
87807824:	00008003 	andeq	r8, r0, r3
87807828:	80030000 	andhi	r0, r3, r0
8780782c:	50044004 	andpl	r4, r4, r4
87807830:	1000f007 	andne	pc, r0, r7
87807834:	c0074004 	andgt	r4, r7, r4
87807838:	00044002 	andeq	r4, r4, r2
8780783c:	00000004 	andeq	r0, r0, r4
87807840:	40060000 	andmi	r0, r6, r0
87807844:	40054005 	andmi	r4, r5, r5
87807848:	0000c004 	andeq	ip, r0, r4
8780784c:	00040000 	andeq	r0, r4, r0
87807850:	4004801f 	andmi	r8, r4, pc, lsl r0
87807854:	00004000 	andeq	r4, r0, r0
87807858:	80070004 	andhi	r0, r7, r4
8780785c:	40044000 	andmi	r4, r4, r0
87807860:	4000c007 	andmi	ip, r0, r7
87807864:	00070004 	andeq	r0, r7, r4
87807868:	8001c004 	andhi	ip, r1, r4
8780786c:	00040006 	andeq	r0, r4, r6
87807870:	c0010006 	andgt	r0, r1, r6
87807874:	c0010007 	andgt	r0, r1, r7
87807878:	00000006 	andeq	r0, r0, r6
8780787c:	c0064004 	andgt	r4, r6, r4
87807880:	c0060001 	andgt	r0, r6, r1
87807884:	00004004 	andeq	r4, r0, r4
87807888:	10071004 	andne	r1, r7, r4
8780788c:	8001e004 	andhi	lr, r1, r4
87807890:	00040006 	andeq	r0, r4, r6
87807894:	40040000 	andmi	r0, r4, r0
87807898:	4006c005 	andmi	ip, r6, r5
8780789c:	00004004 	andeq	r4, r0, r4
878078a0:	00000000 	andeq	r0, r0, r0
878078a4:	e07b0004 	rsbs	r0, fp, r4
878078a8:	00002040 	andeq	r2, r0, r0, asr #32
878078ac:	00000000 	andeq	r0, r0, r0
878078b0:	f0ff0000 			; <UNDEFINED> instruction: 0xf0ff0000
878078b4:	00000000 	andeq	r0, r0, r0
878078b8:	20400000 	subcs	r0, r0, r0
878078bc:	0004e07b 	andeq	lr, r4, fp, ror r0
878078c0:	00000000 	andeq	r0, r0, r0
878078c4:	00800040 	addeq	r0, r0, r0, asr #32
878078c8:	00200040 	eoreq	r0, r0, r0, asr #32
878078cc:	00400020 	subeq	r0, r0, r0, lsr #32

878078d0 <asc2_2412>:
	...
87807900:	0f000000 	svceq	0x00000000
87807904:	fe0f3880 	cdp2	8, 0, cr3, cr15, cr0, {4}
87807908:	38800f38 	stmcc	r0, {r3, r4, r5, r8, r9, sl, fp}
	...
8780791c:	00010000 	andeq	r0, r1, r0
87807920:	00000600 	andeq	r0, r0, r0, lsl #12
87807924:	3800000c 	stmdacc	r0, {r2, r3}
87807928:	00310000 	eorseq	r0, r1, r0
8780792c:	00000600 	andeq	r0, r0, r0, lsl #12
87807930:	3800000c 	stmdacc	r0, {r2, r3}
87807934:	00300000 	eorseq	r0, r0, r0
	...
87807940:	67008061 	strvs	r8, [r0, -r1, rrx]
87807944:	80f907f8 	ldrshthi	r0, [r9], #120	; 0x78
87807948:	00806100 	addeq	r6, r0, r0, lsl #2
8780794c:	61008061 	tstvs	r0, r1, rrx
87807950:	80610080 	rsbhi	r0, r1, r0, lsl #1
87807954:	07f86700 	ldrbeq	r6, [r8, r0, lsl #14]!
87807958:	610080f9 	strdvs	r8, [r0, -r9]
8780795c:	00000080 	andeq	r0, r0, r0, lsl #1
87807960:	00000000 	andeq	r0, r0, r0
87807964:	c0010000 	andgt	r0, r1, r0
87807968:	f0e003e0 			; <UNDEFINED> instruction: 0xf0e003e0
8780796c:	04083006 	streq	r3, [r8], #-6
87807970:	ff1f0818 			; <UNDEFINED> instruction: 0xff1f0818
87807974:	080e04fe 	stmdaeq	lr, {r1, r2, r3, r4, r5, r6, r7, sl}
87807978:	03f08707 	mvnseq	r8, #1835008	; 0x1c0000
8780797c:	0000e081 	andeq	lr, r0, r1, lsl #1
87807980:	00000000 	andeq	r0, r0, r0
87807984:	0600f001 	streq	pc, [r0], -r1
87807988:	0404000c 	streq	r0, [r4], #-12
8780798c:	700c0608 	andvc	r0, ip, r8, lsl #12
87807990:	00c0f901 	sbceq	pc, r0, r1, lsl #18
87807994:	3b00000e 	blcc	878079d4 <asc2_2412+0x104>
87807998:	18ec00e0 	stmiane	ip!, {r5, r6, r7}^
8780799c:	04080807 	streq	r0, [r8], #-2055	; 0x807
878079a0:	0300180c 	movweq	r1, #2060	; 0x80c
878079a4:	000000e0 	andeq	r0, r0, r0, ror #1
878079a8:	00e00100 	rsceq	r0, r0, r0, lsl #2
878079ac:	f803f007 			; <UNDEFINED> instruction: 0xf803f007
878079b0:	081c0418 	ldmdaeq	ip, {r3, r4, sl}
878079b4:	07081704 	streq	r1, [r8, -r4, lsl #14]
878079b8:	c003d0e1 	andgt	sp, r3, r1, ror #1
878079bc:	b02300e0 	eorlt	r0, r3, r0, ror #1
878079c0:	00083c00 	andeq	r3, r8, r0, lsl #24
878079c4:	00000820 	andeq	r0, r0, r0, lsr #16
878079c8:	00000010 	andeq	r0, r0, r0, lsl r0
878079cc:	01000000 	mrseq	r0, (UNDEF: 0)
878079d0:	00310000 	eorseq	r0, r1, r0
878079d4:	00003200 	andeq	r3, r0, r0, lsl #4
878079d8:	0000001c 	andeq	r0, r0, ip, lsl r0
	...
87807a00:	ff01007f 			; <UNDEFINED> instruction: 0xff01007f
87807a04:	f08007c0 			; <UNDEFINED> instruction: 0xf08007c0
87807a08:	1018000c 	andsne	r0, r8, ip
87807a0c:	00200400 	eoreq	r0, r0, r0, lsl #8
87807a10:	00000002 	andeq	r0, r0, r2
87807a14:	20000000 	andcs	r0, r0, r0
87807a18:	00100200 	andseq	r0, r0, r0, lsl #4
87807a1c:	18000c04 	stmdane	r0, {r2, sl, fp}
87807a20:	01f08007 	mvnseq	r8, r7
87807a24:	7f00c0ff 	svcvc	0x0000c0ff
	...
87807a3c:	66000042 	strvs	r0, [r0], -r2, asr #32
87807a40:	00660000 	rsbeq	r0, r6, r0
87807a44:	00003c00 	andeq	r3, r0, r0, lsl #24
87807a48:	ff030018 			; <UNDEFINED> instruction: 0xff030018
87807a4c:	001800c0 	andseq	r0, r8, r0, asr #1
87807a50:	00003c00 	andeq	r3, r0, r0, lsl #24
87807a54:	66000066 	strvs	r0, [r0], -r6, rrx
87807a58:	00420000 	subeq	r0, r2, r0
87807a5c:	00000000 	andeq	r0, r0, r0
87807a60:	08000008 	stmdaeq	r0, {r3}
87807a64:	00080000 	andeq	r0, r8, r0
87807a68:	00000800 	andeq	r0, r0, r0, lsl #16
87807a6c:	ff010008 			; <UNDEFINED> instruction: 0xff010008
87807a70:	000800c0 	andeq	r0, r8, r0, asr #1
87807a74:	00000800 	andeq	r0, r0, r0, lsl #16
87807a78:	08000008 	stmdaeq	r0, {r3}
87807a7c:	00080000 	andeq	r0, r8, r0
87807a80:	00000000 	andeq	r0, r0, r0
87807a84:	00000100 	andeq	r0, r0, r0, lsl #2
87807a88:	32000031 	andcc	r0, r0, #49	; 0x31
87807a8c:	001c0000 	andseq	r0, ip, r0
	...
87807aa8:	08000008 	stmdaeq	r0, {r3}
87807aac:	00080000 	andeq	r0, r8, r0
87807ab0:	00000800 	andeq	r0, r0, r0, lsl #16
87807ab4:	08000008 	stmdaeq	r0, {r3}
87807ab8:	00080000 	andeq	r0, r8, r0
87807abc:	00000800 	andeq	r0, r0, r0, lsl #16
87807ac0:	08000008 	stmdaeq	r0, {r3}
	...
87807ad0:	38000038 	stmdacc	r0, {r3, r4, r5}
87807ad4:	00380000 	eorseq	r0, r8, r0
	...
87807af0:	00000600 	andeq	r0, r0, r0, lsl #12
87807af4:	7000001c 	andvc	r0, r0, ip, lsl r0
87807af8:	00800100 	addeq	r0, r0, r0, lsl #2
87807afc:	3800000e 	stmdacc	r0, {r1, r2, r3}
87807b00:	00c00000 	sbceq	r0, r0, r0
87807b04:	1c000007 	stcne	0, cr0, [r0], {7}
87807b08:	00300000 	eorseq	r0, r0, r0
	...
87807b14:	ff01807f 			; <UNDEFINED> instruction: 0xff01807f
87807b18:	708003e0 	addvc	r0, r0, r0, ror #7
87807b1c:	04180006 	ldreq	r0, [r8], #-6
87807b20:	00040800 	andeq	r0, r4, r0, lsl #16
87807b24:	18000608 	stmdane	r0, {r3, r9, sl}
87807b28:	01708003 	cmneq	r0, r3
87807b2c:	7f00e0ff 	svcvc	0x0000e0ff
87807b30:	00000080 	andeq	r0, r0, r0, lsl #1
87807b34:	00000000 	andeq	r0, r0, r0
87807b38:	00010000 	andeq	r0, r1, r0
87807b3c:	08000108 	stmdaeq	r0, {r3, r8}
87807b40:	03080001 	movweq	r0, #32769	; 0x8001
87807b44:	ff07f8ff 			; <UNDEFINED> instruction: 0xff07f8ff
87807b48:	080000f8 	stmdaeq	r0, {r3, r4, r5, r6, r7}
87807b4c:	00080000 	andeq	r0, r8, r0
87807b50:	00000800 	andeq	r0, r0, r0, lsl #16
87807b54:	00000000 	andeq	r0, r0, r0
87807b58:	01000000 	mrseq	r0, (UNDEF: 0)
87807b5c:	c00238c0 	andgt	r3, r2, r0, asr #17
87807b60:	98000458 	stmdals	r0, {r3, r4, r6, sl}
87807b64:	04180104 	ldreq	r0, [r8], #-260	; 0x104
87807b68:	04041802 	streq	r1, [r4], #-2050	; 0x802
87807b6c:	181c0618 	ldmdane	ip, {r3, r4, r9, sl}
87807b70:	0118f803 	tsteq	r8, r3, lsl #16
87807b74:	0000f8e0 	andeq	pc, r0, r0, ror #17
87807b78:	00000000 	andeq	r0, r0, r0
87807b7c:	01000000 	mrseq	r0, (UNDEF: 0)
87807b80:	c003e0c0 	andgt	lr, r3, r0, asr #1
87807b84:	080004f0 	stmdaeq	r0, {r4, r5, r6, r7, sl}
87807b88:	04080804 	streq	r0, [r8], #-2052	; 0x804
87807b8c:	18060808 	stmdane	r6, {r3, fp}
87807b90:	18f40308 	ldmne	r4!, {r3, r8, r9}^
87807b94:	00f0e701 	rscseq	lr, r0, r1, lsl #14
87807b98:	0000e001 	andeq	lr, r0, r1
	...
87807ba4:	0d000003 	stceq	0, cr0, [r0, #-12]
87807ba8:	00110000 	andseq	r0, r1, r0
87807bac:	00006100 	andeq	r6, r0, r0, lsl #2
87807bb0:	01030881 	smlabbeq	r3, r1, r8, r0
87807bb4:	f8ff0708 			; <UNDEFINED> instruction: 0xf8ff0708
87807bb8:	00f8ff0f 	rscseq	pc, r8, pc, lsl #30
87807bbc:	01000801 	tsteq	r0, r1, lsl #16
87807bc0:	00000008 	andeq	r0, r0, r8
87807bc4:	00000000 	andeq	r0, r0, r0
87807bc8:	fc07e000 	stc2	0, cr14, [r7], {-0}
87807bcc:	080806d0 	stmdaeq	r8, {r4, r6, r7, r9, sl}
87807bd0:	06081006 	streq	r1, [r8], -r6
87807bd4:	10060810 	andne	r0, r6, r0, lsl r8
87807bd8:	38180608 	ldmdacc	r8, {r3, r9, sl}
87807bdc:	06f00f06 	ldrbteq	r0, [r0], r6, lsl #30
87807be0:	0000c007 	andeq	ip, r0, r7
	...
87807bec:	ff01803f 			; <UNDEFINED> instruction: 0xff01803f
87807bf0:	308403e0 	addcc	r0, r4, r0, ror #7
87807bf4:	04180802 	ldreq	r0, [r8], #-2050	; 0x802
87807bf8:	10040810 	andne	r0, r4, r0, lsl r8
87807bfc:	08100408 	ldmdaeq	r0, {r3, sl}
87807c00:	03101807 	tsteq	r0, #458752	; 0x70000
87807c04:	0700f00f 	streq	pc, [r0, -pc]
87807c08:	000000c0 	andeq	r0, r0, r0, asr #1
87807c0c:	00000000 	andeq	r0, r0, r0
87807c10:	c0030000 	andgt	r0, r3, r0
87807c14:	00000700 	andeq	r0, r0, r0, lsl #14
87807c18:	06000006 	streq	r0, [r0], -r6
87807c1c:	0706f800 	streq	pc, [r6, -r0, lsl #16]
87807c20:	001806f8 			; <UNDEFINED> instruction: 0x001806f8
87807c24:	0700e006 	streq	lr, [r0, -r6]
87807c28:	00060000 	andeq	r0, r6, r0
87807c2c:	00000000 	andeq	r0, r0, r0
87807c30:	01000000 	mrseq	r0, (UNDEF: 0)
87807c34:	f703e0e1 			; <UNDEFINED> instruction: 0xf703e0e1
87807c38:	103406f0 	ldrshtne	r0, [r4], -r0
87807c3c:	04081804 	streq	r1, [r8], #-2052	; 0x804
87807c40:	0c040818 	stceq	8, cr0, [r4], {24}
87807c44:	080c0408 	stmdaeq	ip, {r3, sl}
87807c48:	03181606 	tsteq	r8, #6291456	; 0x600000
87807c4c:	c101f0f3 	strdgt	pc, [r1, -r3]
87807c50:	000000e0 	andeq	r0, r0, r0, ror #1
87807c54:	00000000 	andeq	r0, r0, r0
87807c58:	fc0300f8 	stc2	0, cr0, [r3], {248}	; 0xf8
87807c5c:	38060330 	stmdacc	r6, {r4, r5, r8, r9}
87807c60:	04080204 	streq	r0, [r8], #-516	; 0x204
87807c64:	02040802 	andeq	r0, r4, #131072	; 0x20000
87807c68:	10040408 	andne	r0, r4, r8, lsl #8
87807c6c:	01f00803 	mvnseq	r0, r3, lsl #16
87807c70:	7f00c0ff 	svcvc	0x0000c0ff
	...
87807c88:	70003870 	andvc	r3, r0, r0, ror r8
87807c8c:	38700038 	ldmdacc	r0!, {r3, r4, r5}^
	...
87807cac:	30001a30 	andcc	r1, r0, r0, lsr sl
87807cb0:	0000001c 	andeq	r0, r0, ip, lsl r0
	...
87807cc4:	08000000 	stmdaeq	r0, {}	; <UNPREDICTABLE>
87807cc8:	00140000 	andseq	r0, r4, r0
87807ccc:	00002200 	andeq	r2, r0, r0, lsl #4
87807cd0:	80000041 	andhi	r0, r0, r1, asr #32
87807cd4:	40000180 	andmi	r0, r0, r0, lsl #3
87807cd8:	04200002 	strteq	r0, [r0], #-2
87807cdc:	00081000 	andeq	r1, r8, r0
87807ce0:	00000008 	andeq	r0, r0, r8
87807ce4:	00000000 	andeq	r0, r0, r0
87807ce8:	21000021 	tstcs	r0, r1, lsr #32
87807cec:	00210000 	eoreq	r0, r1, r0
87807cf0:	00002100 	andeq	r2, r0, r0, lsl #2
87807cf4:	21000021 	tstcs	r0, r1, lsr #32
87807cf8:	00210000 	eoreq	r0, r1, r0
87807cfc:	00002100 	andeq	r2, r0, r0, lsl #2
87807d00:	21000021 	tstcs	r0, r1, lsr #32
	...
87807d0c:	00080000 	andeq	r0, r8, r0
87807d10:	10000408 	andne	r0, r0, r8, lsl #8
87807d14:	01200002 	teqeq	r0, r2
87807d18:	80004000 	andhi	r4, r0, r0
87807d1c:	00410080 	subeq	r0, r1, r0, lsl #1
87807d20:	00002200 	andeq	r2, r0, r0, lsl #4
87807d24:	08000014 	stmdaeq	r0, {r2, r4}
87807d28:	00000000 	andeq	r0, r0, r0
87807d2c:	03000000 	movweq	r0, #0
87807d30:	c00400c0 	andgt	r0, r4, r0, asr #1
87807d34:	00000400 	andeq	r0, r0, r0, lsl #8
87807d38:	08380008 	ldmdaeq	r8!, {r3}
87807d3c:	0808380f 	stmdaeq	r8, {r0, r1, r2, r3, fp, ip, sp}
87807d40:	00100838 	andseq	r0, r0, r8, lsr r8
87807d44:	0700300c 	streq	r3, [r0, -ip]
87807d48:	c00300e0 	andgt	r0, r3, r0, ror #1
	...
87807d54:	ff00803f 			; <UNDEFINED> instruction: 0xff00803f
87807d58:	708003e0 	addvc	r0, r0, r0, ror #7
87807d5c:	06100f02 	ldreq	r0, [r0], -r2, lsl #30
87807d60:	c0048870 	andgt	r8, r4, r0, ror r8
87807d64:	08830488 	stmeq	r3, {r3, r7, sl}
87807d68:	02887f04 	addeq	r7, r8, #4, 30
87807d6c:	010390c0 	smlabteq	r3, r0, r0, r9
87807d70:	40fe0020 	rscsmi	r0, lr, r0, lsr #32
87807d74:	00080000 	andeq	r0, r8, r0
87807d78:	01001800 	tsteq	r0, r0, lsl #16
87807d7c:	083e00f8 	ldmdaeq	lr!, {r3, r4, r5, r6, r7}
87807d80:	0700c201 	streq	ip, [r0, -r1, lsl #4]
87807d84:	e2070002 	and	r0, r7, #2
87807d88:	00fe0000 	rscseq	r0, lr, r0
87807d8c:	00c81f00 	sbceq	r1, r8, r0, lsl #30
87807d90:	0000f801 	andeq	pc, r0, r1, lsl #16
87807d94:	08000038 	stmdaeq	r0, {r3, r4, r5}
87807d98:	07080004 	streq	r0, [r8, -r4]
87807d9c:	ff07f8ff 			; <UNDEFINED> instruction: 0xff07f8ff
87807da0:	080804f8 	stmdaeq	r8, {r3, r4, r5, r6, r7, sl}
87807da4:	04080804 	streq	r0, [r8], #-2052	; 0x804
87807da8:	08040808 	stmdaeq	r4, {r3, fp}
87807dac:	08180608 	ldmdaeq	r8, {r3, r9, sl}
87807db0:	0118f403 	tsteq	r8, r3, lsl #8
87807db4:	0100f0e7 	smlatteq	r0, r7, r0, pc	; <UNPREDICTABLE>
87807db8:	000000e0 	andeq	r0, r0, r0, ror #1
87807dbc:	00000000 	andeq	r0, r0, r0
87807dc0:	ff01803f 			; <UNDEFINED> instruction: 0xff01803f
87807dc4:	708003e0 	addvc	r0, r0, r0, ror #7
87807dc8:	04180002 	ldreq	r0, [r8], #-2
87807dcc:	00040800 	andeq	r0, r4, r0, lsl #16
87807dd0:	08000408 	stmdaeq	r0, {r3, sl}
87807dd4:	06100004 	ldreq	r0, [r0], -r4
87807dd8:	80072000 	andhi	r2, r7, r0
87807ddc:	000000c0 	andeq	r0, r0, r0, asr #1
87807de0:	07080004 	streq	r0, [r8, -r4]
87807de4:	ff07f8ff 			; <UNDEFINED> instruction: 0xff07f8ff
87807de8:	080004f8 	stmdaeq	r0, {r3, r4, r5, r6, r7, sl}
87807dec:	04080004 	streq	r0, [r8], #-4
87807df0:	00040800 	andeq	r0, r4, r0, lsl #16
87807df4:	10000218 	andne	r0, r0, r8, lsl r2
87807df8:	01708003 	cmneq	r0, r3
87807dfc:	7f00e0ff 	svcvc	0x0000e0ff
87807e00:	00000080 	andeq	r0, r0, r0, lsl #1
87807e04:	07080004 	streq	r0, [r8, -r4]
87807e08:	ff07f8ff 			; <UNDEFINED> instruction: 0xff07f8ff
87807e0c:	080804f8 	stmdaeq	r8, {r3, r4, r5, r6, r7, sl}
87807e10:	04080804 	streq	r0, [r8], #-2052	; 0x804
87807e14:	08040808 	stmdaeq	r4, {r3, fp}
87807e18:	083e0408 	ldmdaeq	lr!, {r3, sl}
87807e1c:	06080004 	streq	r0, [r8], -r4
87807e20:	00011800 	andeq	r1, r1, r0, lsl #16
87807e24:	00000060 	andeq	r0, r0, r0, rrx
87807e28:	07080004 	streq	r0, [r8, -r4]
87807e2c:	ff07f8ff 			; <UNDEFINED> instruction: 0xff07f8ff
87807e30:	080804f8 	stmdaeq	r8, {r3, r4, r5, r6, r7, sl}
87807e34:	04000804 	streq	r0, [r0], #-2052	; 0x804
87807e38:	08040008 	stmdaeq	r4, {r3}
87807e3c:	003e0400 	eorseq	r0, lr, r0, lsl #8
87807e40:	06000006 	streq	r0, [r0], -r6
87807e44:	80010000 	andhi	r0, r1, r0
	...
87807e50:	ff01803f 			; <UNDEFINED> instruction: 0xff01803f
87807e54:	708003e0 	addvc	r0, r0, r0, ror #7
87807e58:	04180006 	ldreq	r0, [r8], #-6
87807e5c:	02040800 	andeq	r0, r4, #0, 16
87807e60:	08020408 	stmdaeq	r2, {r3, sl}
87807e64:	07f00302 	ldrbeq	r0, [r0, r2, lsl #6]!
87807e68:	0200f083 	andeq	pc, r0, #131	; 0x83
87807e6c:	00020000 	andeq	r0, r2, r0
87807e70:	07080004 	streq	r0, [r8, -r4]
87807e74:	ff07f8ff 			; <UNDEFINED> instruction: 0xff07f8ff
87807e78:	080804f8 	stmdaeq	r8, {r3, r4, r5, r6, r7, sl}
87807e7c:	00000800 	andeq	r0, r0, r0, lsl #16
87807e80:	08000008 	stmdaeq	r0, {r3}
87807e84:	00080000 	andeq	r0, r8, r0
87807e88:	07080804 	streq	r0, [r8, -r4, lsl #16]
87807e8c:	ff07f8ff 			; <UNDEFINED> instruction: 0xff07f8ff
87807e90:	080004f8 	stmdaeq	r0, {r3, r4, r5, r6, r7, sl}
87807e94:	00000000 	andeq	r0, r0, r0
87807e98:	00040000 	andeq	r0, r4, r0
87807e9c:	08000408 	stmdaeq	r0, {r3, sl}
87807ea0:	07080004 	streq	r0, [r8, -r4]
87807ea4:	ff07f8ff 			; <UNDEFINED> instruction: 0xff07f8ff
87807ea8:	080004f8 	stmdaeq	r0, {r3, r4, r5, r6, r7, sl}
87807eac:	04080004 	streq	r0, [r8], #-4
87807eb0:	00000800 	andeq	r0, r0, r0, lsl #16
	...
87807ebc:	00000600 	andeq	r0, r0, r0, lsl #12
87807ec0:	01000007 	tsteq	r0, r7
87807ec4:	04010004 	streq	r0, [r1], #-4
87807ec8:	00040100 	andeq	r0, r4, r0, lsl #2
87807ecc:	feff0703 	cdp2	7, 15, cr0, cr15, cr3, {0}
87807ed0:	04fcff07 	ldrbteq	pc, [ip], #3847	; 0xf07	; <UNPREDICTABLE>
87807ed4:	00040000 	andeq	r0, r4, r0
87807ed8:	00000400 	andeq	r0, r0, r0, lsl #8
87807edc:	07080004 	streq	r0, [r8, -r4]
87807ee0:	ff07f8ff 			; <UNDEFINED> instruction: 0xff07f8ff
87807ee4:	080c04f8 	stmdaeq	ip, {r3, r4, r5, r6, r7, sl}
87807ee8:	00001800 	andeq	r1, r0, r0, lsl #16
87807eec:	c704003e 	smladxgt	r4, lr, r0, r0
87807ef0:	c8030580 	stmdagt	r3, {r7, r8, sl}
87807ef4:	04f80006 	ldrbteq	r0, [r8], #6
87807ef8:	00043800 	andeq	r3, r4, r0, lsl #16
87807efc:	08000018 	stmdaeq	r0, {r3, r4}
87807f00:	07080004 	streq	r0, [r8, -r4]
87807f04:	ff07f8ff 			; <UNDEFINED> instruction: 0xff07f8ff
87807f08:	080004f8 	stmdaeq	r0, {r3, r4, r5, r6, r7, sl}
87807f0c:	00080000 	andeq	r0, r8, r0
87807f10:	00000800 	andeq	r0, r0, r0, lsl #16
87807f14:	08000008 	stmdaeq	r0, {r3}
87807f18:	00080000 	andeq	r0, r8, r0
87807f1c:	00001800 	andeq	r1, r0, r0, lsl #16
87807f20:	00000060 	andeq	r0, r0, r0, rrx
87807f24:	07080004 	streq	r0, [r8, -r4]
87807f28:	8007f8ff 	strdhi	pc, [r7], -pc	; <UNPREDICTABLE>
87807f2c:	00fc0708 	rscseq	r0, ip, r8, lsl #14
87807f30:	00c07f00 	sbceq	r7, r0, r0, lsl #30
87807f34:	0700f803 	streq	pc, [r0, -r3, lsl #16]
87807f38:	007800c0 	rsbseq	r0, r8, r0, asr #1
87807f3c:	07088007 	streq	r8, [r8, -r7]
87807f40:	ff07f8ff 			; <UNDEFINED> instruction: 0xff07f8ff
87807f44:	080004f8 	stmdaeq	r0, {r3, r4, r5, r6, r7, sl}
87807f48:	07080004 	streq	r0, [r8, -r4]
87807f4c:	0007f8ff 	strdeq	pc, [r7], -pc	; <UNPREDICTABLE>
87807f50:	00c00308 	sbceq	r0, r0, r8, lsl #6
87807f54:	0000e000 	andeq	lr, r0, r0
87807f58:	1e000038 	mcrne	0, 0, r0, cr0, cr8, {1}
87807f5c:	00070000 	andeq	r0, r7, r0
87807f60:	04c00100 	strbeq	r0, [r0], #256	; 0x100
87807f64:	ff07f000 			; <UNDEFINED> instruction: 0xff07f000
87807f68:	000004f8 	strdeq	r0, [r0], -r8
87807f6c:	00000000 	andeq	r0, r0, r0
87807f70:	ff01807f 			; <UNDEFINED> instruction: 0xff01807f
87807f74:	708003e0 	addvc	r0, r0, r0, ror #7
87807f78:	04180006 	ldreq	r0, [r8], #-6
87807f7c:	00040800 	andeq	r0, r4, r0, lsl #16
87807f80:	18000608 	stmdane	r0, {r3, r9, sl}
87807f84:	01300003 	teqeq	r0, r3
87807f88:	7f00e0ff 	svcvc	0x0000e0ff
87807f8c:	00000080 	andeq	r0, r0, r0, lsl #1
87807f90:	07080004 	streq	r0, [r8, -r4]
87807f94:	ff07f8ff 			; <UNDEFINED> instruction: 0xff07f8ff
87807f98:	080404f8 	stmdaeq	r4, {r3, r4, r5, r6, r7, sl}
87807f9c:	04000404 	streq	r0, [r0], #-1028	; 0x404
87807fa0:	04040004 	streq	r0, [r4], #-4
87807fa4:	00040400 	andeq	r0, r4, r0, lsl #8
87807fa8:	03000c06 	movweq	r0, #3078	; 0xc06
87807fac:	f00100f8 			; <UNDEFINED> instruction: 0xf00100f8
	...
87807fb8:	ff01807f 			; <UNDEFINED> instruction: 0xff01807f
87807fbc:	708003e0 	addvc	r0, r0, r0, ror #7
87807fc0:	04880006 	streq	r0, [r8], #6
87807fc4:	00048800 	andeq	r8, r4, r0, lsl #16
87807fc8:	3c0006c8 	stccc	6, cr0, [r0], {200}	; 0xc8
87807fcc:	013e0003 	teqeq	lr, r3
87807fd0:	7f00e6ff 	svcvc	0x0000e6ff
87807fd4:	00000084 	andeq	r0, r0, r4, lsl #1
87807fd8:	07080004 	streq	r0, [r8, -r4]
87807fdc:	ff07f8ff 			; <UNDEFINED> instruction: 0xff07f8ff
87807fe0:	080804f8 	stmdaeq	r8, {r3, r4, r5, r6, r7, sl}
87807fe4:	04000804 	streq	r0, [r0], #-2052	; 0x804
87807fe8:	0f04000c 	svceq	0x0004000c
87807fec:	c00b0400 	andgt	r0, fp, r0, lsl #8
87807ff0:	03f01006 	mvnseq	r1, #6
87807ff4:	e00138f0 	strd	r3, [r1], -r0
87807ff8:	08000008 	stmdaeq	r0, {r3}
87807ffc:	01000000 	mrseq	r0, (UNDEF: 0)
87808000:	f003f8e0 			; <UNDEFINED> instruction: 0xf003f8e0
87808004:	10300630 	eorsne	r0, r0, r0, lsr r6
87808008:	04081804 	streq	r1, [r8], #-2052	; 0x804
8780800c:	0c040818 	stceq	8, cr0, [r4], {24}
87808010:	080c0408 	stmdaeq	ip, {r3, sl}
87808014:	02180602 	andseq	r0, r8, #2097152	; 0x200000
87808018:	8107f007 	tsthi	r7, r7
8780801c:	000000e0 	andeq	r0, r0, r0, ror #1
87808020:	06008001 	streq	r8, [r0], -r1
87808024:	00040000 	andeq	r0, r4, r0
87808028:	00000400 	andeq	r0, r0, r0, lsl #8
8780802c:	07080004 	streq	r0, [r8, -r4]
87808030:	ff07f8ff 			; <UNDEFINED> instruction: 0xff07f8ff
87808034:	080004f8 	stmdaeq	r0, {r3, r4, r5, r6, r7, sl}
87808038:	04000004 	streq	r0, [r0], #-4
8780803c:	00060000 	andeq	r0, r6, r0
87808040:	00800100 	addeq	r0, r0, r0, lsl #2
87808044:	07000004 	streq	r0, [r0, -r4]
87808048:	ff07e0ff 			; <UNDEFINED> instruction: 0xff07e0ff
8780804c:	180004f0 	stmdane	r0, {r4, r5, r6, r7, sl}
87808050:	00080000 	andeq	r0, r8, r0
87808054:	00000800 	andeq	r0, r0, r0, lsl #16
87808058:	08000008 	stmdaeq	r0, {r3}
8780805c:	04080000 	streq	r0, [r8], #-0
87808060:	ff071000 			; <UNDEFINED> instruction: 0xff071000
87808064:	000004e0 	andeq	r0, r0, r0, ror #9
87808068:	06000004 	streq	r0, [r0], -r4
8780806c:	e0070000 	and	r0, r7, r0
87808070:	00fe0700 	rscseq	r0, lr, r0, lsl #14
87808074:	00e01f04 	rsceq	r1, r0, r4, lsl #30
87808078:	0000f801 	andeq	pc, r0, r1, lsl #16
8780807c:	e0010038 	and	r0, r1, r8, lsr r0
87808080:	07003e04 	streq	r3, [r0, -r4, lsl #28]
87808084:	000600c0 	andeq	r0, r6, r0, asr #1
87808088:	00000400 	andeq	r0, r0, r0, lsl #8
8780808c:	07000004 	streq	r0, [r0, -r4]
87808090:	ff0700e0 			; <UNDEFINED> instruction: 0xff0700e0
87808094:	f81f04c0 			; <UNDEFINED> instruction: 0xf81f04c0
87808098:	07c00700 	strbeq	r0, [r0, r0, lsl #14]
8780809c:	ff0700f8 			; <UNDEFINED> instruction: 0xff0700f8
878080a0:	f83f0480 			; <UNDEFINED> instruction: 0xf83f0480
878080a4:	04c00700 	strbeq	r0, [r0], #1792	; 0x700
878080a8:	000700f8 	strdeq	r0, [r7], -r8
878080ac:	00000400 	andeq	r0, r0, r0, lsl #8
878080b0:	04000000 	streq	r0, [r0], #-0
878080b4:	00060800 	andeq	r0, r6, r0, lsl #16
878080b8:	78c00718 	stmiavc	r0, {r3, r4, r8, r9, sl}^
878080bc:	00c8f105 	sbceq	pc, r8, r5, lsl #2
878080c0:	1f00003e 	svcne	0x0000003e
878080c4:	e8630480 	stmda	r3!, {r7, sl}^
878080c8:	06f88007 	ldrbteq	r8, [r8], r7
878080cc:	00041800 	andeq	r1, r4, r0, lsl #16
878080d0:	00000008 	andeq	r0, r0, r8
878080d4:	06000004 	streq	r0, [r0], -r4
878080d8:	80070000 	andhi	r0, r7, r0
878080dc:	08e00700 	stmiaeq	r0!, {r8, r9, sl}^
878080e0:	00087c04 	andeq	r7, r8, r4, lsl #24
878080e4:	0700f81f 	smuadeq	r0, pc, r8	; <UNPREDICTABLE>
878080e8:	081800f8 	ldmdaeq	r8, {r3, r4, r5, r6, r7}
878080ec:	0708e004 	streq	lr, [r8, -r4]
878080f0:	00060000 	andeq	r0, r6, r0
878080f4:	00000400 	andeq	r0, r0, r0, lsl #8
878080f8:	01000000 	mrseq	r0, (UNDEF: 0)
878080fc:	00060800 	andeq	r0, r6, r0, lsl #16
87808100:	f8000438 			; <UNDEFINED> instruction: 0xf8000438
87808104:	04e80304 	strbteq	r0, [r8], #772	; 0x304
87808108:	7c04080f 	stcvc	8, cr0, [r4], {15}
8780810c:	08f00508 	ldmeq	r0!, {r3, r8, sl}^
87808110:	0708c007 	streq	ip, [r8, -r7]
87808114:	00041800 	andeq	r1, r4, r0, lsl #16
87808118:	00000060 	andeq	r0, r0, r0, rrx
	...
87808128:	3f000000 	svccc	0x00000000
8780812c:	0020feff 	strdeq	pc, [r0], -pc	; <UNPREDICTABLE>
87808130:	02002002 	andeq	r2, r0, #2
87808134:	20020020 	andcs	r0, r2, r0, lsr #32
87808138:	00200200 	eoreq	r0, r0, r0, lsl #4
8780813c:	00000002 	andeq	r0, r0, r2
87808140:	00000000 	andeq	r0, r0, r0
87808144:	00080000 	andeq	r0, r8, r0
87808148:	00000700 	andeq	r0, r0, r0, lsl #14
8780814c:	0000c000 	andeq	ip, r0, r0
87808150:	06000038 			; <UNDEFINED> instruction: 0x06000038
87808154:	c0010000 	andgt	r0, r1, r0
87808158:	00300000 	eorseq	r0, r0, r0
8780815c:	00000e00 	andeq	r0, r0, r0, lsl #28
87808160:	00000001 	andeq	r0, r0, r1
87808164:	00000000 	andeq	r0, r0, r0
87808168:	00200000 	eoreq	r0, r0, r0
8780816c:	02002002 	andeq	r2, r0, #2
87808170:	20020020 	andcs	r0, r2, r0, lsr #32
87808174:	00200200 	eoreq	r0, r0, r0, lsl #4
87808178:	feff3f02 	cdp2	15, 15, cr3, cr15, cr2, {0}
	...
87808190:	00000800 	andeq	r0, r0, r0, lsl #16
87808194:	30000010 	andcc	r0, r0, r0, lsl r0
87808198:	00200000 	eoreq	r0, r0, r0
8780819c:	00003000 	andeq	r3, r0, r0
878081a0:	08000010 	stmdaeq	r0, {r4}
	...
878081ac:	00010000 	andeq	r0, r1, r0
878081b0:	00000100 	andeq	r0, r0, r0, lsl #2
878081b4:	01000001 	tsteq	r0, r1
878081b8:	00010000 	andeq	r0, r1, r0
878081bc:	00000100 	andeq	r0, r0, r0, lsl #2
878081c0:	01000001 	tsteq	r0, r1
878081c4:	00010000 	andeq	r0, r1, r0
878081c8:	00000100 	andeq	r0, r0, r0, lsl #2
878081cc:	01000001 	tsteq	r0, r1
	...
878081d8:	00002000 	andeq	r2, r0, r0
878081dc:	10000020 	andne	r0, r0, r0, lsr #32
878081e0:	00100000 	andseq	r0, r0, r0
	...
878081f8:	1900f000 	stmdbne	r0, {ip, sp, lr, pc}
878081fc:	181b00f8 	ldmdane	fp, {r3, r4, r5, r6, r7}
87808200:	00082200 	andeq	r2, r8, r0, lsl #4
87808204:	24000826 	strcs	r0, [r0], #-2086	; 0x826
87808208:	10240008 	eorne	r0, r4, r8
8780820c:	00f83f00 	rscseq	r3, r8, r0, lsl #30
87808210:	0000f81f 	andeq	pc, r0, pc, lsl r8	; <UNPREDICTABLE>
87808214:	18000008 	stmdane	r0, {r3}
87808218:	04000000 	streq	r0, [r0], #-0
8780821c:	ff070000 			; <UNDEFINED> instruction: 0xff070000
87808220:	f0ff0ff8 			; <UNDEFINED> instruction: 0xf0ff0ff8
87808224:	00181800 	andseq	r1, r8, r0, lsl #16
87808228:	20000810 	andcs	r0, r0, r0, lsl r8
8780822c:	08200008 	stmdaeq	r0!, {r3}
87808230:	00183000 	andseq	r3, r8, r0
87808234:	0f00f01f 	svceq	0x0000f01f
87808238:	000000c0 	andeq	r0, r0, r0, asr #1
8780823c:	00000000 	andeq	r0, r0, r0
87808240:	1f00c007 	svcne	0x0000c007
87808244:	301800f0 	ldrshcc	r0, [r8], -r0	; <UNPREDICTABLE>
87808248:	00082000 	andeq	r2, r8, r0
8780824c:	20000820 	andcs	r0, r0, r0, lsr #16
87808250:	083c0008 	ldmdaeq	ip!, {r3}
87808254:	00101c00 	andseq	r1, r0, r0, lsl #24
87808258:	00006000 	andeq	r6, r0, r0
	...
87808264:	1f00c007 	svcne	0x0000c007
87808268:	183800f0 	ldmdane	r8!, {r4, r5, r6, r7}
8780826c:	00082000 	andeq	r2, r8, r0
87808270:	20000820 	andcs	r0, r0, r0, lsr #16
87808274:	10100408 	andsne	r0, r0, r8, lsl #8
87808278:	0ff8ff07 	svceq	0x00f8ff07
8780827c:	0000f0ff 	strdeq	pc, [r0], -pc	; <UNPREDICTABLE>
87808280:	00000010 	andeq	r0, r0, r0, lsl r0
87808284:	00000000 	andeq	r0, r0, r0
87808288:	07000000 	streq	r0, [r0, -r0]
8780828c:	f01f00c0 			; <UNDEFINED> instruction: 0xf01f00c0
87808290:	00301200 	eorseq	r1, r0, r0, lsl #4
87808294:	22001822 	andcs	r1, r0, #2228224	; 0x220000
87808298:	08220008 	stmdaeq	r2!, {r3}
8780829c:	00083200 	andeq	r3, r8, r0, lsl #4
878082a0:	0e00101e 	mcreq	0, 0, r1, cr0, cr14, {0}
878082a4:	00000020 	andeq	r0, r0, r0, lsr #32
878082a8:	00000000 	andeq	r0, r0, r0
878082ac:	20000020 	andcs	r0, r0, r0, lsr #32
878082b0:	08200008 	stmdaeq	r0!, {r3}
878082b4:	03f8ff01 	mvnseq	pc, #1, 30
878082b8:	2006f8ff 	strdcs	pc, [r6], -pc	; <UNPREDICTABLE>
878082bc:	08200408 	stmdaeq	r0!, {r3, sl}
878082c0:	07082004 	streq	r2, [r8, -r4]
878082c4:	00030020 	andeq	r0, r3, r0, lsr #32
	...
878082d0:	0e000e00 	cdpeq	14, 0, cr0, cr0, cr0, {0}
878082d4:	f31f006e 	vhadd.u16	q0, <illegal reg q7.5>, q15
878082d8:	00b13100 	adcseq	r3, r1, r0, lsl #2
878082dc:	2000b120 	andcs	fp, r0, r0, lsr #2
878082e0:	913100b1 	ldrhls	r0, [r1, -r1]!
878082e4:	00131f00 	andseq	r1, r3, r0, lsl #30
878082e8:	20001e2e 	andcs	r1, r0, lr, lsr #28
878082ec:	0030000e 	eorseq	r0, r0, lr
878082f0:	04000000 	streq	r0, [r0], #-0
878082f4:	ff070800 			; <UNDEFINED> instruction: 0xff070800
878082f8:	f8ff0ff8 			; <UNDEFINED> instruction: 0xf8ff0ff8
878082fc:	00081000 	andeq	r1, r8, r0
87808300:	20000020 	andcs	r0, r0, r0, lsr #32
87808304:	08200000 	stmdaeq	r0!, {}	; <UNPREDICTABLE>
87808308:	00f83f00 	rscseq	r3, r8, r0, lsl #30
8780830c:	0000f81f 	andeq	pc, r0, pc, lsl r8	; <UNPREDICTABLE>
87808310:	00000008 	andeq	r0, r0, r8
87808314:	00000000 	andeq	r0, r0, r0
87808318:	20000000 	andcs	r0, r0, r0
8780831c:	08200008 	stmdaeq	r0!, {r3}
87808320:	06082000 	streq	r2, [r8], -r0
87808324:	3f06f83f 	svccc	0x0006f83f
87808328:	080000f8 	stmdaeq	r0, {r3, r4, r5, r6, r7}
8780832c:	00080000 	andeq	r0, r8, r0
87808330:	00000800 	andeq	r0, r0, r0, lsl #16
	...
87808340:	03000003 	movweq	r0, #3
87808344:	00012000 	andeq	r2, r1, r0
87808348:	20000120 	andcs	r0, r0, r0, lsr #2
8780834c:	fe3f0603 	cdp2	6, 3, cr0, cr15, cr3, {0}
87808350:	00fc3f06 	rscseq	r3, ip, r6, lsl #30
	...
8780835c:	04000000 	streq	r0, [r0], #-0
87808360:	ff070800 			; <UNDEFINED> instruction: 0xff070800
87808364:	f8ff0ff8 			; <UNDEFINED> instruction: 0xf8ff0ff8
87808368:	00880100 	addeq	r0, r8, r0, lsl #2
8780836c:	2f000003 	svccs	0x00000003
87808370:	f83800c0 			; <UNDEFINED> instruction: 0xf83800c0
87808374:	00382000 	eorseq	r2, r8, r0
87808378:	00000820 	andeq	r0, r0, r0, lsr #16
8780837c:	00000008 	andeq	r0, r0, r8
87808380:	00000000 	andeq	r0, r0, r0
87808384:	00040000 	andeq	r0, r4, r0
87808388:	08000408 	stmdaeq	r0, {r3, sl}
8780838c:	07080004 	streq	r0, [r8, -r4]
87808390:	ff0ff8ff 			; <UNDEFINED> instruction: 0xff0ff8ff
87808394:	080000f8 	stmdaeq	r0, {r3, r4, r5, r6, r7}
87808398:	00080000 	andeq	r0, r8, r0
8780839c:	00000800 	andeq	r0, r0, r0, lsl #16
878083a0:	00000000 	andeq	r0, r0, r0
878083a4:	00082000 	andeq	r2, r8, r0
878083a8:	3f00f83f 	svccc	0x0000f83f
878083ac:	081000f8 	ldmdaeq	r0, {r3, r4, r5, r6, r7}
878083b0:	00002000 	andeq	r2, r0, r0
878083b4:	3f00f83f 	svccc	0x0000f83f
878083b8:	081000f8 	ldmdaeq	r0, {r3, r4, r5, r6, r7}
878083bc:	00002000 	andeq	r2, r0, r0
878083c0:	3f00f83f 	svccc	0x0000f83f
878083c4:	080000f8 	stmdaeq	r0, {r3, r4, r5, r6, r7}
878083c8:	00000000 	andeq	r0, r0, r0
878083cc:	3f000820 	svccc	0x00000820
878083d0:	f83f00f8 			; <UNDEFINED> instruction: 0xf83f00f8
878083d4:	00081000 	andeq	r1, r8, r0
878083d8:	20000010 	andcs	r0, r0, r0, lsl r0
878083dc:	08200000 	stmdaeq	r0!, {}	; <UNPREDICTABLE>
878083e0:	00f83f00 	rscseq	r3, r8, r0, lsl #30
878083e4:	0000f81f 	andeq	pc, r0, pc, lsl r8	; <UNPREDICTABLE>
878083e8:	00000008 	andeq	r0, r0, r8
878083ec:	00000000 	andeq	r0, r0, r0
878083f0:	0f00c007 	svceq	0x0000c007
878083f4:	301800f0 	ldrshcc	r0, [r8], -r0	; <UNPREDICTABLE>
878083f8:	00083000 	andeq	r3, r8, r0
878083fc:	20000820 	andcs	r0, r0, r0, lsr #16
87808400:	08300008 	ldmdaeq	r0!, {r3}
87808404:	00301800 	eorseq	r1, r0, r0, lsl #16
87808408:	0700f00f 	streq	pc, [r0, -pc]
8780840c:	000000c0 	andeq	r0, r0, r0, asr #1
87808410:	00000000 	andeq	r0, r0, r0
87808414:	3f000120 	svccc	0x00000120
87808418:	ff3f00ff 			; <UNDEFINED> instruction: 0xff3f00ff
8780841c:	00111000 	andseq	r1, r1, r0
87808420:	20000920 	andcs	r0, r0, r0, lsr #18
87808424:	08200008 	stmdaeq	r0!, {r3}
87808428:	00383000 	eorseq	r3, r8, r0
8780842c:	0f00f01f 	svceq	0x0000f01f
87808430:	000000c0 	andeq	r0, r0, r0, asr #1
87808434:	00000000 	andeq	r0, r0, r0
87808438:	1f00c007 	svcne	0x0000c007
8780843c:	183800f0 	ldmdane	r8!, {r4, r5, r6, r7}
87808440:	00082000 	andeq	r2, r8, r0
87808444:	20000820 	andcs	r0, r0, r0, lsr #16
87808448:	11100009 	tstne	r0, r9
8780844c:	00ff1f00 	rscseq	r1, pc, r0, lsl #30
87808450:	0000ff3f 	andeq	pc, r0, pc, lsr pc	; <UNPREDICTABLE>
87808454:	00000001 	andeq	r0, r0, r1
87808458:	00082000 	andeq	r2, r8, r0
8780845c:	20000820 	andcs	r0, r0, r0, lsr #16
87808460:	f83f0008 			; <UNDEFINED> instruction: 0xf83f0008
87808464:	00f83f00 	rscseq	r3, r8, r0, lsl #30
87808468:	10000808 	andne	r0, r0, r8, lsl #16
8780846c:	08200008 	stmdaeq	r0!, {r3}
87808470:	00002000 	andeq	r2, r0, r0
87808474:	30000030 	andcc	r0, r0, r0, lsr r0
	...
87808480:	0c000000 	stceq	0, cr0, [r0], {-0}
87808484:	181e0078 	ldmdane	lr, {r3, r4, r5, r6}
87808488:	00083300 	andeq	r3, r8, r0, lsl #6
8780848c:	21000823 	tstcs	r0, r3, lsr #16
87808490:	88210008 	stmdahi	r1!, {r3}
87808494:	00982100 	addseq	r2, r8, r0, lsl #2
87808498:	3800f030 	stmdacc	r0, {r4, r5, ip, sp, lr, pc}
8780849c:	00000060 	andeq	r0, r0, r0, rrx
878084a0:	00000000 	andeq	r0, r0, r0
878084a4:	20000020 	andcs	r0, r0, r0, lsr #32
878084a8:	00200000 	eoreq	r0, r0, r0
878084ac:	03f0ff00 	mvnseq	pc, #0, 30
878084b0:	2000f8ff 	strdcs	pc, [r0], -pc	; <UNPREDICTABLE>
878084b4:	08200008 	stmdaeq	r0!, {r3}
878084b8:	00082000 	andeq	r2, r8, r0
878084bc:	00003000 	andeq	r3, r0, r0
	...
878084c8:	3f000020 	svccc	0x00000020
878084cc:	f87f00f0 			; <UNDEFINED> instruction: 0xf87f00f0
878084d0:	00180000 	andseq	r0, r8, r0
878084d4:	00000800 	andeq	r0, r0, r0, lsl #16
878084d8:	10200008 	eorne	r0, r0, r8
878084dc:	00f83f00 	rscseq	r3, r8, r0, lsl #30
878084e0:	0000f07f 	andeq	pc, r0, pc, ror r0	; <UNPREDICTABLE>
878084e4:	00000010 	andeq	r0, r0, r0, lsl r0
878084e8:	00000000 	andeq	r0, r0, r0
878084ec:	30000020 	andcc	r0, r0, r0, lsr #32
878084f0:	003c0000 	eorseq	r0, ip, r0
878084f4:	00803f00 	addeq	r3, r0, r0, lsl #30
878084f8:	0000f023 	andeq	pc, r0, r3, lsr #32
878084fc:	70000078 	andvc	r0, r0, r8, ror r0
87808500:	00802300 	addeq	r2, r0, r0, lsl #6
87808504:	3000003c 	andcc	r0, r0, ip, lsr r0
87808508:	00200000 	eoreq	r0, r0, r0
8780850c:	00002000 	andeq	r2, r0, r0
87808510:	3f00003c 	svccc	0x0000003c
87808514:	f82300e0 			; <UNDEFINED> instruction: 0xf82300e0
87808518:	00e00000 	rsceq	r0, r0, r0
8780851c:	3e000027 	cdpcc	0, 0, cr0, cr0, cr7, {1}
87808520:	e03f0000 	eors	r0, pc, r0
87808524:	00f82100 	rscseq	r2, r8, r0, lsl #2
87808528:	3e00e001 	cdpcc	0, 0, cr14, cr0, cr1, {0}
8780852c:	00200000 	eoreq	r0, r0, r0
87808530:	00000000 	andeq	r0, r0, r0
87808534:	20000820 	andcs	r0, r0, r0, lsr #16
87808538:	38380008 	ldmdacc	r8!, {r3}
8780853c:	00683e00 	rsbeq	r3, r8, r0, lsl #28
87808540:	03008027 	movweq	r8, #39	; 0x27
87808544:	f82c00c8 			; <UNDEFINED> instruction: 0xf82c00c8
87808548:	00383800 	eorseq	r3, r8, r0, lsl #16
8780854c:	20001820 	andcs	r1, r0, r0, lsr #16
87808550:	00000008 	andeq	r0, r0, r8
87808554:	00000000 	andeq	r0, r0, r0
87808558:	30000020 	andcc	r0, r0, r0, lsr #32
8780855c:	013c0003 	teqeq	ip, r3
87808560:	00833f00 	addeq	r3, r3, r0, lsl #30
87808564:	0000ec23 	andeq	lr, r0, r3, lsr #24
87808568:	80230070 	eorhi	r0, r3, r0, ror r0
8780856c:	00003c00 	andeq	r3, r0, r0, lsl #24
87808570:	20000020 	andcs	r0, r0, r0, lsr #32
	...
8780857c:	38000000 	stmdacc	r0, {}	; <UNPREDICTABLE>
87808580:	38200008 	stmdacc	r0!, {r3}
87808584:	00f82000 	rscseq	r2, r8, r0
87808588:	2f00e823 	svccs	0x0000e823
8780858c:	083e0088 	ldmdaeq	lr!, {r3, r7}
87808590:	00083800 	andeq	r3, r8, r0, lsl #16
87808594:	00001820 	andeq	r1, r0, r0, lsr #16
87808598:	00000070 	andeq	r0, r0, r0, ror r0
	...
878085ac:	14000008 	strne	r0, [r0], #-8
878085b0:	fcf71f00 	ldc2l	15, cr1, [r7]
878085b4:	20060030 	andcs	r0, r6, r0, lsr r0
878085b8:	00000200 	andeq	r0, r0, r0, lsl #4
	...
878085d0:	ffff0000 			; <UNDEFINED> instruction: 0xffff0000
878085d4:	000000ff 	strdeq	r0, [r0], -pc	; <UNPREDICTABLE>
	...
878085e8:	00200000 	eoreq	r0, r0, r0
878085ec:	06003002 	streq	r3, [r0], -r2
878085f0:	00fcf71f 	rscseq	pc, ip, pc, lsl r7	; <UNPREDICTABLE>
878085f4:	08000014 	stmdaeq	r0, {r2, r4}
	...
87808608:	18000000 	stmdane	r0, {}	; <UNPREDICTABLE>
8780860c:	00600000 	rsbeq	r0, r0, r0
87808610:	00004000 	andeq	r4, r0, r0
87808614:	20000040 	andcs	r0, r0, r0, asr #32
87808618:	00100000 	andseq	r0, r0, r0
8780861c:	00000800 	andeq	r0, r0, r0, lsl #16
87808620:	04000004 	streq	r0, [r0], #-4
87808624:	000c0000 	andeq	r0, ip, r0
87808628:	00001000 	andeq	r1, r0, r0

8780862c <asc2_1608>:
	...
87808640:	cc1f0000 	ldcgt	0, cr0, [pc], {-0}
87808644:	00000c00 	andeq	r0, r0, r0, lsl #24
87808648:	00000000 	andeq	r0, r0, r0
8780864c:	00080000 	andeq	r0, r8, r0
87808650:	00600030 	rsbeq	r0, r0, r0, lsr r0
87808654:	00300008 	eorseq	r0, r0, r8
87808658:	00000060 	andeq	r0, r0, r0, rrx
8780865c:	fc032002 	stc2	0, cr2, [r3], {2}
87808660:	2002201e 	andcs	r2, r2, lr, lsl r0
87808664:	201efc03 	andscs	pc, lr, r3, lsl #24
87808668:	00002002 	andeq	r2, r0, r2
8780866c:	180e0000 	stmdane	lr, {}	; <UNPREDICTABLE>
87808670:	ff3f0411 			; <UNDEFINED> instruction: 0xff3f0411
87808674:	780c8410 	stmdavc	ip, {r4, sl, pc}
87808678:	00000000 	andeq	r0, r0, r0
8780867c:	8410000f 	ldrhi	r0, [r0], #-15
87808680:	c000380f 	andgt	r3, r0, pc, lsl #16
87808684:	84187807 	ldrhi	r7, [r8], #-2055	; 0x807
87808688:	00007800 	andeq	r7, r0, r0, lsl #16
8780868c:	840f7800 	strhi	r7, [pc], #-2048	; 87808694 <asc2_1608+0x68>
87808690:	2411c410 	ldrcs	ip, [r1], #-1040	; 0x410
87808694:	e400980e 	str	r9, [r0], #-2062	; 0x80e
87808698:	08008400 	stmdaeq	r0, {sl, pc}
8780869c:	00680008 	rsbeq	r0, r8, r8
878086a0:	00000070 	andeq	r0, r0, r0, ror r0
	...
878086b0:	e0070000 	and	r0, r7, r0
878086b4:	04201818 	strteq	r1, [r0], #-2072	; 0x818
878086b8:	00000240 	andeq	r0, r0, r0, asr #4
878086bc:	02400000 	subeq	r0, r0, #0
878086c0:	18180420 	ldmdane	r8, {r5, sl}
878086c4:	0000e007 	andeq	lr, r0, r7
878086c8:	00000000 	andeq	r0, r0, r0
878086cc:	40024002 	andmi	r4, r2, r2
878086d0:	f00f8001 			; <UNDEFINED> instruction: 0xf00f8001
878086d4:	40028001 	andmi	r8, r2, r1
878086d8:	00004002 	andeq	r4, r0, r2
878086dc:	80008000 	andhi	r8, r0, r0
878086e0:	f80f8000 			; <UNDEFINED> instruction: 0xf80f8000
878086e4:	80008000 	andhi	r8, r0, r0
878086e8:	00008000 	andeq	r8, r0, r0
878086ec:	0d000100 	stfeqs	f0, [r0, #-0]
878086f0:	00000e00 	andeq	r0, r0, r0, lsl #28
	...
878086fc:	80000000 	andhi	r0, r0, r0
87808700:	80008000 	andhi	r8, r0, r0
87808704:	80008000 	andhi	r8, r0, r0
87808708:	80008000 	andhi	r8, r0, r0
8780870c:	0c000000 	stceq	0, cr0, [r0], {-0}
87808710:	00000c00 	andeq	r0, r0, r0, lsl #24
	...
8780871c:	06000000 	streq	r0, [r0], -r0
87808720:	60001800 	andvs	r1, r0, r0, lsl #16
87808724:	00068001 	andeq	r8, r6, r1
87808728:	00200018 	eoreq	r0, r0, r8, lsl r0
8780872c:	f0070000 			; <UNDEFINED> instruction: 0xf0070000
87808730:	04100808 	ldreq	r0, [r0], #-2056	; 0x808
87808734:	08080410 	stmdaeq	r8, {r4, sl}
87808738:	0000f007 	andeq	pc, r0, r7
8780873c:	04080000 	streq	r0, [r8], #-0
87808740:	fc1f0408 	ldc2	4, cr0, [pc], {8}
87808744:	04000400 	streq	r0, [r0], #-1024	; 0x400
87808748:	00000000 	andeq	r0, r0, r0
8780874c:	0c0e0000 	stceq	0, cr0, [lr], {-0}
87808750:	24101410 	ldrcs	r1, [r0], #-1040	; 0x410
87808754:	84114410 	ldrhi	r4, [r1], #-1040	; 0x410
87808758:	00000c0e 	andeq	r0, r0, lr, lsl #24
8780875c:	180c0000 	stmdane	ip, {}	; <UNPREDICTABLE>
87808760:	04110410 	ldreq	r0, [r1], #-1040	; 0x410
87808764:	88120411 	ldmdahi	r2, {r0, r4, sl}
87808768:	0000700c 	andeq	r7, r0, ip
8780876c:	e0000000 	and	r0, r0, r0
87808770:	24042003 	strcs	r2, [r4], #-3
87808774:	fc1f2408 	ldc2	4, cr2, [pc], {8}
87808778:	00002400 	andeq	r2, r0, r0, lsl #8
8780877c:	981f0000 	ldmdals	pc, {}	; <UNPREDICTABLE>
87808780:	04118410 	ldreq	r8, [r1], #-1040	; 0x410
87808784:	88100411 	ldmdahi	r0, {r0, r4, sl}
87808788:	00007010 	andeq	r7, r0, r0, lsl r0
8780878c:	f0070000 			; <UNDEFINED> instruction: 0xf0070000
87808790:	04118808 	ldreq	r8, [r1], #-2056	; 0x808
87808794:	88180411 	ldmdahi	r8, {r0, r4, sl}
87808798:	00007000 	andeq	r7, r0, r0
8780879c:	001c0000 	andseq	r0, ip, r0
878087a0:	fc100010 	ldc2	0, cr0, [r0], {16}
878087a4:	001c0013 	andseq	r0, ip, r3, lsl r0
878087a8:	00000010 	andeq	r0, r0, r0, lsl r0
878087ac:	380e0000 	stmdacc	lr, {}	; <UNPREDICTABLE>
878087b0:	84104411 	ldrhi	r4, [r0], #-1041	; 0x411
878087b4:	44118410 	ldrmi	r8, [r1], #-1040	; 0x410
878087b8:	0000380e 	andeq	r3, r0, lr, lsl #16
878087bc:	00070000 	andeq	r0, r7, r0
878087c0:	44108c08 	ldrmi	r8, [r0], #-3080	; 0xc08
878087c4:	88084410 	stmdahi	r8, {r4, sl, lr}
878087c8:	0000f007 	andeq	pc, r0, r7
878087cc:	00000000 	andeq	r0, r0, r0
878087d0:	0c030000 	stceq	0, cr0, [r3], {-0}
878087d4:	00000c03 	andeq	r0, r0, r3, lsl #24
	...
878087e0:	06010100 	streq	r0, [r1], -r0, lsl #2
	...
878087ec:	80000000 	andhi	r0, r0, r0
878087f0:	20024001 	andcs	r4, r2, r1
878087f4:	08081004 	stmdaeq	r8, {r2, ip}
878087f8:	00000410 	andeq	r0, r0, r0, lsl r4
878087fc:	20022002 	andcs	r2, r2, r2
87808800:	20022002 	andcs	r2, r2, r2
87808804:	20022002 	andcs	r2, r2, r2
87808808:	00002002 	andeq	r2, r0, r2
8780880c:	04100000 	ldreq	r0, [r0], #-0
87808810:	10040808 	andne	r0, r4, r8, lsl #16
87808814:	40012002 	andmi	r2, r1, r2
87808818:	00008000 	andeq	r8, r0, r0
8780881c:	000e0000 	andeq	r0, lr, r0
87808820:	0c100012 	ldceq	0, cr0, [r0], {18}
87808824:	80106c10 	andshi	r6, r0, r0, lsl ip
87808828:	0000000f 	andeq	r0, r0, pc
8780882c:	180ce003 	stmdane	ip, {r0, r1, sp, lr, pc}
87808830:	2414e413 	ldrcs	lr, [r4], #-1043	; 0x413
87808834:	2808c417 	stmdacs	r8, {r0, r1, r2, r4, sl, lr, pc}
87808838:	0000d007 	andeq	sp, r0, r7
8780883c:	3c000400 	cfstrscc	mvf0, [r0], {-0}
87808840:	401cc403 	andsmi	ip, ip, r3, lsl #8
87808844:	e4004007 	str	r4, [r0], #-7
87808848:	04001c00 	streq	r1, [r0], #-3072	; 0xc00
8780884c:	fc1f0410 	ldc2	4, cr0, [pc], {16}
87808850:	04110411 	ldreq	r0, [r1], #-1041	; 0x411
87808854:	880e0411 	stmdahi	lr, {r0, r4, sl}
87808858:	00007000 	andeq	r7, r0, r0
8780885c:	180ce003 	stmdane	ip, {r0, r1, sp, lr, pc}
87808860:	04100410 	ldreq	r0, [r0], #-1040	; 0x410
87808864:	08100410 	ldmdaeq	r0, {r4, sl}
87808868:	0000101c 	andeq	r1, r0, ip, lsl r0
8780886c:	fc1f0410 	ldc2	4, cr0, [pc], {16}
87808870:	04100410 	ldreq	r0, [r0], #-1040	; 0x410
87808874:	08080410 	stmdaeq	r8, {r4, sl}
87808878:	0000f007 	andeq	pc, r0, r7
8780887c:	fc1f0410 	ldc2	4, cr0, [pc], {16}
87808880:	04110411 	ldreq	r0, [r1], #-1041	; 0x411
87808884:	0410c417 	ldreq	ip, [r0], #-1047	; 0x417
87808888:	00001808 	andeq	r1, r0, r8, lsl #16
8780888c:	fc1f0410 	ldc2	4, cr0, [pc], {16}
87808890:	00110411 	andseq	r0, r1, r1, lsl r4
87808894:	0010c017 	andseq	ip, r0, r7, lsl r0
87808898:	00000008 	andeq	r0, r0, r8
8780889c:	180ce003 	stmdane	ip, {r0, r1, sp, lr, pc}
878088a0:	04100410 	ldreq	r0, [r0], #-1040	; 0x410
878088a4:	781c4410 	ldmdavc	ip, {r4, sl, lr}
878088a8:	00004000 	andeq	r4, r0, r0
878088ac:	fc1f0410 	ldc2	4, cr0, [pc], {16}
878088b0:	80008410 	andhi	r8, r0, r0, lsl r4
878088b4:	84108000 	ldrhi	r8, [r0], #-0
878088b8:	0410fc1f 	ldreq	pc, [r0], #-3103	; 0xc1f
878088bc:	04100000 	ldreq	r0, [r0], #-0
878088c0:	fc1f0410 	ldc2	4, cr0, [pc], {16}
878088c4:	04100410 	ldreq	r0, [r0], #-1040	; 0x410
878088c8:	00000000 	andeq	r0, r0, r0
878088cc:	01000300 	mrseq	r0, LR_irq
878088d0:	01100110 	tsteq	r0, r0, lsl r1
878088d4:	0010fe1f 	andseq	pc, r0, pc, lsl lr	; <UNPREDICTABLE>
878088d8:	00000010 	andeq	r0, r0, r0, lsl r0
878088dc:	fc1f0410 	ldc2	4, cr0, [pc], {16}
878088e0:	80030411 	andhi	r0, r3, r1, lsl r4
878088e4:	1c186414 	cfldrsne	mvf6, [r8], {20}
878088e8:	00000410 	andeq	r0, r0, r0, lsl r4
878088ec:	fc1f0410 	ldc2	4, cr0, [pc], {16}
878088f0:	04000410 	streq	r0, [r0], #-1040	; 0x410
878088f4:	04000400 	streq	r0, [r0], #-1024	; 0x400
878088f8:	00000c00 	andeq	r0, r0, r0, lsl #24
878088fc:	fc1f0410 	ldc2	4, cr0, [pc], {16}
87808900:	fc00001f 	stc2	0, cr0, [r0], {31}
87808904:	fc1f001f 	ldc2	0, cr0, [pc], {31}
87808908:	00000410 	andeq	r0, r0, r0, lsl r4
8780890c:	fc1f0410 	ldc2	4, cr0, [pc], {16}
87808910:	0003040c 	andeq	r0, r3, ip, lsl #8
87808914:	1810e000 	ldmdane	r0, {sp, lr, pc}
87808918:	0010fc1f 	andseq	pc, r0, pc, lsl ip	; <UNPREDICTABLE>
8780891c:	0808f007 	stmdaeq	r8, {r0, r1, r2, ip, sp, lr, pc}
87808920:	04100410 	ldreq	r0, [r0], #-1040	; 0x410
87808924:	08080410 	stmdaeq	r8, {r4, sl}
87808928:	0000f007 	andeq	pc, r0, r7
8780892c:	fc1f0410 	ldc2	4, cr0, [pc], {16}
87808930:	80108410 	andshi	r8, r0, r0, lsl r4
87808934:	80108010 	andshi	r8, r0, r0, lsl r0
87808938:	0000000f 	andeq	r0, r0, pc
8780893c:	1808f007 	stmdane	r8, {r0, r1, r2, ip, sp, lr, pc}
87808940:	24102410 	ldrcs	r2, [r0], #-1040	; 0x410
87808944:	0a081c10 	beq	87a0f98c <__bss_end+0x1eb770>
87808948:	0000f207 	andeq	pc, r0, r7, lsl #4
8780894c:	fc1f0410 	ldc2	4, cr0, [pc], {16}
87808950:	00110411 	andseq	r0, r1, r1, lsl r4
87808954:	3011c011 	andscc	ip, r1, r1, lsl r0
87808958:	04000c0e 	streq	r0, [r0], #-3086	; 0xc0e
8780895c:	1c0e0000 	stcne	0, cr0, [lr], {-0}
87808960:	84100411 	ldrhi	r0, [r0], #-1041	; 0x411
87808964:	44108410 	ldrmi	r8, [r0], #-1040	; 0x410
87808968:	0000381c 	andeq	r3, r0, ip, lsl r8
8780896c:	00100018 	andseq	r0, r0, r8, lsl r0
87808970:	fc1f0410 	ldc2	4, cr0, [pc], {16}
87808974:	00100410 	andseq	r0, r0, r0, lsl r4
87808978:	00000018 	andeq	r0, r0, r8, lsl r0
8780897c:	f81f0010 			; <UNDEFINED> instruction: 0xf81f0010
87808980:	04000410 	streq	r0, [r0], #-1040	; 0x410
87808984:	04100400 	ldreq	r0, [r0], #-1024	; 0x400
87808988:	0010f81f 	andseq	pc, r0, pc, lsl r8	; <UNPREDICTABLE>
8780898c:	001e0010 	andseq	r0, lr, r0, lsl r0
87808990:	1c00e011 	stcne	0, cr14, [r0], {17}
87808994:	80137000 	andshi	r7, r3, r0
87808998:	0010001c 	andseq	r0, r0, ip, lsl r0
8780899c:	3c10c01f 	ldccc	0, cr12, [r0], {31}
878089a0:	001fe000 	andseq	lr, pc, r0
878089a4:	3c10e000 	ldccc	0, cr14, [r0], {-0}
878089a8:	0000c01f 	andeq	ip, r0, pc, lsl r0
878089ac:	0c180410 	cfldrseq	mvf0, [r8], {16}
878089b0:	c0013416 	andgt	r3, r1, r6, lsl r4
878089b4:	3416c001 	ldrcc	ip, [r6], #-1
878089b8:	04100c18 	ldreq	r0, [r0], #-3096	; 0xc18
878089bc:	001c0010 	andseq	r0, ip, r0, lsl r0
878089c0:	fc000413 	stc2	4, cr0, [r0], {19}
878089c4:	001c0413 	andseq	r0, ip, r3, lsl r4
878089c8:	00000010 	andeq	r0, r0, r0, lsl r0
878089cc:	1c100408 	cfldrsne	mvf0, [r0], {8}
878089d0:	84106410 	ldrhi	r6, [r0], #-1040	; 0x410
878089d4:	041c0413 	ldreq	r0, [ip], #-1043	; 0x413
878089d8:	00001810 	andeq	r1, r0, r0, lsl r8
878089dc:	00000000 	andeq	r0, r0, r0
878089e0:	fe7f0000 	cdp2	0, 7, cr0, cr15, cr0, {0}
878089e4:	02400240 	subeq	r0, r0, #64, 4
878089e8:	00000240 	andeq	r0, r0, r0, asr #4
878089ec:	00300000 	eorseq	r0, r0, r0
878089f0:	8003000c 	andhi	r0, r3, ip
878089f4:	1c006000 	stcne	0, cr6, [r0], {-0}
878089f8:	00000300 	andeq	r0, r0, r0, lsl #6
878089fc:	02400000 	subeq	r0, r0, #0
87808a00:	02400240 	subeq	r0, r0, #64, 4
87808a04:	0000fe7f 	andeq	pc, r0, pc, ror lr	; <UNPREDICTABLE>
	...
87808a10:	00400020 	subeq	r0, r0, r0, lsr #32
87808a14:	00400040 	subeq	r0, r0, r0, asr #32
87808a18:	00000020 	andeq	r0, r0, r0, lsr #32
87808a1c:	01000100 	mrseq	r0, (UNDEF: 16)
87808a20:	01000100 	mrseq	r0, (UNDEF: 16)
87808a24:	01000100 	mrseq	r0, (UNDEF: 16)
87808a28:	01000100 	mrseq	r0, (UNDEF: 16)
87808a2c:	00400000 	subeq	r0, r0, r0
87808a30:	00200040 	eoreq	r0, r0, r0, asr #32
	...
87808a3c:	98000000 	stmdals	r0, {}	; <UNPREDICTABLE>
87808a40:	44012401 	strmi	r2, [r1], #-1025	; 0x401
87808a44:	44014401 	strmi	r4, [r1], #-1025	; 0x401
87808a48:	0400fc00 	streq	pc, [r0], #-3072	; 0xc00
87808a4c:	fc1f0010 	ldc2	0, cr0, [pc], {16}
87808a50:	04018800 	streq	r8, [r1], #-2048	; 0x800
87808a54:	88000401 	stmdahi	r0, {r0, sl}
87808a58:	00007000 	andeq	r7, r0, r0
87808a5c:	70000000 	andvc	r0, r0, r0
87808a60:	04018800 	streq	r8, [r1], #-2048	; 0x800
87808a64:	04010401 	streq	r0, [r1], #-1025	; 0x401
87808a68:	00008800 	andeq	r8, r0, r0, lsl #16
87808a6c:	70000000 	andvc	r0, r0, r0
87808a70:	04018800 	streq	r8, [r1], #-2048	; 0x800
87808a74:	08110401 	ldmdaeq	r1, {r0, sl}
87808a78:	0400fc1f 	streq	pc, [r0], #-3103	; 0xc1f
87808a7c:	f8000000 			; <UNDEFINED> instruction: 0xf8000000
87808a80:	44014401 	strmi	r4, [r1], #-1025	; 0x401
87808a84:	44014401 	strmi	r4, [r1], #-1025	; 0x401
87808a88:	0000c800 	andeq	ip, r0, r0, lsl #16
87808a8c:	04010000 	streq	r0, [r1], #-0
87808a90:	fc0f0401 	stc2	4, cr0, [pc], {1}
87808a94:	04110411 	ldreq	r0, [r1], #-1041	; 0x411
87808a98:	00180011 	andseq	r0, r8, r1, lsl r0
87808a9c:	d6000000 	strle	r0, [r0], -r0
87808aa0:	29012901 	stmdbcs	r1, {r0, r8, fp, sp}
87808aa4:	c9012901 	stmdbgt	r1, {r0, r8, fp, sp}
87808aa8:	00000601 	andeq	r0, r0, r1, lsl #12
87808aac:	fc1f0410 	ldc2	4, cr0, [pc], {16}
87808ab0:	00018400 	andeq	r8, r1, r0, lsl #8
87808ab4:	04010001 	streq	r0, [r1], #-1
87808ab8:	0400fc00 	streq	pc, [r0], #-3072	; 0xc00
87808abc:	04010000 	streq	r0, [r1], #-0
87808ac0:	fc190419 	ldc2	4, cr0, [r9], {25}
87808ac4:	04000400 	streq	r0, [r0], #-1024	; 0x400
87808ac8:	00000000 	andeq	r0, r0, r0
87808acc:	03000000 	movweq	r0, #0
87808ad0:	01010100 	mrseq	r0, (UNDEF: 17)
87808ad4:	fe190119 	mrc2	1, 0, r0, cr9, cr9, {0}
87808ad8:	00000000 	andeq	r0, r0, r0
87808adc:	fc1f0410 	ldc2	4, cr0, [pc], {16}
87808ae0:	40002400 	andmi	r2, r0, r0, lsl #8
87808ae4:	0c01b401 	cfstrseq	mvf11, [r1], {1}
87808ae8:	00000401 	andeq	r0, r0, r1, lsl #8
87808aec:	04100000 	ldreq	r0, [r0], #-0
87808af0:	fc1f0410 	ldc2	4, cr0, [pc], {16}
87808af4:	04000400 	streq	r0, [r0], #-1024	; 0x400
87808af8:	00000000 	andeq	r0, r0, r0
87808afc:	fc010401 	stc2	4, cr0, [r1], {1}
87808b00:	00010401 	andeq	r0, r1, r1, lsl #8
87808b04:	0401fc01 	streq	pc, [r1], #-3073	; 0xc01
87808b08:	fc000001 	stc2	0, cr0, [r0], {1}
87808b0c:	fc010401 	stc2	4, cr0, [r1], {1}
87808b10:	00018400 	andeq	r8, r1, r0, lsl #8
87808b14:	04010001 	streq	r0, [r1], #-1
87808b18:	0400fc00 	streq	pc, [r0], #-3072	; 0xc00
87808b1c:	f8000000 			; <UNDEFINED> instruction: 0xf8000000
87808b20:	04010401 	streq	r0, [r1], #-1025	; 0x401
87808b24:	04010401 	streq	r0, [r1], #-1025	; 0x401
87808b28:	0000f800 	andeq	pc, r0, r0, lsl #16
87808b2c:	ff010101 			; <UNDEFINED> instruction: 0xff010101
87808b30:	04018500 	streq	r8, [r1], #-1280	; 0x500
87808b34:	88000401 	stmdahi	r0, {r0, sl}
87808b38:	00007000 	andeq	r7, r0, r0
87808b3c:	70000000 	andvc	r0, r0, r0
87808b40:	04018800 	streq	r8, [r1], #-2048	; 0x800
87808b44:	05010401 	streq	r0, [r1, #-1025]	; 0x401
87808b48:	0100ff01 	tsteq	r0, r1, lsl #30
87808b4c:	04010401 	streq	r0, [r1], #-1025	; 0x401
87808b50:	8400fc01 	strhi	pc, [r0], #-3073	; 0xc01
87808b54:	00010401 	andeq	r0, r1, r1, lsl #8
87808b58:	00008001 	andeq	r8, r0, r1
87808b5c:	cc000000 	stcgt	0, cr0, [r0], {-0}
87808b60:	24012401 	strcs	r2, [r1], #-1025	; 0x401
87808b64:	24012401 	strcs	r2, [r1], #-1025	; 0x401
87808b68:	00009801 	andeq	r9, r0, r1, lsl #16
87808b6c:	00010000 	andeq	r0, r1, r0
87808b70:	f8070001 			; <UNDEFINED> instruction: 0xf8070001
87808b74:	04010401 	streq	r0, [r1], #-1025	; 0x401
87808b78:	00000000 	andeq	r0, r0, r0
87808b7c:	f8010001 			; <UNDEFINED> instruction: 0xf8010001
87808b80:	04000400 	streq	r0, [r0], #-1024	; 0x400
87808b84:	08010400 	stmdaeq	r1, {sl}
87808b88:	0400fc01 	streq	pc, [r0], #-3073	; 0xc01
87808b8c:	80010001 	andhi	r0, r1, r1
87808b90:	0c007001 	stceq	0, cr7, [r0], {1}
87808b94:	60011000 	andvs	r1, r1, r0
87808b98:	00018001 	andeq	r8, r1, r1
87808b9c:	0c01f001 	stceq	0, cr15, [r1], {1}
87808ba0:	c0013000 	andgt	r3, r1, r0
87808ba4:	0c013000 	stceq	0, cr3, [r1], {-0}
87808ba8:	0001f001 	andeq	pc, r1, r1
87808bac:	04010000 	streq	r0, [r1], #-0
87808bb0:	74008c01 	strvc	r8, [r0], #-3073	; 0xc01
87808bb4:	8c017001 	stchi	0, cr7, [r1], {1}
87808bb8:	00000401 	andeq	r0, r0, r1, lsl #8
87808bbc:	81010101 	tsthi	r1, r1, lsl #2
87808bc0:	0e007101 	adfeqs	f7, f0, f1
87808bc4:	60011800 	andvs	r1, r1, r0, lsl #16
87808bc8:	00018001 	andeq	r8, r1, r1
87808bcc:	84010000 	strhi	r0, [r1], #-0
87808bd0:	34010c01 	strcc	r0, [r1], #-3073	; 0xc01
87808bd4:	84014401 	strhi	r4, [r1], #-1025	; 0x401
87808bd8:	00000c01 	andeq	r0, r0, r1, lsl #24
	...
87808be4:	fc3e0001 	ldc2	0, cr0, [lr], #-4
87808be8:	02400240 	subeq	r0, r0, #64, 4
	...
87808bf4:	0000ffff 	strdeq	pc, [r0], -pc	; <UNPREDICTABLE>
87808bf8:	00000000 	andeq	r0, r0, r0
87808bfc:	02400000 	subeq	r0, r0, #0
87808c00:	fc3e0240 	ldc2	2, cr0, [lr], #-256	; 0xffffff00
87808c04:	00000001 	andeq	r0, r0, r1
87808c08:	00000000 	andeq	r0, r0, r0
87808c0c:	00600000 	rsbeq	r0, r0, r0
87808c10:	00800080 	addeq	r0, r0, r0, lsl #1
87808c14:	00400040 	subeq	r0, r0, r0, asr #32
87808c18:	00200020 	eoreq	r0, r0, r0, lsr #32

87808c1c <asc2_3216>:
	...
87808cb4:	c000f007 	andgt	pc, r0, r7
87808cb8:	e0e1ff07 	rsc	pc, r1, r7, lsl #30
87808cbc:	e001f007 	and	pc, r1, r7
87808cc0:	c0000000 	andgt	r0, r0, r0
	...
87808d24:	00002000 	andeq	r2, r0, r0
87808d28:	0000c001 	andeq	ip, r0, r1
87808d2c:	00008007 	andeq	r8, r0, r7
87808d30:	0000001f 	andeq	r0, r0, pc, lsl r0
87808d34:	0000001e 	andeq	r0, r0, lr, lsl r0
87808d38:	0000201c 	andeq	r2, r0, ip, lsl r0
87808d3c:	0000c001 	andeq	ip, r0, r1
87808d40:	00008007 	andeq	r8, r0, r7
87808d44:	0000001f 	andeq	r0, r0, pc, lsl r0
87808d48:	0000001e 	andeq	r0, r0, lr, lsl r0
87808d4c:	0000001c 	andeq	r0, r0, ip, lsl r0
	...
87808da0:	000c1800 	andeq	r1, ip, r0, lsl #16
87808da4:	000c1800 	andeq	r1, ip, r0, lsl #16
87808da8:	e00f1800 	and	r1, pc, r0, lsl #16
87808dac:	00fc1f00 	rscseq	r1, ip, r0, lsl #30
87808db0:	000cf803 	andeq	pc, ip, r3, lsl #16
87808db4:	000c1800 	andeq	r1, ip, r0, lsl #16
87808db8:	000c1800 	andeq	r1, ip, r0, lsl #16
87808dbc:	000c1800 	andeq	r1, ip, r0, lsl #16
87808dc0:	000c1800 	andeq	r1, ip, r0, lsl #16
87808dc4:	e00f1800 	and	r1, pc, r0, lsl #16
87808dc8:	00fc1f00 	rscseq	r1, ip, r0, lsl #30
87808dcc:	000cf803 	andeq	pc, ip, r3, lsl #16
87808dd0:	000c1800 	andeq	r1, ip, r0, lsl #16
87808dd4:	000c1800 	andeq	r1, ip, r0, lsl #16
	...
87808e24:	80070000 	andhi	r0, r7, r0
87808e28:	c0077800 	andgt	r7, r7, r0, lsl #16
87808e2c:	4006fc00 	andmi	pc, r6, r0, lsl #24
87808e30:	20000e01 	andcs	r0, r0, r1, lsl #28
87808e34:	20000703 	andcs	r0, r0, r3, lsl #14
87808e38:	20800302 	addcs	r0, r0, r2, lsl #6
87808e3c:	fcffff0f 	ldc2l	15, cr15, [pc], #60	; 87808e80 <asc2_3216+0x264>
87808e40:	20c00102 	sbccs	r0, r0, r2, lsl #2
87808e44:	60e00002 	rscvs	r0, r0, r2
87808e48:	40703001 	rsbsmi	r3, r0, r1
87808e4c:	803ff001 	eorshi	pc, pc, r1
87808e50:	001ff000 	andseq	pc, pc, r0
	...
87808e9c:	0000fe00 	andeq	pc, r0, r0, lsl #28
87808ea0:	0000ff01 	andeq	pc, r0, r1, lsl #30
87808ea4:	00800103 	addeq	r0, r0, r3, lsl #2
87808ea8:	60800002 	addvs	r0, r0, r2
87808eac:	c0810103 	addgt	r0, r1, r3, lsl #2
87808eb0:	0007ff01 	andeq	pc, r7, r1, lsl #30
87808eb4:	0018fe00 	andseq	pc, r8, r0, lsl #28
87808eb8:	00e00000 	rsceq	r0, r0, r0
87808ebc:	00bf0300 	adcseq	r0, pc, r0, lsl #6
87808ec0:	c0ff0c00 	rscsgt	r0, pc, r0, lsl #24
87808ec4:	60807100 	addvs	r7, r0, r0, lsl #2
87808ec8:	2000c101 	andcs	ip, r0, r1, lsl #2
87808ecc:	60800103 	addvs	r0, r0, r3, lsl #2
87808ed0:	c0ff0000 	rscsgt	r0, pc, r0
87808ed4:	003f0000 	eorseq	r0, pc, r0
	...
87808f1c:	001f0000 	andseq	r0, pc, r0
87808f20:	c07f0000 	rsbsgt	r0, pc, r0
87808f24:	c0c0fc00 	sbcgt	pc, r0, r0, lsl #24
87808f28:	6080ff01 	addvs	pc, r0, r1, lsl #30
87808f2c:	20e00303 	rsccs	r0, r0, r3, lsl #6
87808f30:	20780202 	rsbscs	r0, r8, r2, lsl #4
87808f34:	201e0602 	andscs	r0, lr, r2, lsl #12
87808f38:	4007fc03 	andmi	pc, r7, r3, lsl #24
87808f3c:	8003f001 	andhi	pc, r3, r1
87808f40:	c0030100 	andgt	r0, r3, r0, lsl #2
87808f44:	601c0100 	andsvs	r0, ip, r0, lsl #2
87808f48:	20e00100 	rsccs	r0, r0, r0, lsl #2
87808f4c:	20000100 	andcs	r0, r0, r0, lsl #2
87808f50:	40000100 	andmi	r0, r0, r0, lsl #2
87808f54:	80010000 	andhi	r0, r1, r0
	...
87808fa0:	00002000 	andeq	r2, r0, r0
87808fa4:	0000601c 	andeq	r6, r0, ip, lsl r0
87808fa8:	0000401c 	andeq	r4, r0, ip, lsl r0
87808fac:	0000801f 	andeq	r8, r0, pc, lsl r0
87808fb0:	0000000f 	andeq	r0, r0, pc
	...
87809038:	00f80700 	rscseq	r0, r8, r0, lsl #14
8780903c:	00ff3f00 	rscseq	r3, pc, r0, lsl #30
87809040:	c0077800 	andgt	r7, r7, r0, lsl #16
87809044:	e000c001 	and	ip, r0, r1
87809048:	30000003 	andcc	r0, r0, r3
8780904c:	08000004 	stmdaeq	r0, {r2}
87809050:	04000008 	streq	r0, [r0], #-8
87809054:	02000010 	andeq	r0, r0, #16
	...
878090a0:	02000010 	andeq	r0, r0, #16
878090a4:	04000008 	streq	r0, [r0], #-8
878090a8:	08000004 	stmdaeq	r0, {r2}
878090ac:	30000003 	andcc	r0, r0, r3
878090b0:	e000c001 	and	ip, r0, r1
878090b4:	c0077800 	andgt	r7, r7, r0, lsl #16
878090b8:	00ff3f00 	rscseq	r3, pc, r0, lsl #30
878090bc:	00f80700 	rscseq	r0, r8, r0, lsl #14
	...
87809124:	00180c00 	andseq	r0, r8, r0, lsl #24
87809128:	00380e00 	eorseq	r0, r8, r0, lsl #28
8780912c:	00380e00 	eorseq	r0, r8, r0, lsl #28
87809130:	00300600 	eorseq	r0, r0, r0, lsl #12
87809134:	00600300 	rsbeq	r0, r0, r0, lsl #6
87809138:	80436100 	subhi	r6, r3, r0, lsl #2
8780913c:	80ffff00 	rscshi	pc, pc, r0, lsl #30
87809140:	00436100 	subeq	r6, r3, r0, lsl #2
87809144:	00600300 	rsbeq	r0, r0, r0, lsl #6
87809148:	00300600 	eorseq	r0, r0, r0, lsl #12
8780914c:	00380e00 	eorseq	r0, r8, r0, lsl #28
87809150:	00380e00 	eorseq	r0, r8, r0, lsl #28
87809154:	00180c00 	andseq	r0, r8, r0, lsl #24
	...
878091a4:	00800000 	addeq	r0, r0, r0
878091a8:	00800000 	addeq	r0, r0, r0
878091ac:	00800000 	addeq	r0, r0, r0
878091b0:	00800000 	addeq	r0, r0, r0
878091b4:	00800000 	addeq	r0, r0, r0
878091b8:	00800000 	addeq	r0, r0, r0
878091bc:	00ff7f00 	rscseq	r7, pc, r0, lsl #30
878091c0:	00800000 	addeq	r0, r0, r0
878091c4:	00800000 	addeq	r0, r0, r0
878091c8:	00800000 	addeq	r0, r0, r0
878091cc:	00800000 	addeq	r0, r0, r0
878091d0:	00800000 	addeq	r0, r0, r0
878091d4:	00800000 	addeq	r0, r0, r0
	...
87809220:	01000000 	mrseq	r0, (UNDEF: 0)
87809224:	e3000000 	movw	r0, #0
87809228:	e2000000 	and	r0, r0, #0
8780922c:	fc000000 	stc2	0, cr0, [r0], {-0}
87809230:	78000000 	stmdavc	r0, {}	; <UNPREDICTABLE>
	...
878092a0:	00800000 	addeq	r0, r0, r0
878092a4:	00800000 	addeq	r0, r0, r0
878092a8:	00800000 	addeq	r0, r0, r0
878092ac:	00800000 	addeq	r0, r0, r0
878092b0:	00800000 	addeq	r0, r0, r0
878092b4:	00800000 	addeq	r0, r0, r0
878092b8:	00800000 	addeq	r0, r0, r0
878092bc:	00800000 	addeq	r0, r0, r0
878092c0:	00800000 	addeq	r0, r0, r0
878092c4:	00800000 	addeq	r0, r0, r0
878092c8:	00800000 	addeq	r0, r0, r0
878092cc:	00800000 	addeq	r0, r0, r0
878092d0:	00800000 	addeq	r0, r0, r0
878092d4:	00800000 	addeq	r0, r0, r0
	...
87809324:	c0000000 	andgt	r0, r0, r0
87809328:	e0010000 	and	r0, r1, r0
8780932c:	e0010000 	and	r0, r1, r0
87809330:	c0000000 	andgt	r0, r0, r0
	...
878093a0:	0c000000 	stceq	0, cr0, [r0], {-0}
878093a4:	38000000 	stmdacc	r0, {}	; <UNPREDICTABLE>
878093a8:	e0000000 	and	r0, r0, r0
878093ac:	80030000 	andhi	r0, r3, r0
878093b0:	000e0000 	andeq	r0, lr, r0
878093b4:	00380000 	eorseq	r0, r8, r0
878093b8:	00e00000 	rsceq	r0, r0, r0
878093bc:	00800300 	addeq	r0, r0, r0, lsl #6
878093c0:	00000e00 	andeq	r0, r0, r0, lsl #28
878093c4:	00003800 	andeq	r3, r0, r0, lsl #16
878093c8:	0000e000 	andeq	lr, r0, r0
878093cc:	00008003 	andeq	r8, r0, r3
878093d0:	0000000e 	andeq	r0, r0, lr
878093d4:	00000018 	andeq	r0, r0, r8, lsl r0
	...
87809424:	00f80f00 	rscseq	r0, r8, r0, lsl #30
87809428:	00ff7f00 	rscseq	r7, pc, r0, lsl #30
8780942c:	8007f000 	andhi	pc, r7, r0
87809430:	c0008001 	andgt	r8, r0, r1
87809434:	60000003 	andvs	r0, r0, r3
87809438:	20000002 	andcs	r0, r0, r2
8780943c:	20000002 	andcs	r0, r0, r2
87809440:	20000002 	andcs	r0, r0, r2
87809444:	60000003 	andvs	r0, r0, r3
87809448:	c0008001 	andgt	r8, r0, r1
8780944c:	8003e000 	andhi	lr, r3, r0
87809450:	00ff7f00 	rscseq	r7, pc, r0, lsl #30
87809454:	00f80f00 	rscseq	r0, r8, r0, lsl #30
	...
878094a8:	20008000 	andcs	r8, r0, r0
878094ac:	20008000 	andcs	r8, r0, r0
878094b0:	20008000 	andcs	r8, r0, r0
878094b4:	60008000 	andvs	r8, r0, r0
878094b8:	e0ffff01 	rscs	pc, pc, r1, lsl #30
878094bc:	e0ffff03 	rscs	pc, pc, r3, lsl #30
878094c0:	60000000 	andvs	r0, r0, r0
878094c4:	20000000 	andcs	r0, r0, r0
878094c8:	20000000 	andcs	r0, r0, r0
878094cc:	20000000 	andcs	r0, r0, r0
	...
87809524:	e0007800 	and	r7, r0, r0, lsl #16
87809528:	60019800 	andvs	r9, r1, r0, lsl #16
8780952c:	60020001 	andvs	r0, r2, r1
87809530:	60040002 	andvs	r0, r4, r2
87809534:	60080002 	andvs	r0, r8, r2
87809538:	60100002 	andsvs	r0, r0, r2
8780953c:	60200002 	eorvs	r0, r0, r2
87809540:	60400002 	subvs	r0, r0, r2
87809544:	60800003 	addvs	r0, r0, r3
87809548:	60008301 	andvs	r8, r0, r1, lsl #6
8780954c:	e000fe01 	and	pc, r0, r1, lsl #28
87809550:	80077c00 	andhi	r7, r7, r0, lsl #24
	...
878095a4:	8007f000 	andhi	pc, r7, r0
878095a8:	c007f001 	andgt	pc, r7, r1
878095ac:	40000001 	andmi	r0, r0, r1
878095b0:	20000002 	andcs	r0, r0, r2
878095b4:	20000102 	andcs	r0, r0, r2, lsl #2
878095b8:	20000102 	andcs	r0, r0, r2, lsl #2
878095bc:	20000102 	andcs	r0, r0, r2, lsl #2
878095c0:	20800303 	addcs	r0, r0, r3, lsl #6
878095c4:	40808601 	addmi	r8, r0, r1, lsl #12
878095c8:	c0c0fc01 	sbcgt	pc, r0, r1, lsl #24
878095cc:	807f7800 	rsbshi	r7, pc, r0, lsl #16
878095d0:	001e0000 	andseq	r0, lr, r0
	...
87809620:	00080000 	andeq	r0, r8, r0
87809624:	00380000 	eorseq	r0, r8, r0
87809628:	00480000 	subeq	r0, r8, r0
8780962c:	00880100 	addeq	r0, r8, r0, lsl #2
87809630:	00080600 	andeq	r0, r8, r0, lsl #12
87809634:	10080c00 	andne	r0, r8, r0, lsl #24
87809638:	10083000 	andne	r3, r8, r0
8780963c:	10084000 	andne	r4, r8, r0
87809640:	f0ffff01 			; <UNDEFINED> instruction: 0xf0ffff01
87809644:	f0ffff03 			; <UNDEFINED> instruction: 0xf0ffff03
87809648:	f0ffff03 			; <UNDEFINED> instruction: 0xf0ffff03
8780964c:	10080000 	andne	r0, r8, r0
87809650:	10080000 	andne	r0, r8, r0
87809654:	10080000 	andne	r0, r8, r0
	...
878096a4:	80070000 	andhi	r0, r7, r0
878096a8:	40861f00 	addmi	r1, r6, r0, lsl #30
878096ac:	2000e103 	andcs	lr, r0, r3, lsl #2
878096b0:	20000203 	andcs	r0, r0, r3, lsl #4
878096b4:	20000403 	andcs	r0, r0, r3, lsl #8
878096b8:	20000403 	andcs	r0, r0, r3, lsl #8
878096bc:	20000403 	andcs	r0, r0, r3, lsl #8
878096c0:	20000403 	andcs	r0, r0, r3, lsl #8
878096c4:	40000603 	andmi	r0, r0, r3, lsl #12
878096c8:	c0010303 	andgt	r0, r1, r3, lsl #6
878096cc:	80ff0103 	rscshi	r0, pc, r3, lsl #2
878096d0:	007e0003 	rsbseq	r0, lr, r3
	...
87809724:	00fc0700 	rscseq	r0, ip, r0, lsl #14
87809728:	00ff3f00 	rscseq	r3, pc, r0, lsl #30
8780972c:	80c37000 	sbchi	r7, r3, r0
87809730:	c0808100 	addgt	r8, r0, r0, lsl #2
87809734:	60000101 	andvs	r0, r0, r1, lsl #2
87809738:	20000203 	andcs	r0, r0, r3, lsl #4
8780973c:	20000202 	andcs	r0, r0, r2, lsl #4
87809740:	20000202 	andcs	r0, r0, r2, lsl #4
87809744:	20000202 	andcs	r0, r0, r2, lsl #4
87809748:	40000302 	andmi	r0, r0, r2, lsl #6
8780974c:	c080c101 	addgt	ip, r0, r1, lsl #2
87809750:	80ffc000 	rscshi	ip, pc, r0
87809754:	007e0000 	rsbseq	r0, lr, r0
	...
878097a4:	0000f000 	andeq	pc, r0, r0
878097a8:	0000c003 	andeq	ip, r0, r3
878097ac:	00008003 	andeq	r8, r0, r3
878097b0:	00000003 	andeq	r0, r0, r3
878097b4:	e0070003 	and	r0, r7, r3
878097b8:	e03f0003 	eors	r0, pc, r3
878097bc:	00c00103 	sbceq	r0, r0, r3, lsl #2
878097c0:	00000603 	andeq	r0, r0, r3, lsl #12
878097c4:	00001803 	andeq	r1, r0, r3, lsl #16
878097c8:	00006003 	andeq	r6, r0, r3
878097cc:	00008003 	andeq	r8, r0, r3
878097d0:	00000003 	andeq	r0, r0, r3
	...
87809820:	001f0000 	andseq	r0, pc, r0
87809824:	803f7800 	eorshi	r7, pc, r0, lsl #16
87809828:	c060fc00 	rsbgt	pc, r0, r0, lsl #24
8780982c:	40c08e01 	sbcmi	r8, r0, r1, lsl #28
87809830:	20800703 	addcs	r0, r0, r3, lsl #14
87809834:	20000302 	andcs	r0, r0, r2, lsl #6
87809838:	20800102 	addcs	r0, r0, r2, lsl #2
8780983c:	20800102 	addcs	r0, r0, r2, lsl #2
87809840:	20c00102 	sbccs	r0, r0, r2, lsl #2
87809844:	40e00103 	rscmi	r0, r0, r3, lsl #2
87809848:	c0708601 	rsbsgt	r8, r0, r1, lsl #12
8780984c:	803ffc00 	eorshi	pc, pc, r0, lsl #24
87809850:	001f7800 	andseq	r7, pc, r0, lsl #16
	...
878098a0:	00003f00 	andeq	r3, r0, r0, lsl #30
878098a4:	c081ff00 	addgt	pc, r1, r0, lsl #30
878098a8:	c0c1c001 	sbcgt	ip, r1, r1
878098ac:	20600001 	rsbcs	r0, r0, r1
878098b0:	20200002 	eorcs	r0, r0, r2
878098b4:	20200002 	eorcs	r0, r0, r2
878098b8:	20200002 	eorcs	r0, r0, r2
878098bc:	60200002 	eorvs	r0, r0, r2
878098c0:	c0400002 	subgt	r0, r0, r2
878098c4:	80c10001 	sbchi	r0, r1, r1
878098c8:	008fc100 	addeq	ip, pc, r0, lsl #2
878098cc:	00fe7f00 	rscseq	r7, lr, r0, lsl #30
878098d0:	00f01f00 	rscseq	r1, r0, r0, lsl #30
	...
87809934:	c0000300 	andgt	r0, r0, r0, lsl #6
87809938:	e0810700 	add	r0, r1, r0, lsl #14
8780993c:	e0810700 	add	r0, r1, r0, lsl #14
87809940:	c0000300 	andgt	r0, r0, r0, lsl #6
	...
878099b4:	66000600 	strvs	r0, [r0], -r0, lsl #12
878099b8:	78000600 	stmdavc	r0, {r9, sl}
	...
87809a24:	00800000 	addeq	r0, r0, r0
87809a28:	00c00100 	sbceq	r0, r0, r0, lsl #2
87809a2c:	00600300 	rsbeq	r0, r0, r0, lsl #6
87809a30:	00300600 	eorseq	r0, r0, r0, lsl #12
87809a34:	00180c00 	andseq	r0, r8, r0, lsl #24
87809a38:	000c1800 	andeq	r1, ip, r0, lsl #16
87809a3c:	00063000 	andeq	r3, r6, r0
87809a40:	00036000 	andeq	r6, r3, r0
87809a44:	8001c000 	andhi	ip, r1, r0
87809a48:	40000001 	andmi	r0, r0, r1
87809a4c:	20000002 	andcs	r0, r0, r2
87809a50:	10000004 	andne	r0, r0, r4
	...
87809aa0:	00100400 	andseq	r0, r0, r0, lsl #8
87809aa4:	00100400 	andseq	r0, r0, r0, lsl #8
87809aa8:	00100400 	andseq	r0, r0, r0, lsl #8
87809aac:	00100400 	andseq	r0, r0, r0, lsl #8
87809ab0:	00100400 	andseq	r0, r0, r0, lsl #8
87809ab4:	00100400 	andseq	r0, r0, r0, lsl #8
87809ab8:	00100400 	andseq	r0, r0, r0, lsl #8
87809abc:	00100400 	andseq	r0, r0, r0, lsl #8
87809ac0:	00100400 	andseq	r0, r0, r0, lsl #8
87809ac4:	00100400 	andseq	r0, r0, r0, lsl #8
87809ac8:	00100400 	andseq	r0, r0, r0, lsl #8
87809acc:	00100400 	andseq	r0, r0, r0, lsl #8
87809ad0:	00100400 	andseq	r0, r0, r0, lsl #8
87809ad4:	00100400 	andseq	r0, r0, r0, lsl #8
	...
87809b24:	10000004 	andne	r0, r0, r4
87809b28:	20000002 	andcs	r0, r0, r2
87809b2c:	40000001 	andmi	r0, r0, r1
87809b30:	8001c000 	andhi	ip, r1, r0
87809b34:	00036000 	andeq	r6, r3, r0
87809b38:	00063000 	andeq	r3, r6, r0
87809b3c:	000c1800 	andeq	r1, ip, r0, lsl #16
87809b40:	00180c00 	andseq	r0, r8, r0, lsl #24
87809b44:	00300600 	eorseq	r0, r0, r0, lsl #12
87809b48:	00600300 	rsbeq	r0, r0, r0, lsl #6
87809b4c:	00c00100 	sbceq	r0, r0, r0, lsl #2
87809b50:	00800000 	addeq	r0, r0, r0
	...
87809ba4:	00007800 	andeq	r7, r0, r0, lsl #16
87809ba8:	0000f801 	andeq	pc, r0, r1, lsl #16
87809bac:	00003802 	andeq	r3, r0, r2, lsl #16
87809bb0:	00000002 	andeq	r0, r0, r2
87809bb4:	c0000004 	andgt	r0, r0, r4
87809bb8:	e0790004 	rsbs	r0, r9, r4
87809bbc:	e0810004 	add	r0, r1, r4
87809bc0:	c0000104 	andgt	r0, r0, r4, lsl #2
87809bc4:	00000304 	andeq	r0, r0, r4, lsl #6
87809bc8:	00000202 	andeq	r0, r0, r2, lsl #4
87809bcc:	00000603 	andeq	r0, r0, r3, lsl #12
87809bd0:	0000fc01 	andeq	pc, r0, r1, lsl #24
87809bd4:	0000f800 	andeq	pc, r0, r0, lsl #16
	...
87809c20:	00f80f00 	rscseq	r0, r8, r0, lsl #30
87809c24:	00fe3f00 	rscseq	r3, lr, r0, lsl #30
87809c28:	80077000 	andhi	r7, r7, r0
87809c2c:	c000c000 	andgt	ip, r0, r0
87809c30:	40f80101 	rscsmi	r0, r8, r1, lsl #2
87809c34:	20fc0703 	rscscs	r0, ip, r3, lsl #14
87809c38:	20041e02 	andcs	r1, r4, r2, lsl #28
87809c3c:	20083002 	andcs	r3, r8, r2
87809c40:	20302002 	eorscs	r2, r0, r2
87809c44:	20fc3f02 	rscscs	r3, ip, r2, lsl #30
87809c48:	40043f01 	andmi	r3, r4, r1, lsl #30
87809c4c:	c00c8001 	andgt	r8, ip, r1
87809c50:	8031e000 	eorshi	lr, r1, r0
87809c54:	00c21f00 	sbceq	r1, r2, r0, lsl #30
	...
87809c9c:	20000000 	andcs	r0, r0, r0
87809ca0:	60000000 	andvs	r0, r0, r0
87809ca4:	e0030000 	and	r0, r3, r0
87809ca8:	203e0000 	eorscs	r0, lr, r0
87809cac:	20e00300 	rsccs	r0, r0, r0, lsl #6
87809cb0:	00203e00 	eoreq	r3, r0, r0, lsl #28
87809cb4:	0020e003 	eoreq	lr, r0, r3
87809cb8:	00208003 	eoreq	r8, r0, r3
87809cbc:	0020fc07 	eoreq	pc, r0, r7, lsl #24
87809cc0:	00e03f00 	rsceq	r3, r0, r0, lsl #30
87809cc4:	20fe0300 	rscscs	r0, lr, r0, lsl #6
87809cc8:	e03f0000 	eors	r0, pc, r0
87809ccc:	e0010000 	and	r0, r1, r0
87809cd0:	20000000 	andcs	r0, r0, r0
87809cd4:	20000000 	andcs	r0, r0, r0
	...
87809d20:	20000002 	andcs	r0, r0, r2
87809d24:	20000002 	andcs	r0, r0, r2
87809d28:	e0ffff03 	rscs	pc, pc, r3, lsl #30
87809d2c:	e0ffff03 	rscs	pc, pc, r3, lsl #30
87809d30:	20000102 	andcs	r0, r0, r2, lsl #2
87809d34:	20000102 	andcs	r0, r0, r2, lsl #2
87809d38:	20000102 	andcs	r0, r0, r2, lsl #2
87809d3c:	20000102 	andcs	r0, r0, r2, lsl #2
87809d40:	20000102 	andcs	r0, r0, r2, lsl #2
87809d44:	20000303 	andcs	r0, r0, r3, lsl #6
87809d48:	60808601 	addvs	r8, r0, r1, lsl #12
87809d4c:	c0c0fc01 	sbcgt	pc, r0, r1, lsl #24
87809d50:	807ff800 	rsbshi	pc, pc, r0, lsl #16
87809d54:	001f0000 	andseq	r0, pc, r0
	...
87809da0:	00f80700 	rscseq	r0, r8, r0, lsl #14
87809da4:	00ff3f00 	rscseq	r3, pc, r0, lsl #30
87809da8:	80077000 	andhi	r7, r7, r0
87809dac:	c000c000 	andgt	ip, r0, r0
87809db0:	40000001 	andmi	r0, r0, r1
87809db4:	20000003 	andcs	r0, r0, r3
87809db8:	20000002 	andcs	r0, r0, r2
87809dbc:	20000002 	andcs	r0, r0, r2
87809dc0:	20000002 	andcs	r0, r0, r2
87809dc4:	20000002 	andcs	r0, r0, r2
87809dc8:	40000001 	andmi	r0, r0, r1
87809dcc:	c0008001 	andgt	r8, r0, r1
87809dd0:	8001c003 	andhi	ip, r1, r3
87809dd4:	00063000 	andeq	r3, r6, r0
	...
87809e20:	20000002 	andcs	r0, r0, r2
87809e24:	20000002 	andcs	r0, r0, r2
87809e28:	e0ffff03 	rscs	pc, pc, r3, lsl #30
87809e2c:	e0ffff03 	rscs	pc, pc, r3, lsl #30
87809e30:	20000002 	andcs	r0, r0, r2
87809e34:	20000002 	andcs	r0, r0, r2
87809e38:	20000002 	andcs	r0, r0, r2
87809e3c:	20000002 	andcs	r0, r0, r2
87809e40:	60000003 	andvs	r0, r0, r3
87809e44:	40000001 	andmi	r0, r0, r1
87809e48:	c0008001 	andgt	r8, r0, r1
87809e4c:	8007f000 	andhi	pc, r7, r0
87809e50:	00fe7f00 	rscseq	r7, lr, r0, lsl #30
87809e54:	00f80f00 	rscseq	r0, r8, r0, lsl #30
	...
87809ea0:	20000002 	andcs	r0, r0, r2
87809ea4:	20000002 	andcs	r0, r0, r2
87809ea8:	e0ffff03 	rscs	pc, pc, r3, lsl #30
87809eac:	e0ffff03 	rscs	pc, pc, r3, lsl #30
87809eb0:	20000102 	andcs	r0, r0, r2, lsl #2
87809eb4:	20000102 	andcs	r0, r0, r2, lsl #2
87809eb8:	20000102 	andcs	r0, r0, r2, lsl #2
87809ebc:	20000102 	andcs	r0, r0, r2, lsl #2
87809ec0:	20000102 	andcs	r0, r0, r2, lsl #2
87809ec4:	20800302 	addcs	r0, r0, r2, lsl #6
87809ec8:	20e00f02 	rsccs	r0, r0, r2, lsl #30
87809ecc:	60000003 	andvs	r0, r0, r3
87809ed0:	e000c003 	and	ip, r0, r3
87809ed4:	00036000 	andeq	r6, r3, r0
	...
87809f20:	20000002 	andcs	r0, r0, r2
87809f24:	20000002 	andcs	r0, r0, r2
87809f28:	e0ffff03 	rscs	pc, pc, r3, lsl #30
87809f2c:	e0ffff03 	rscs	pc, pc, r3, lsl #30
87809f30:	20000102 	andcs	r0, r0, r2, lsl #2
87809f34:	20000102 	andcs	r0, r0, r2, lsl #2
87809f38:	00000102 	andeq	r0, r0, r2, lsl #2
87809f3c:	00000102 	andeq	r0, r0, r2, lsl #2
87809f40:	00000102 	andeq	r0, r0, r2, lsl #2
87809f44:	00000102 	andeq	r0, r0, r2, lsl #2
87809f48:	00800302 	addeq	r0, r0, r2, lsl #6
87809f4c:	00e00f03 	rsceq	r0, r0, r3, lsl #30
87809f50:	00000003 	andeq	r0, r0, r3
87809f54:	0000c003 	andeq	ip, r0, r3
87809f58:	00006000 	andeq	r6, r0, r0
	...
87809fa0:	00f80700 	rscseq	r0, r8, r0, lsl #14
87809fa4:	00fe3f00 	rscseq	r3, lr, r0, lsl #30
87809fa8:	80077000 	andhi	r7, r7, r0
87809fac:	c001c001 	andgt	ip, r1, r1
87809fb0:	40000001 	andmi	r0, r0, r1
87809fb4:	20000003 	andcs	r0, r0, r3
87809fb8:	20000002 	andcs	r0, r0, r2
87809fbc:	20000002 	andcs	r0, r0, r2
87809fc0:	20000002 	andcs	r0, r0, r2
87809fc4:	20200001 	eorcs	r0, r0, r1
87809fc8:	40200001 	eormi	r0, r0, r1
87809fcc:	803fc003 	eorshi	ip, pc, r3
87809fd0:	803f3000 	eorshi	r3, pc, r0
87809fd4:	00200000 	eoreq	r0, r0, r0
87809fd8:	00200000 	eoreq	r0, r0, r0
	...
8780a01c:	20000002 	andcs	r0, r0, r2
8780a020:	20000002 	andcs	r0, r0, r2
8780a024:	e0ffff03 	rscs	pc, pc, r3, lsl #30
8780a028:	e0ffff03 	rscs	pc, pc, r3, lsl #30
8780a02c:	20800002 	addcs	r0, r0, r2
8780a030:	20800002 	addcs	r0, r0, r2
8780a034:	00800000 	addeq	r0, r0, r0
8780a038:	00800000 	addeq	r0, r0, r0
8780a03c:	00800000 	addeq	r0, r0, r0
8780a040:	20800002 	addcs	r0, r0, r2
8780a044:	20800002 	addcs	r0, r0, r2
8780a048:	e0ffff03 	rscs	pc, pc, r3, lsl #30
8780a04c:	e0ffff03 	rscs	pc, pc, r3, lsl #30
8780a050:	20000002 	andcs	r0, r0, r2
8780a054:	20000002 	andcs	r0, r0, r2
	...
8780a0a8:	20000002 	andcs	r0, r0, r2
8780a0ac:	20000002 	andcs	r0, r0, r2
8780a0b0:	20000002 	andcs	r0, r0, r2
8780a0b4:	20000002 	andcs	r0, r0, r2
8780a0b8:	e0ffff03 	rscs	pc, pc, r3, lsl #30
8780a0bc:	e0ffff03 	rscs	pc, pc, r3, lsl #30
8780a0c0:	20000002 	andcs	r0, r0, r2
8780a0c4:	20000002 	andcs	r0, r0, r2
8780a0c8:	20000002 	andcs	r0, r0, r2
8780a0cc:	20000002 	andcs	r0, r0, r2
	...
8780a120:	0e000000 	cdpeq	0, 0, cr0, cr0, cr0, {0}
8780a124:	0f000000 	svceq	0x00000000
8780a128:	0f000000 	svceq	0x00000000
8780a12c:	01000000 	mrseq	r0, (UNDEF: 0)
8780a130:	01000002 	tsteq	r0, r2
8780a134:	01000002 	tsteq	r0, r2
8780a138:	03000002 	movweq	r0, #2
8780a13c:	06000002 	streq	r0, [r0], -r2
8780a140:	fcffff03 	ldc2l	15, cr15, [pc], #12	; 8780a154 <asc2_3216+0x1538>
8780a144:	f8ffff03 			; <UNDEFINED> instruction: 0xf8ffff03
8780a148:	00000002 	andeq	r0, r0, r2
8780a14c:	00000002 	andeq	r0, r0, r2
8780a150:	00000002 	andeq	r0, r0, r2
8780a154:	00000002 	andeq	r0, r0, r2
	...
8780a1a0:	20000002 	andcs	r0, r0, r2
8780a1a4:	20000002 	andcs	r0, r0, r2
8780a1a8:	e0ffff03 	rscs	pc, pc, r3, lsl #30
8780a1ac:	e0ffff03 	rscs	pc, pc, r3, lsl #30
8780a1b0:	20c00002 	sbccs	r0, r0, r2
8780a1b4:	20000102 	andcs	r0, r0, r2, lsl #2
8780a1b8:	00800700 	addeq	r0, r0, r0, lsl #14
8780a1bc:	00e00f00 	rsceq	r0, r0, r0, lsl #30
8780a1c0:	00f83000 	rscseq	r3, r8, r0
8780a1c4:	203e6002 	eorscs	r6, lr, r2
8780a1c8:	200f8003 	andcs	r8, pc, r3
8780a1cc:	e0030003 	and	r0, r3, r3
8780a1d0:	e0000002 	and	r0, r0, r2
8780a1d4:	20000002 	andcs	r0, r0, r2
8780a1d8:	20000000 	andcs	r0, r0, r0
	...
8780a220:	20000002 	andcs	r0, r0, r2
8780a224:	20000002 	andcs	r0, r0, r2
8780a228:	e0ffff03 	rscs	pc, pc, r3, lsl #30
8780a22c:	e0ffff03 	rscs	pc, pc, r3, lsl #30
8780a230:	20000002 	andcs	r0, r0, r2
8780a234:	20000002 	andcs	r0, r0, r2
8780a238:	20000000 	andcs	r0, r0, r0
8780a23c:	20000000 	andcs	r0, r0, r0
8780a240:	20000000 	andcs	r0, r0, r0
8780a244:	20000000 	andcs	r0, r0, r0
8780a248:	20000000 	andcs	r0, r0, r0
8780a24c:	60000000 	andvs	r0, r0, r0
8780a250:	e0000000 	and	r0, r0, r0
8780a254:	00030000 	andeq	r0, r3, r0
	...
8780a29c:	20000002 	andcs	r0, r0, r2
8780a2a0:	20000002 	andcs	r0, r0, r2
8780a2a4:	e0ffff03 	rscs	pc, pc, r3, lsl #30
8780a2a8:	2000e003 	andcs	lr, r0, r3
8780a2ac:	2000ff03 	andcs	pc, r0, r3, lsl #30
8780a2b0:	00f01f00 	rscseq	r1, r0, r0, lsl #30
8780a2b4:	80ff0100 	rscshi	r0, pc, r0, lsl #2
8780a2b8:	e00f0000 	and	r0, pc, r0
8780a2bc:	001e0000 	andseq	r0, lr, r0
8780a2c0:	00e00300 	rsceq	r0, r0, r0, lsl #6
8780a2c4:	20003e00 	andcs	r3, r0, r0, lsl #28
8780a2c8:	2000e003 	andcs	lr, r0, r3
8780a2cc:	e0ffff03 	rscs	pc, pc, r3, lsl #30
8780a2d0:	e0ffff03 	rscs	pc, pc, r3, lsl #30
8780a2d4:	20000002 	andcs	r0, r0, r2
8780a2d8:	20000002 	andcs	r0, r0, r2
	...
8780a31c:	20000002 	andcs	r0, r0, r2
8780a320:	20000002 	andcs	r0, r0, r2
8780a324:	e0ffff03 	rscs	pc, pc, r3, lsl #30
8780a328:	20008003 	andcs	r8, r0, r3
8780a32c:	2000f003 	andcs	pc, r0, r3
8780a330:	0000fc00 	andeq	pc, r0, r0, lsl #24
8780a334:	00001f00 	andeq	r1, r0, r0, lsl #30
8780a338:	00c00700 	sbceq	r0, r0, r0, lsl #14
8780a33c:	00f00100 	rscseq	r0, r0, r0, lsl #2
8780a340:	007c0000 	rsbseq	r0, ip, r0
8780a344:	801f0002 	andshi	r0, pc, r2
8780a348:	e0070002 	and	r0, r7, r2
8780a34c:	e0ffff03 	rscs	pc, pc, r3, lsl #30
8780a350:	00000002 	andeq	r0, r0, r2
8780a354:	00000002 	andeq	r0, r0, r2
	...
8780a3a0:	00f80f00 	rscseq	r0, r8, r0, lsl #30
8780a3a4:	00fe3f00 	rscseq	r3, lr, r0, lsl #30
8780a3a8:	8007f000 	andhi	pc, r7, r0
8780a3ac:	c0008001 	andgt	r8, r0, r1
8780a3b0:	40000001 	andmi	r0, r0, r1
8780a3b4:	20000002 	andcs	r0, r0, r2
8780a3b8:	20000002 	andcs	r0, r0, r2
8780a3bc:	20000002 	andcs	r0, r0, r2
8780a3c0:	20000002 	andcs	r0, r0, r2
8780a3c4:	40000001 	andmi	r0, r0, r1
8780a3c8:	c0008001 	andgt	r8, r0, r1
8780a3cc:	8003f000 	andhi	pc, r3, r0
8780a3d0:	00fe3f00 	rscseq	r3, lr, r0, lsl #30
8780a3d4:	00f80f00 	rscseq	r0, r8, r0, lsl #30
	...
8780a420:	20000002 	andcs	r0, r0, r2
8780a424:	20000002 	andcs	r0, r0, r2
8780a428:	e0ffff03 	rscs	pc, pc, r3, lsl #30
8780a42c:	e0ffff03 	rscs	pc, pc, r3, lsl #30
8780a430:	20800002 	addcs	r0, r0, r2
8780a434:	20800002 	addcs	r0, r0, r2
8780a438:	00800002 	addeq	r0, r0, r2
8780a43c:	00800002 	addeq	r0, r0, r2
8780a440:	00800002 	addeq	r0, r0, r2
8780a444:	00800002 	addeq	r0, r0, r2
8780a448:	00800103 	addeq	r0, r0, r3, lsl #2
8780a44c:	00008301 	andeq	r8, r0, r1, lsl #6
8780a450:	0000fe00 	andeq	pc, r0, r0, lsl #28
8780a454:	00007c00 	andeq	r7, r0, r0, lsl #24
	...
8780a4a0:	00f80f00 	rscseq	r0, r8, r0, lsl #30
8780a4a4:	00ff7f00 	rscseq	r7, pc, r0, lsl #30
8780a4a8:	8003f000 	andhi	pc, r3, r0
8780a4ac:	c0018001 	andgt	r8, r1, r1
8780a4b0:	40060001 	andmi	r0, r6, r1
8780a4b4:	20040002 	andcs	r0, r4, r2
8780a4b8:	20040002 	andcs	r0, r4, r2
8780a4bc:	20060002 	andcs	r0, r6, r2
8780a4c0:	e0030002 	and	r0, r3, r2
8780a4c4:	f8000001 			; <UNDEFINED> instruction: 0xf8000001
8780a4c8:	5c008001 	stcpl	0, cr8, [r0], {1}
8780a4cc:	8c03e000 	stchi	0, cr14, [r3], {-0}
8780a4d0:	0cff3f00 	ldcleq	15, cr3, [pc]	; 8780a4d8 <asc2_3216+0x18bc>
8780a4d4:	18fc0f00 	ldmne	ip!, {r8, r9, sl, fp}^
	...
8780a520:	20000002 	andcs	r0, r0, r2
8780a524:	20000002 	andcs	r0, r0, r2
8780a528:	e0ffff03 	rscs	pc, pc, r3, lsl #30
8780a52c:	e0ffff03 	rscs	pc, pc, r3, lsl #30
8780a530:	20000102 	andcs	r0, r0, r2, lsl #2
8780a534:	20000102 	andcs	r0, r0, r2, lsl #2
8780a538:	00800102 	addeq	r0, r0, r2, lsl #2
8780a53c:	00e00102 	rsceq	r0, r0, r2, lsl #2
8780a540:	00fc0102 	rscseq	r0, ip, r2, lsl #2
8780a544:	803f0303 	eorshi	r0, pc, r3, lsl #6
8780a548:	e0078601 	and	r8, r7, r1, lsl #12
8780a54c:	e000fc01 	and	pc, r0, r1, lsl #24
8780a550:	2000f800 	andcs	pc, r0, r0, lsl #16
8780a554:	20000000 	andcs	r0, r0, r0
	...
8780a5a4:	00067800 	andeq	r7, r6, r0, lsl #16
8780a5a8:	e001fe00 	and	pc, r1, r0, lsl #28
8780a5ac:	c0008601 	andgt	r8, r0, r1, lsl #12
8780a5b0:	40000303 	andmi	r0, r0, r3, lsl #6
8780a5b4:	20000302 	andcs	r0, r0, r2, lsl #6
8780a5b8:	20800102 	addcs	r0, r0, r2, lsl #2
8780a5bc:	20800102 	addcs	r0, r0, r2, lsl #2
8780a5c0:	20c00102 	sbccs	r0, r0, r2, lsl #2
8780a5c4:	20c00002 	sbccs	r0, r0, r2
8780a5c8:	60e00001 	rscvs	r0, r0, r1
8780a5cc:	c0708001 	rsbsgt	r8, r0, r1
8780a5d0:	803fe003 	eorshi	lr, pc, r3
8780a5d4:	001f0000 	andseq	r0, pc, r0
	...
8780a620:	00006000 	andeq	r6, r0, r0
8780a624:	00008003 	andeq	r8, r0, r3
8780a628:	00000003 	andeq	r0, r0, r3
8780a62c:	00000002 	andeq	r0, r0, r2
8780a630:	20000002 	andcs	r0, r0, r2
8780a634:	20000002 	andcs	r0, r0, r2
8780a638:	e0ffff03 	rscs	pc, pc, r3, lsl #30
8780a63c:	e0ffff03 	rscs	pc, pc, r3, lsl #30
8780a640:	20000002 	andcs	r0, r0, r2
8780a644:	20000002 	andcs	r0, r0, r2
8780a648:	00000002 	andeq	r0, r0, r2
8780a64c:	00000002 	andeq	r0, r0, r2
8780a650:	00008003 	andeq	r8, r0, r3
8780a654:	0000e000 	andeq	lr, r0, r0
	...
8780a69c:	00000002 	andeq	r0, r0, r2
8780a6a0:	00000002 	andeq	r0, r0, r2
8780a6a4:	00ffff03 	rscseq	pc, pc, r3, lsl #30
8780a6a8:	c0ffff03 	rscsgt	pc, pc, r3, lsl #30
8780a6ac:	40000002 	andmi	r0, r0, r2
8780a6b0:	60000002 	andvs	r0, r0, r2
8780a6b4:	20000000 	andcs	r0, r0, r0
8780a6b8:	20000000 	andcs	r0, r0, r0
8780a6bc:	20000000 	andcs	r0, r0, r0
8780a6c0:	20000000 	andcs	r0, r0, r0
8780a6c4:	40000002 	andmi	r0, r0, r2
8780a6c8:	80000002 	andhi	r0, r0, r2
8780a6cc:	00ffff03 	rscseq	pc, pc, r3, lsl #30
8780a6d0:	00000002 	andeq	r0, r0, r2
8780a6d4:	00000002 	andeq	r0, r0, r2
	...
8780a720:	00000002 	andeq	r0, r0, r2
8780a724:	00000002 	andeq	r0, r0, r2
8780a728:	0000c003 	andeq	ip, r0, r3
8780a72c:	0000fc03 	andeq	pc, r0, r3, lsl #24
8780a730:	00c03f02 	sbceq	r3, r0, r2, lsl #30
8780a734:	00f80300 	rscseq	r0, r8, r0, lsl #6
8780a738:	807f0000 	rsbshi	r0, pc, r0
8780a73c:	e0070000 	and	r0, r7, r0
8780a740:	80070000 	andhi	r0, r7, r0
8780a744:	00780000 	rsbseq	r0, r8, r0
8780a748:	00c00302 	sbceq	r0, r0, r2, lsl #6
8780a74c:	00003c02 	andeq	r3, r0, r2, lsl #24
8780a750:	0000c003 	andeq	ip, r0, r3
8780a754:	00000002 	andeq	r0, r0, r2
8780a758:	00000002 	andeq	r0, r0, r2
	...
8780a79c:	00000002 	andeq	r0, r0, r2
8780a7a0:	0000c003 	andeq	ip, r0, r3
8780a7a4:	0080ff03 	addeq	pc, r0, r3, lsl #30
8780a7a8:	00fe3f02 	rscseq	r3, lr, r2, lsl #30
8780a7ac:	e07f0002 	rsbs	r0, pc, r2
8780a7b0:	000f0000 	andeq	r0, pc, r0
8780a7b4:	00f00002 	rscseq	r0, r0, r2
8780a7b8:	0000ef03 	andeq	lr, r0, r3, lsl #30
8780a7bc:	0080ff03 	addeq	pc, r0, r3, lsl #30
8780a7c0:	00fe0f02 	rscseq	r0, lr, r2, lsl #30
8780a7c4:	e03f0000 	eors	r0, pc, r0
8780a7c8:	001f0000 	andseq	r0, pc, r0
8780a7cc:	00e00702 	rsceq	r0, r0, r2, lsl #14
8780a7d0:	0000f803 	andeq	pc, r0, r3, lsl #16
8780a7d4:	00000003 	andeq	r0, r0, r3
8780a7d8:	00000002 	andeq	r0, r0, r2
	...
8780a820:	20000002 	andcs	r0, r0, r2
8780a824:	20000002 	andcs	r0, r0, r2
8780a828:	e0008003 	and	r8, r0, r3
8780a82c:	2003f003 	andcs	pc, r3, r3
8780a830:	200cfc02 	andcs	pc, ip, r2, lsl #24
8780a834:	00301f02 	eorseq	r1, r0, r2, lsl #30
8780a838:	00c00700 	sbceq	r0, r0, r0, lsl #14
8780a83c:	00f00700 	rscseq	r0, r0, r0, lsl #14
8780a840:	007c1802 	rsbseq	r1, ip, r2, lsl #16
8780a844:	201f6002 	andscs	r6, pc, r2
8780a848:	e0038003 	and	r8, r3, r3
8780a84c:	e0000002 	and	r0, r0, r2
8780a850:	20000002 	andcs	r0, r0, r2
8780a854:	20000000 	andcs	r0, r0, r0
	...
8780a8a0:	00000002 	andeq	r0, r0, r2
8780a8a4:	00000003 	andeq	r0, r0, r3
8780a8a8:	0000c003 	andeq	ip, r0, r3
8780a8ac:	0000f803 	andeq	pc, r0, r3, lsl #16
8780a8b0:	20003e02 	andcs	r3, r0, r2, lsl #28
8780a8b4:	20c00f02 	sbccs	r0, r0, r2, lsl #30
8780a8b8:	e0ff0100 	rscs	r0, pc, r0, lsl #2
8780a8bc:	e07f0000 	rsbs	r0, pc, r0
8780a8c0:	20800300 	addcs	r0, r0, r0, lsl #6
8780a8c4:	20001c02 	andcs	r1, r0, r2, lsl #24
8780a8c8:	00007002 	andeq	r7, r0, r2
8780a8cc:	00008003 	andeq	r8, r0, r3
8780a8d0:	00000002 	andeq	r0, r0, r2
8780a8d4:	00000002 	andeq	r0, r0, r2
	...
8780a920:	20000000 	andcs	r0, r0, r0
8780a924:	e0006000 	and	r6, r0, r0
8780a928:	e0038003 	and	r8, r3, r3
8780a92c:	a00f0003 	andge	r0, pc, r3
8780a930:	203e0002 	eorscs	r0, lr, r2
8780a934:	20f80002 	rscscs	r0, r8, r2
8780a938:	20e00302 	rsccs	r0, r0, r2, lsl #6
8780a93c:	20800f02 	addcs	r0, r0, r2, lsl #30
8780a940:	20003e02 	andcs	r3, r0, r2, lsl #28
8780a944:	20007802 	andcs	r7, r0, r2, lsl #16
8780a948:	6000e003 	andvs	lr, r0, r3
8780a94c:	e0008003 	and	r8, r0, r3
8780a950:	00030002 	andeq	r0, r3, r2
	...
8780a9b4:	fcffff1f 	ldc2l	15, cr15, [pc], #124	; 8780aa38 <asc2_3216+0x1e1c>
8780a9b8:	04000010 	streq	r0, [r0], #-16
8780a9bc:	04000010 	streq	r0, [r0], #-16
8780a9c0:	04000010 	streq	r0, [r0], #-16
8780a9c4:	04000010 	streq	r0, [r0], #-16
8780a9c8:	04000010 	streq	r0, [r0], #-16
8780a9cc:	04000010 	streq	r0, [r0], #-16
8780a9d0:	04000010 	streq	r0, [r0], #-16
	...
8780aa28:	00000007 	andeq	r0, r0, r7
8780aa2c:	0000c003 	andeq	ip, r0, r3
8780aa30:	00007800 	andeq	r7, r0, r0, lsl #16
8780aa34:	00001e00 	andeq	r1, r0, r0, lsl #28
8780aa38:	00c00300 	sbceq	r0, r0, r0, lsl #6
8780aa3c:	00f00000 	rscseq	r0, r0, r0
8780aa40:	001e0000 	andseq	r0, lr, r0
8780aa44:	80070000 	andhi	r0, r7, r0
8780aa48:	f0000000 			; <UNDEFINED> instruction: 0xf0000000
8780aa4c:	3c000000 	stccc	0, cr0, [r0], {-0}
8780aa50:	06000000 	streq	r0, [r0], -r0
	...
8780aaa4:	04000010 	streq	r0, [r0], #-16
8780aaa8:	04000010 	streq	r0, [r0], #-16
8780aaac:	04000010 	streq	r0, [r0], #-16
8780aab0:	04000010 	streq	r0, [r0], #-16
8780aab4:	04000010 	streq	r0, [r0], #-16
8780aab8:	04000010 	streq	r0, [r0], #-16
8780aabc:	04000010 	streq	r0, [r0], #-16
8780aac0:	fcffff1f 	ldc2l	15, cr15, [pc], #124	; 8780ab44 <asc2_3216+0x1f28>
	...
8780ab2c:	00000002 	andeq	r0, r0, r2
8780ab30:	00000004 	andeq	r0, r0, r4
8780ab34:	00000008 	andeq	r0, r0, r8
8780ab38:	00000018 	andeq	r0, r0, r8, lsl r0
8780ab3c:	00000010 	andeq	r0, r0, r0, lsl r0
8780ab40:	00000018 	andeq	r0, r0, r8, lsl r0
8780ab44:	00000018 	andeq	r0, r0, r8, lsl r0
8780ab48:	00000004 	andeq	r0, r0, r4
8780ab4c:	00000002 	andeq	r0, r0, r2
	...
8780ab9c:	01000000 	mrseq	r0, (UNDEF: 0)
8780aba0:	01000000 	mrseq	r0, (UNDEF: 0)
8780aba4:	01000000 	mrseq	r0, (UNDEF: 0)
8780aba8:	01000000 	mrseq	r0, (UNDEF: 0)
8780abac:	01000000 	mrseq	r0, (UNDEF: 0)
8780abb0:	01000000 	mrseq	r0, (UNDEF: 0)
8780abb4:	01000000 	mrseq	r0, (UNDEF: 0)
8780abb8:	01000000 	mrseq	r0, (UNDEF: 0)
8780abbc:	01000000 	mrseq	r0, (UNDEF: 0)
8780abc0:	01000000 	mrseq	r0, (UNDEF: 0)
8780abc4:	01000000 	mrseq	r0, (UNDEF: 0)
8780abc8:	01000000 	mrseq	r0, (UNDEF: 0)
8780abcc:	01000000 	mrseq	r0, (UNDEF: 0)
8780abd0:	01000000 	mrseq	r0, (UNDEF: 0)
8780abd4:	01000000 	mrseq	r0, (UNDEF: 0)
8780abd8:	01000000 	mrseq	r0, (UNDEF: 0)
	...
8780ac28:	00000010 	andeq	r0, r0, r0, lsl r0
8780ac2c:	00000010 	andeq	r0, r0, r0, lsl r0
8780ac30:	00000010 	andeq	r0, r0, r0, lsl r0
8780ac34:	00000018 	andeq	r0, r0, r8, lsl r0
8780ac38:	00000008 	andeq	r0, r0, r8
8780ac3c:	00000004 	andeq	r0, r0, r4
	...
8780aca0:	80030000 	andhi	r0, r3, r0
8780aca4:	c08f0100 	addgt	r0, pc, r0, lsl #2
8780aca8:	608c0300 	addvs	r0, ip, r0, lsl #6
8780acac:	20180600 	andscs	r0, r8, r0, lsl #12
8780acb0:	20100400 	andscs	r0, r0, r0, lsl #8
8780acb4:	20100400 	andscs	r0, r0, r0, lsl #8
8780acb8:	20200400 	eorcs	r0, r0, r0, lsl #8
8780acbc:	40200400 	eormi	r0, r0, r0, lsl #8
8780acc0:	40200600 	eormi	r0, r0, r0, lsl #12
8780acc4:	c0ff0300 	rscsgt	r0, pc, r0, lsl #6
8780acc8:	e0ff0100 	rscs	r0, pc, r0, lsl #2
8780accc:	20000000 	andcs	r0, r0, r0
8780acd0:	20000000 	andcs	r0, r0, r0
8780acd4:	c0000000 	andgt	r0, r0, r0
	...
8780ad20:	00000002 	andeq	r0, r0, r2
8780ad24:	00000002 	andeq	r0, r0, r2
8780ad28:	e0ffff03 	rscs	pc, pc, r3, lsl #30
8780ad2c:	c0ffff07 	rscsgt	pc, pc, r7, lsl #30
8780ad30:	c0800100 	addgt	r0, r0, r0, lsl #2
8780ad34:	60000200 	andvs	r0, r0, r0, lsl #4
8780ad38:	20000200 	andcs	r0, r0, r0, lsl #4
8780ad3c:	20000400 	andcs	r0, r0, r0, lsl #8
8780ad40:	20000400 	andcs	r0, r0, r0, lsl #8
8780ad44:	20000400 	andcs	r0, r0, r0, lsl #8
8780ad48:	40000600 	andmi	r0, r0, r0, lsl #12
8780ad4c:	c0000300 	andgt	r0, r0, r0, lsl #6
8780ad50:	80ff0100 	rscshi	r0, pc, r0, lsl #2
8780ad54:	00fe0000 	rscseq	r0, lr, r0
	...
8780ada4:	007e0000 	rsbseq	r0, lr, r0
8780ada8:	80ff0100 	rscshi	r0, pc, r0, lsl #2
8780adac:	c0810300 	addgt	r0, r1, r0, lsl #6
8780adb0:	40000200 	andmi	r0, r0, r0, lsl #4
8780adb4:	20000600 	andcs	r0, r0, r0, lsl #12
8780adb8:	20000400 	andcs	r0, r0, r0, lsl #8
8780adbc:	20000400 	andcs	r0, r0, r0, lsl #8
8780adc0:	20000400 	andcs	r0, r0, r0, lsl #8
8780adc4:	20000600 	andcs	r0, r0, r0, lsl #12
8780adc8:	40c00300 	sbcmi	r0, r0, r0, lsl #6
8780adcc:	80c00100 	sbchi	r0, r0, r0, lsl #2
8780add0:	00030000 	andeq	r0, r3, r0
	...
8780ae24:	007e0000 	rsbseq	r0, lr, r0
8780ae28:	80ff0100 	rscshi	r0, pc, r0, lsl #2
8780ae2c:	c0800300 	addgt	r0, r0, r0, lsl #6
8780ae30:	60000600 	andvs	r0, r0, r0, lsl #12
8780ae34:	20000400 	andcs	r0, r0, r0, lsl #8
8780ae38:	20000400 	andcs	r0, r0, r0, lsl #8
8780ae3c:	20000400 	andcs	r0, r0, r0, lsl #8
8780ae40:	40000402 	andmi	r0, r0, r2, lsl #8
8780ae44:	80000202 	andhi	r0, r0, r2, lsl #4
8780ae48:	e0ffff03 	rscs	pc, pc, r3, lsl #30
8780ae4c:	c0ffff07 	rscsgt	pc, pc, r7, lsl #30
8780ae50:	40000000 	andmi	r0, r0, r0
8780ae54:	40000000 	andmi	r0, r0, r0
	...
8780aea4:	007e0000 	rsbseq	r0, lr, r0
8780aea8:	80ff0100 	rscshi	r0, pc, r0, lsl #2
8780aeac:	c0110300 	andsgt	r0, r1, r0, lsl #6
8780aeb0:	40100200 	andsmi	r0, r0, r0, lsl #4
8780aeb4:	60100400 	andsvs	r0, r0, r0, lsl #8
8780aeb8:	20100400 	andscs	r0, r0, r0, lsl #8
8780aebc:	20100400 	andscs	r0, r0, r0, lsl #8
8780aec0:	20100400 	andscs	r0, r0, r0, lsl #8
8780aec4:	20100600 	andscs	r0, r0, r0, lsl #12
8780aec8:	40100300 	andsmi	r0, r0, r0, lsl #6
8780aecc:	c0f00100 	rscsgt	r0, r0, r0, lsl #2
8780aed0:	00710000 	rsbseq	r0, r1, r0
	...
8780af24:	00000400 	andeq	r0, r0, r0, lsl #8
8780af28:	20000400 	andcs	r0, r0, r0, lsl #8
8780af2c:	20000400 	andcs	r0, r0, r0, lsl #8
8780af30:	20000400 	andcs	r0, r0, r0, lsl #8
8780af34:	e0ff7f00 	rscs	r7, pc, r0, lsl #30
8780af38:	e0ffff01 	rscs	pc, pc, r1, lsl #30
8780af3c:	20000401 	andcs	r0, r0, r1, lsl #8
8780af40:	20000403 	andcs	r0, r0, r3, lsl #8
8780af44:	20000402 	andcs	r0, r0, r2, lsl #8
8780af48:	20000402 	andcs	r0, r0, r2, lsl #8
8780af4c:	00000402 	andeq	r0, r0, r2, lsl #8
8780af50:	00000002 	andeq	r0, r0, r2
8780af54:	0000c001 	andeq	ip, r0, r1
8780af58:	0000c001 	andeq	ip, r0, r1
	...
8780afa4:	1c000000 	stcne	0, cr0, [r0], {-0}
8780afa8:	3ee30000 	cdpcc	0, 14, cr0, cr3, cr0, {0}
8780afac:	c2ff0300 	rscsgt	r0, pc, #0, 6
8780afb0:	c30c0200 	movwgt	r0, #49664	; 0xc200
8780afb4:	c1040400 	tstgt	r4, r0, lsl #8
8780afb8:	c1040400 	tstgt	r4, r0, lsl #8
8780afbc:	c1040400 	tstgt	r4, r0, lsl #8
8780afc0:	c1040400 	tstgt	r4, r0, lsl #8
8780afc4:	c10c0600 	tstgt	ip, r0, lsl #12
8780afc8:	c3f80300 	mvnsgt	r0, #0, 6
8780afcc:	62f00500 	rscsvs	r0, r0, #0, 10
8780afd0:	7e000600 	cfmadd32vc	mvax0, mvfx0, mvfx0, mvfx0
8780afd4:	3c000600 	stccc	6, cr0, [r0], {-0}
	...
8780b020:	20000002 	andcs	r0, r0, r2
8780b024:	20000002 	andcs	r0, r0, r2
8780b028:	e0ffff03 	rscs	pc, pc, r3, lsl #30
8780b02c:	e0ffff07 	rscs	pc, pc, r7, lsl #30
8780b030:	20000100 	andcs	r0, r0, r0, lsl #2
8780b034:	20000200 	andcs	r0, r0, r0, lsl #4
8780b038:	00000600 	andeq	r0, r0, r0, lsl #12
8780b03c:	00000400 	andeq	r0, r0, r0, lsl #8
8780b040:	00000400 	andeq	r0, r0, r0, lsl #8
8780b044:	20000400 	andcs	r0, r0, r0, lsl #8
8780b048:	20000600 	andcs	r0, r0, r0, lsl #12
8780b04c:	e0ff0300 	rscs	r0, pc, r0, lsl #6
8780b050:	e0ff0100 	rscs	r0, pc, r0, lsl #2
8780b054:	20000000 	andcs	r0, r0, r0
8780b058:	20000000 	andcs	r0, r0, r0
	...
8780b0a8:	20000400 	andcs	r0, r0, r0, lsl #8
8780b0ac:	20000400 	andcs	r0, r0, r0, lsl #8
8780b0b0:	20000400 	andcs	r0, r0, r0, lsl #8
8780b0b4:	20000400 	andcs	r0, r0, r0, lsl #8
8780b0b8:	e0ff8703 	rscs	r8, pc, r3, lsl #14
8780b0bc:	e0ff8f03 	rscs	r8, pc, r3, lsl #30
8780b0c0:	20008003 	andcs	r8, r0, r3
8780b0c4:	20000000 	andcs	r0, r0, r0
8780b0c8:	20000000 	andcs	r0, r0, r0
8780b0cc:	20000000 	andcs	r0, r0, r0
	...
8780b128:	06000000 	streq	r0, [r0], -r0
8780b12c:	07000000 	streq	r0, [r0, -r0]
8780b130:	01000000 	mrseq	r0, (UNDEF: 0)
8780b134:	01000000 	mrseq	r0, (UNDEF: 0)
8780b138:	01000400 	tsteq	r0, r0, lsl #8
8780b13c:	01000400 	tsteq	r0, r0, lsl #8
8780b140:	03000400 	movweq	r0, #1024	; 0x400
8780b144:	06000400 	streq	r0, [r0], -r0, lsl #8
8780b148:	fcff8703 	ldc2l	7, cr8, [pc], #12	; 8780b15c <asc2_3216+0x2540>
8780b14c:	f8ff8f03 			; <UNDEFINED> instruction: 0xf8ff8f03
8780b150:	00008003 	andeq	r8, r0, r3
	...
8780b1a0:	20000002 	andcs	r0, r0, r2
8780b1a4:	20000002 	andcs	r0, r0, r2
8780b1a8:	e0ffff03 	rscs	pc, pc, r3, lsl #30
8780b1ac:	e0ffff07 	rscs	pc, pc, r7, lsl #30
8780b1b0:	20080000 	andcs	r0, r8, r0
8780b1b4:	20100000 	andscs	r0, r0, r0
8780b1b8:	00300000 	eorseq	r0, r0, r0
8780b1bc:	00fc0000 	rscseq	r0, ip, r0
8780b1c0:	008e0500 	addeq	r0, lr, r0, lsl #10
8780b1c4:	a0070700 	andge	r0, r7, r0, lsl #14
8780b1c8:	e0010600 	and	r0, r1, r0, lsl #12
8780b1cc:	e0000400 	and	r0, r0, r0, lsl #8
8780b1d0:	20000400 	andcs	r0, r0, r0, lsl #8
8780b1d4:	20000000 	andcs	r0, r0, r0
	...
8780b228:	20000002 	andcs	r0, r0, r2
8780b22c:	20000002 	andcs	r0, r0, r2
8780b230:	20000002 	andcs	r0, r0, r2
8780b234:	20000002 	andcs	r0, r0, r2
8780b238:	e0ffff03 	rscs	pc, pc, r3, lsl #30
8780b23c:	e0ffff07 	rscs	pc, pc, r7, lsl #30
8780b240:	20000000 	andcs	r0, r0, r0
8780b244:	20000000 	andcs	r0, r0, r0
8780b248:	20000000 	andcs	r0, r0, r0
8780b24c:	20000000 	andcs	r0, r0, r0
	...
8780b2a0:	20000400 	andcs	r0, r0, r0, lsl #8
8780b2a4:	e0ff0700 	rscs	r0, pc, r0, lsl #14
8780b2a8:	e0ff0f00 	rscs	r0, pc, r0, lsl #30
8780b2ac:	20000200 	andcs	r0, r0, r0, lsl #4
8780b2b0:	00000400 	andeq	r0, r0, r0, lsl #8
8780b2b4:	20000400 	andcs	r0, r0, r0, lsl #8
8780b2b8:	e0ff0700 	rscs	r0, pc, r0, lsl #14
8780b2bc:	e0ff0300 	rscs	r0, pc, r0, lsl #6
8780b2c0:	20000200 	andcs	r0, r0, r0, lsl #4
8780b2c4:	00000400 	andeq	r0, r0, r0, lsl #8
8780b2c8:	20000400 	andcs	r0, r0, r0, lsl #8
8780b2cc:	e0ff0700 	rscs	r0, pc, r0, lsl #14
8780b2d0:	e0ff0300 	rscs	r0, pc, r0, lsl #6
8780b2d4:	20000000 	andcs	r0, r0, r0
	...
8780b320:	20000400 	andcs	r0, r0, r0, lsl #8
8780b324:	20000400 	andcs	r0, r0, r0, lsl #8
8780b328:	e0ff0700 	rscs	r0, pc, r0, lsl #14
8780b32c:	e0ff0f00 	rscs	r0, pc, r0, lsl #30
8780b330:	20000100 	andcs	r0, r0, r0, lsl #2
8780b334:	20000200 	andcs	r0, r0, r0, lsl #4
8780b338:	00000200 	andeq	r0, r0, r0, lsl #4
8780b33c:	00000400 	andeq	r0, r0, r0, lsl #8
8780b340:	00000400 	andeq	r0, r0, r0, lsl #8
8780b344:	20000400 	andcs	r0, r0, r0, lsl #8
8780b348:	20000600 	andcs	r0, r0, r0, lsl #12
8780b34c:	e0ff0300 	rscs	r0, pc, r0, lsl #6
8780b350:	e0ff0100 	rscs	r0, pc, r0, lsl #2
8780b354:	20000000 	andcs	r0, r0, r0
8780b358:	20000000 	andcs	r0, r0, r0
	...
8780b3a4:	007e0000 	rsbseq	r0, lr, r0
8780b3a8:	80ff0000 	rscshi	r0, pc, r0
8780b3ac:	c0810300 	addgt	r0, r1, r0, lsl #6
8780b3b0:	40000200 	andmi	r0, r0, r0, lsl #4
8780b3b4:	20000600 	andcs	r0, r0, r0, lsl #12
8780b3b8:	20000400 	andcs	r0, r0, r0, lsl #8
8780b3bc:	20000400 	andcs	r0, r0, r0, lsl #8
8780b3c0:	20000400 	andcs	r0, r0, r0, lsl #8
8780b3c4:	20000600 	andcs	r0, r0, r0, lsl #12
8780b3c8:	40000200 	andmi	r0, r0, r0, lsl #4
8780b3cc:	c0810300 	addgt	r0, r1, r0, lsl #6
8780b3d0:	80ff0100 	rscshi	r0, pc, r0, lsl #2
8780b3d4:	007e0000 	rsbseq	r0, lr, r0
	...
8780b420:	01000400 	tsteq	r0, r0, lsl #8
8780b424:	01000400 	tsteq	r0, r0, lsl #8
8780b428:	ffff0700 			; <UNDEFINED> instruction: 0xffff0700
8780b42c:	ffff0f00 			; <UNDEFINED> instruction: 0xffff0f00
8780b430:	c1000100 	mrsgt	r0, (UNDEF: 16)
8780b434:	41000200 	mrsmi	r0, R8_usr
8780b438:	20000400 	andcs	r0, r0, r0, lsl #8
8780b43c:	20000400 	andcs	r0, r0, r0, lsl #8
8780b440:	20000400 	andcs	r0, r0, r0, lsl #8
8780b444:	20000400 	andcs	r0, r0, r0, lsl #8
8780b448:	40000600 	andmi	r0, r0, r0, lsl #12
8780b44c:	c0010300 	andgt	r0, r1, r0, lsl #6
8780b450:	80ff0100 	rscshi	r0, pc, r0, lsl #2
8780b454:	007e0000 	rsbseq	r0, lr, r0
	...
8780b4a4:	007e0000 	rsbseq	r0, lr, r0
8780b4a8:	80ff0100 	rscshi	r0, pc, r0, lsl #2
8780b4ac:	c0800300 	addgt	r0, r0, r0, lsl #6
8780b4b0:	60000200 	andvs	r0, r0, r0, lsl #4
8780b4b4:	20000400 	andcs	r0, r0, r0, lsl #8
8780b4b8:	20000400 	andcs	r0, r0, r0, lsl #8
8780b4bc:	20000400 	andcs	r0, r0, r0, lsl #8
8780b4c0:	20000400 	andcs	r0, r0, r0, lsl #8
8780b4c4:	41000200 	mrsmi	r0, R8_usr
8780b4c8:	c1000300 	mrsgt	r0, LR_irq
8780b4cc:	ffff0300 			; <UNDEFINED> instruction: 0xffff0300
8780b4d0:	ffff0700 			; <UNDEFINED> instruction: 0xffff0700
8780b4d4:	01000000 	mrseq	r0, (UNDEF: 0)
8780b4d8:	01000000 	mrseq	r0, (UNDEF: 0)
	...
8780b520:	20000400 	andcs	r0, r0, r0, lsl #8
8780b524:	20000400 	andcs	r0, r0, r0, lsl #8
8780b528:	20000400 	andcs	r0, r0, r0, lsl #8
8780b52c:	20000400 	andcs	r0, r0, r0, lsl #8
8780b530:	e0ff0f00 	rscs	r0, pc, r0, lsl #30
8780b534:	e0ff0f00 	rscs	r0, pc, r0, lsl #30
8780b538:	20c00000 	sbccs	r0, r0, r0
8780b53c:	20000100 	andcs	r0, r0, r0, lsl #2
8780b540:	20000200 	andcs	r0, r0, r0, lsl #4
8780b544:	20000600 	andcs	r0, r0, r0, lsl #12
8780b548:	00000400 	andeq	r0, r0, r0, lsl #8
8780b54c:	00000400 	andeq	r0, r0, r0, lsl #8
8780b550:	00000700 	andeq	r0, r0, r0, lsl #14
8780b554:	00000300 	andeq	r0, r0, r0, lsl #6
	...
8780b5a4:	e0030000 	and	r0, r3, r0
8780b5a8:	e0c00100 	sbc	r0, r0, r0, lsl #2
8780b5ac:	40e00300 	rscmi	r0, r0, r0, lsl #6
8780b5b0:	20300600 	eorscs	r0, r0, r0, lsl #12
8780b5b4:	20300400 	eorscs	r0, r0, r0, lsl #8
8780b5b8:	20180400 	andscs	r0, r8, r0, lsl #8
8780b5bc:	20180400 	andscs	r0, r8, r0, lsl #8
8780b5c0:	20180400 	andscs	r0, r8, r0, lsl #8
8780b5c4:	200c0400 	andcs	r0, ip, r0, lsl #8
8780b5c8:	600c0200 	andvs	r0, ip, r0, lsl #4
8780b5cc:	c0070300 	andgt	r0, r7, r0, lsl #6
8780b5d0:	80830700 	addhi	r0, r3, r0, lsl #14
	...
8780b624:	00000400 	andeq	r0, r0, r0, lsl #8
8780b628:	00000400 	andeq	r0, r0, r0, lsl #8
8780b62c:	00000400 	andeq	r0, r0, r0, lsl #8
8780b630:	00000c00 	andeq	r0, r0, r0, lsl #24
8780b634:	80ff1f00 	rscshi	r1, pc, r0, lsl #30
8780b638:	c0ffff00 	rscsgt	pc, pc, r0, lsl #30
8780b63c:	60000400 	andvs	r0, r0, r0, lsl #8
8780b640:	20000400 	andcs	r0, r0, r0, lsl #8
8780b644:	20000400 	andcs	r0, r0, r0, lsl #8
8780b648:	20000400 	andcs	r0, r0, r0, lsl #8
8780b64c:	40000400 	andmi	r0, r0, r0, lsl #8
8780b650:	80010000 	andhi	r0, r1, r0
	...
8780b6a0:	00000400 	andeq	r0, r0, r0, lsl #8
8780b6a4:	00000400 	andeq	r0, r0, r0, lsl #8
8780b6a8:	80ff0700 	rscshi	r0, pc, r0, lsl #14
8780b6ac:	c0ff0f00 	rscsgt	r0, pc, r0, lsl #30
8780b6b0:	60000000 	andvs	r0, r0, r0
8780b6b4:	20000000 	andcs	r0, r0, r0
8780b6b8:	20000000 	andcs	r0, r0, r0
8780b6bc:	20000000 	andcs	r0, r0, r0
8780b6c0:	20000000 	andcs	r0, r0, r0
8780b6c4:	40000400 	andmi	r0, r0, r0, lsl #8
8780b6c8:	80000400 	andhi	r0, r0, r0, lsl #8
8780b6cc:	e0ff0700 	rscs	r0, pc, r0, lsl #14
8780b6d0:	c0ff0f00 	rscsgt	r0, pc, r0, lsl #30
8780b6d4:	40000000 	andmi	r0, r0, r0
8780b6d8:	40000000 	andmi	r0, r0, r0
	...
8780b720:	00000400 	andeq	r0, r0, r0, lsl #8
8780b724:	00000400 	andeq	r0, r0, r0, lsl #8
8780b728:	00800700 	addeq	r0, r0, r0, lsl #14
8780b72c:	00f00700 	rscseq	r0, r0, r0, lsl #14
8780b730:	00fe0400 	rscseq	r0, lr, r0, lsl #8
8780b734:	c01f0400 	andsgt	r0, pc, r0, lsl #8
8780b738:	e0030000 	and	r0, r3, r0
8780b73c:	80030000 	andhi	r0, r3, r0
8780b740:	001c0000 	andseq	r0, ip, r0
8780b744:	00600400 	rsbeq	r0, r0, r0, lsl #8
8780b748:	00800700 	addeq	r0, r0, r0, lsl #14
8780b74c:	00000600 	andeq	r0, r0, r0, lsl #12
8780b750:	00000400 	andeq	r0, r0, r0, lsl #8
	...
8780b79c:	00000400 	andeq	r0, r0, r0, lsl #8
8780b7a0:	00000600 	andeq	r0, r0, r0, lsl #12
8780b7a4:	00c00700 	sbceq	r0, r0, r0, lsl #14
8780b7a8:	00fc0700 	rscseq	r0, ip, r0, lsl #14
8780b7ac:	803f0400 	eorshi	r0, pc, r0, lsl #8
8780b7b0:	e0030000 	and	r0, r3, r0
8780b7b4:	800f0400 	andhi	r0, pc, r0, lsl #8
8780b7b8:	00f00600 	rscseq	r0, r0, r0, lsl #12
8780b7bc:	00f00700 	rscseq	r0, r0, r0, lsl #14
8780b7c0:	80ff0700 	rscshi	r0, pc, r0, lsl #14
8780b7c4:	e00f0400 	and	r0, pc, r0, lsl #8
8780b7c8:	80030000 	andhi	r0, r3, r0
8780b7cc:	003c0400 	eorseq	r0, ip, r0, lsl #8
8780b7d0:	00c00700 	sbceq	r0, r0, r0, lsl #14
8780b7d4:	00000600 	andeq	r0, r0, r0, lsl #12
8780b7d8:	00000400 	andeq	r0, r0, r0, lsl #8
	...
8780b820:	20000000 	andcs	r0, r0, r0
8780b824:	20000400 	andcs	r0, r0, r0, lsl #8
8780b828:	60000400 	andvs	r0, r0, r0, lsl #8
8780b82c:	e0000700 	and	r0, r0, r0, lsl #14
8780b830:	20830700 	addcs	r0, r3, r0, lsl #14
8780b834:	00e60700 	rsceq	r0, r6, r0, lsl #14
8780b838:	00f80400 	rscseq	r0, r8, r0, lsl #8
8780b83c:	003c0000 	eorseq	r0, ip, r0
8780b840:	205e0400 	subscs	r0, lr, r0, lsl #8
8780b844:	a0870500 	addge	r0, r7, r0, lsl #10
8780b848:	e0010600 	and	r0, r1, r0, lsl #12
8780b84c:	60000400 	andvs	r0, r0, r0, lsl #8
8780b850:	20000400 	andcs	r0, r0, r0, lsl #8
8780b854:	20000000 	andcs	r0, r0, r0
	...
8780b8a0:	00000400 	andeq	r0, r0, r0, lsl #8
8780b8a4:	03000400 	movweq	r0, #1024	; 0x400
8780b8a8:	03000700 	movweq	r0, #1792	; 0x700
8780b8ac:	01e00700 	mvneq	r0, r0, lsl #14
8780b8b0:	01f80400 	mvnseq	r0, r0, lsl #8
8780b8b4:	021f0400 	andseq	r0, pc, #0, 8
8780b8b8:	fc070000 	stc2	0, cr0, [r7], {-0}
8780b8bc:	e0000000 	and	r0, r0, r0
8780b8c0:	00070000 	andeq	r0, r7, r0
8780b8c4:	00380400 	eorseq	r0, r8, r0, lsl #8
8780b8c8:	00c00700 	sbceq	r0, r0, r0, lsl #14
8780b8cc:	00000600 	andeq	r0, r0, r0, lsl #12
8780b8d0:	00000400 	andeq	r0, r0, r0, lsl #8
8780b8d4:	00000400 	andeq	r0, r0, r0, lsl #8
	...
8780b924:	60800700 	addvs	r0, r0, r0, lsl #14
8780b928:	e0000600 	and	r0, r0, r0, lsl #12
8780b92c:	e0030400 	and	r0, r3, r0, lsl #8
8780b930:	a0070400 	andge	r0, r7, r0, lsl #8
8780b934:	200e0400 	andcs	r0, lr, r0, lsl #8
8780b938:	203c0400 	eorscs	r0, ip, r0, lsl #8
8780b93c:	20700400 	rsbscs	r0, r0, r0, lsl #8
8780b940:	20e00500 	rsccs	r0, r0, r0, lsl #10
8780b944:	20800700 	addcs	r0, r0, r0, lsl #14
8780b948:	60000700 	andvs	r0, r0, r0, lsl #14
8780b94c:	e0000400 	and	r0, r0, r0, lsl #8
8780b950:	80030000 	andhi	r0, r3, r0
	...
8780b9b8:	00800000 	addeq	r0, r0, r0
8780b9bc:	00800000 	addeq	r0, r0, r0
8780b9c0:	00400100 	subeq	r0, r0, r0, lsl #2
8780b9c4:	f83ffe07 			; <UNDEFINED> instruction: 0xf83ffe07
8780b9c8:	04000008 	streq	r0, [r0], #-8
8780b9cc:	02000010 	andeq	r0, r0, #16
8780b9d0:	02000010 	andeq	r0, r0, #16
	...
8780ba3c:	ffffffff 			; <UNDEFINED> instruction: 0xffffffff
	...
8780baa4:	02000010 	andeq	r0, r0, #16
8780baa8:	02000010 	andeq	r0, r0, #16
8780baac:	04000008 	streq	r0, [r0], #-8
8780bab0:	f83ffe07 			; <UNDEFINED> instruction: 0xf83ffe07
8780bab4:	00400100 	subeq	r0, r0, r0, lsl #2
8780bab8:	00800000 	addeq	r0, r0, r0
8780babc:	00800000 	addeq	r0, r0, r0
	...
8780bb20:	00000018 	andeq	r0, r0, r8, lsl r0
8780bb24:	00000030 	andeq	r0, r0, r0, lsr r0
8780bb28:	00000040 	andeq	r0, r0, r0, asr #32
8780bb2c:	00000040 	andeq	r0, r0, r0, asr #32
8780bb30:	00000040 	andeq	r0, r0, r0, asr #32
8780bb34:	00000020 	andeq	r0, r0, r0, lsr #32
8780bb38:	00000030 	andeq	r0, r0, r0, lsr r0
8780bb3c:	00000008 	andeq	r0, r0, r8
8780bb40:	00000004 	andeq	r0, r0, r4
8780bb44:	00000002 	andeq	r0, r0, r2
8780bb48:	00000002 	andeq	r0, r0, r2
8780bb4c:	00000002 	andeq	r0, r0, r2
8780bb50:	0000000c 	andeq	r0, r0, ip
8780bb54:	00000018 	andeq	r0, r0, r8, lsl r0
	...

8780bb9c <.LANCHOR0>:
8780bb9c:	00000000 	andeq	r0, r0, r0
8780bba0:	003b001f 	eorseq	r0, fp, pc, lsl r0
8780bba4:	0078005a 	rsbseq	r0, r8, sl, asr r0
8780bba8:	00b50097 	umlalseq	r0, r5, r7, r0
8780bbac:	00f300d4 	ldrsbteq	r0, [r3], #4
8780bbb0:	01300111 	teqeq	r0, r1, lsl r1
8780bbb4:	0000014e 	andeq	r0, r0, lr, asr #2
8780bbb8:	1f1c1f00 	svcne	0x001c1f00
8780bbbc:	1f1e1f1e 	svcne	0x001e1f1e
8780bbc0:	1e1f1e1f 	mrcne	14, 0, r1, cr15, cr15, {0}
8780bbc4:	0000001f 	andeq	r0, r0, pc, lsl r0

8780bbc8 <CSWTCH.284>:
8780bbc8:	44534252 	ldrbmi	r4, [r3], #-594	; 0x252

8780bbcc <ulMaxAPIPriorityMask>:
8780bbcc:	00000090 	muleq	r0, r0, r0

8780bbd0 <ulICCPMR>:
8780bbd0:	00a02004 	adceq	r2, r0, r4

8780bbd4 <ulICCEOIR>:
8780bbd4:	00a02010 	adceq	r2, r0, r0, lsl r0

8780bbd8 <ulICCIAR>:
8780bbd8:	00a0200c 	adceq	r2, r0, ip

Disassembly of section .rodata.str1.4:

8780bbdc <.rodata.str1.4>:
8780bbdc:	52414559 	subpl	r4, r1, #373293056	; 0x16400000
8780bbe0:	0000003a 	andeq	r0, r0, sl, lsr r0
8780bbe4:	544e4f4d 	strbpl	r4, [lr], #-3917	; 0xf4d
8780bbe8:	00003a48 	andeq	r3, r0, r8, asr #20
8780bbec:	3a594144 	bcc	88e5c104 <__bss_end+0x1637ee8>
8780bbf0:	00000000 	andeq	r0, r0, r0
8780bbf4:	52554f48 	subspl	r4, r5, #72, 30	; 0x120
8780bbf8:	0000003a 	andeq	r0, r0, sl, lsr r0
8780bbfc:	554e494d 	strbpl	r4, [lr, #-2381]	; 0x94d
8780bc00:	003a4554 	eorseq	r4, sl, r4, asr r5
8780bc04:	4f434553 	svcmi	0x00434553
8780bc08:	003a444e 	eorseq	r4, sl, lr, asr #8
8780bc0c:	6b736174 	blvs	894e41e4 <__bss_end+0x1cbffc8>
8780bc10:	0044434c 	subeq	r4, r4, ip, asr #6
8780bc14:	6b736174 	blvs	894e41ec <__bss_end+0x1cbffd0>
8780bc18:	0044454c 	subeq	r4, r4, ip, asr #10
8780bc1c:	4c554e3c 	mrrcmi	14, 3, r4, r5, cr12
8780bc20:	00003e4c 	andeq	r3, r0, ip, asr #28
8780bc24:	65657266 	strbvs	r7, [r5, #-614]!	; 0x266
8780bc28:	736f7472 	cmnvc	pc, #1912602624	; 0x72000000
8780bc2c:	6372732f 	cmnvs	r2, #-1140850688	; 0xbc000000
8780bc30:	6575712f 	ldrbvs	r7, [r5, #-303]!	; 0x12f
8780bc34:	632e6575 	teqvs	lr, #490733568	; 0x1d400000
8780bc38:	00000000 	andeq	r0, r0, r0
8780bc3c:	65657266 	strbvs	r7, [r5, #-614]!	; 0x266
8780bc40:	736f7472 	cmnvc	pc, #1912602624	; 0x72000000
8780bc44:	6372732f 	cmnvs	r2, #-1140850688	; 0xbc000000
8780bc48:	6576652f 	ldrbvs	r6, [r6, #-1327]!	; 0x52f
8780bc4c:	675f746e 	ldrbvs	r7, [pc, -lr, ror #8]
8780bc50:	70756f72 	rsbsvc	r6, r5, r2, ror pc
8780bc54:	00632e73 	rsbeq	r2, r3, r3, ror lr
8780bc58:	65657266 	strbvs	r7, [r5, #-614]!	; 0x266
8780bc5c:	736f7472 	cmnvc	pc, #1912602624	; 0x72000000
8780bc60:	6372732f 	cmnvs	r2, #-1140850688	; 0xbc000000
8780bc64:	7361742f 	cmnvc	r1, #788529152	; 0x2f000000
8780bc68:	632e736b 	teqvs	lr, #-1409286143	; 0xac000001
8780bc6c:	00000000 	andeq	r0, r0, r0
8780bc70:	454c4449 	strbmi	r4, [ip, #-1097]	; 0x449
8780bc74:	00000000 	andeq	r0, r0, r0
8780bc78:	09632509 	stmdbeq	r3!, {r0, r3, r8, sl, sp}^
8780bc7c:	25097525 	strcs	r7, [r9, #-1317]	; 0x525
8780bc80:	75250975 	strvc	r0, [r5, #-2421]!	; 0x975
8780bc84:	00000a0d 	andeq	r0, r0, sp, lsl #20
8780bc88:	09752509 	ldmdbeq	r5!, {r0, r3, r8, sl, sp}^
8780bc8c:	25752509 	ldrbcs	r2, [r5, #-1289]!	; 0x509
8780bc90:	000a0d25 	andeq	r0, sl, r5, lsr #26
8780bc94:	09752509 	ldmdbeq	r5!, {r0, r3, r8, sl, sp}^
8780bc98:	25313c09 	ldrcs	r3, [r1, #-3081]!	; 0xc09
8780bc9c:	000a0d25 	andeq	r0, sl, r5, lsr #26
8780bca0:	51726d54 	cmnpl	r2, r4, asr sp
8780bca4:	00000000 	andeq	r0, r0, r0
8780bca8:	65657266 	strbvs	r7, [r5, #-614]!	; 0x266
8780bcac:	736f7472 	cmnvc	pc, #1912602624	; 0x72000000
8780bcb0:	6372732f 	cmnvs	r2, #-1140850688	; 0xbc000000
8780bcb4:	6d69742f 	cfstrdvs	mvd7, [r9, #-188]!	; 0xffffff44
8780bcb8:	2e737265 	cdpcs	2, 7, cr7, cr3, cr5, {3}
8780bcbc:	00000063 	andeq	r0, r0, r3, rrx
8780bcc0:	20726d54 	rsbscs	r6, r2, r4, asr sp
8780bcc4:	00637653 	rsbeq	r7, r3, r3, asr r6
8780bcc8:	65657266 	strbvs	r7, [r5, #-614]!	; 0x266
8780bccc:	736f7472 	cmnvc	pc, #1912602624	; 0x72000000
8780bcd0:	726f702f 	rsbvc	r7, pc, #47	; 0x2f
8780bcd4:	65682f74 	strbvs	r2, [r8, #-3956]!	; 0xf74
8780bcd8:	345f7061 	ldrbcc	r7, [pc], #-97	; 8780bce0 <ulICCIAR+0x108>
8780bcdc:	0000632e 	andeq	r6, r0, lr, lsr #6
8780bce0:	65657266 	strbvs	r7, [r5, #-614]!	; 0x266
8780bce4:	736f7472 	cmnvc	pc, #1912602624	; 0x72000000
8780bce8:	726f702f 	rsbvc	r7, pc, #47	; 0x2f
8780bcec:	6f702f74 	svcvs	0x00702f74
8780bcf0:	632e7472 	teqvs	lr, #1912602624	; 0x72000000
8780bcf4:	00000000 	andeq	r0, r0, r0

Disassembly of section .data:

8780bcf8 <_ctype>:
8780bcf8:	08080808 	stmdaeq	r8, {r3, fp}
8780bcfc:	08080808 	stmdaeq	r8, {r3, fp}
8780bd00:	28282808 	stmdacs	r8!, {r3, fp, sp}
8780bd04:	08082828 	stmdaeq	r8, {r3, r5, fp, sp}
8780bd08:	08080808 	stmdaeq	r8, {r3, fp}
8780bd0c:	08080808 	stmdaeq	r8, {r3, fp}
8780bd10:	08080808 	stmdaeq	r8, {r3, fp}
8780bd14:	08080808 	stmdaeq	r8, {r3, fp}
8780bd18:	101010a0 	andsne	r1, r0, r0, lsr #1
8780bd1c:	10101010 	andsne	r1, r0, r0, lsl r0
8780bd20:	10101010 	andsne	r1, r0, r0, lsl r0
8780bd24:	10101010 	andsne	r1, r0, r0, lsl r0
8780bd28:	04040404 	streq	r0, [r4], #-1028	; 0x404
8780bd2c:	04040404 	streq	r0, [r4], #-1028	; 0x404
8780bd30:	10100404 	andsne	r0, r0, r4, lsl #8
8780bd34:	10101010 	andsne	r1, r0, r0, lsl r0
8780bd38:	41414110 	cmpmi	r1, r0, lsl r1
8780bd3c:	01414141 	cmpeq	r1, r1, asr #2
8780bd40:	01010101 	tsteq	r1, r1, lsl #2
8780bd44:	01010101 	tsteq	r1, r1, lsl #2
8780bd48:	01010101 	tsteq	r1, r1, lsl #2
8780bd4c:	01010101 	tsteq	r1, r1, lsl #2
8780bd50:	10010101 	andne	r0, r1, r1, lsl #2
8780bd54:	10101010 	andsne	r1, r0, r0, lsl r0
8780bd58:	42424210 	submi	r4, r2, #16, 4
8780bd5c:	02424242 	subeq	r4, r2, #536870916	; 0x20000004
8780bd60:	02020202 	andeq	r0, r2, #536870912	; 0x20000000
8780bd64:	02020202 	andeq	r0, r2, #536870912	; 0x20000000
8780bd68:	02020202 	andeq	r0, r2, #536870912	; 0x20000000
8780bd6c:	02020202 	andeq	r0, r2, #536870912	; 0x20000000
8780bd70:	10020202 	andne	r0, r2, r2, lsl #4
8780bd74:	08101010 	ldmdaeq	r0, {r4, ip}
	...
8780bd98:	101010a0 	andsne	r1, r0, r0, lsr #1
8780bd9c:	10101010 	andsne	r1, r0, r0, lsl r0
8780bda0:	10101010 	andsne	r1, r0, r0, lsl r0
8780bda4:	10101010 	andsne	r1, r0, r0, lsl r0
8780bda8:	10101010 	andsne	r1, r0, r0, lsl r0
8780bdac:	10101010 	andsne	r1, r0, r0, lsl r0
8780bdb0:	10101010 	andsne	r1, r0, r0, lsl r0
8780bdb4:	10101010 	andsne	r1, r0, r0, lsl r0
8780bdb8:	01010101 	tsteq	r1, r1, lsl #2
8780bdbc:	01010101 	tsteq	r1, r1, lsl #2
8780bdc0:	01010101 	tsteq	r1, r1, lsl #2
8780bdc4:	01010101 	tsteq	r1, r1, lsl #2
8780bdc8:	01010101 	tsteq	r1, r1, lsl #2
8780bdcc:	10010101 	andne	r0, r1, r1, lsl #2
8780bdd0:	01010101 	tsteq	r1, r1, lsl #2
8780bdd4:	02010101 	andeq	r0, r1, #1073741824	; 0x40000000
8780bdd8:	02020202 	andeq	r0, r2, #536870912	; 0x20000000
8780bddc:	02020202 	andeq	r0, r2, #536870912	; 0x20000000
8780bde0:	02020202 	andeq	r0, r2, #536870912	; 0x20000000
8780bde4:	02020202 	andeq	r0, r2, #536870912	; 0x20000000
8780bde8:	02020202 	andeq	r0, r2, #536870912	; 0x20000000
8780bdec:	10020202 	andne	r0, r2, r2, lsl #4
8780bdf0:	02020202 	andeq	r0, r2, #536870912	; 0x20000000
8780bdf4:	02020202 	andeq	r0, r2, #536870912	; 0x20000000

8780bdf8 <release.7774>:
8780bdf8:	00000001 	andeq	r0, r0, r1

8780bdfc <ulCriticalNesting>:
8780bdfc:	0000270f 	andeq	r2, r0, pc, lsl #14

Disassembly of section .bss:

8780be00 <__bss_start>:
	...

8780be5c <uxIdleTaskStack.8996>:
	...

8780c244 <xTimerTaskTCB.9002>:
	...

8780c2a0 <uxTimerTaskStack.9003>:
	...

8780ca70 <g_pcOutBuf>:
	...

8780ce70 <g_pcInBuf>:
	...

8780d270 <irqTable>:
	...

8780d770 <state.8302>:
8780d770:	00000000 	andeq	r0, r0, r0

8780d774 <state.8307>:
8780d774:	00000000 	andeq	r0, r0, r0

8780d778 <uxCurrentNumberOfTasks>:
8780d778:	00000000 	andeq	r0, r0, r0

8780d77c <pxCurrentTCB>:
8780d77c:	00000000 	andeq	r0, r0, r0

8780d780 <pxReadyTasksLists>:
	...

8780d80c <xDelayedTaskList1>:
	...

8780d820 <xDelayedTaskList2>:
	...

8780d834 <xPendingReadyList>:
	...

8780d848 <xTasksWaitingTermination>:
	...

8780d85c <xSuspendedTaskList>:
	...

8780d870 <pxDelayedTaskList>:
8780d870:	00000000 	andeq	r0, r0, r0

8780d874 <pxOverflowDelayedTaskList>:
8780d874:	00000000 	andeq	r0, r0, r0

8780d878 <xSchedulerRunning>:
8780d878:	00000000 	andeq	r0, r0, r0

8780d87c <uxTaskNumber>:
8780d87c:	00000000 	andeq	r0, r0, r0

8780d880 <uxTopReadyPriority>:
8780d880:	00000000 	andeq	r0, r0, r0

8780d884 <xTickCount>:
8780d884:	00000000 	andeq	r0, r0, r0

8780d888 <xNextTaskUnblockTime>:
8780d888:	00000000 	andeq	r0, r0, r0

8780d88c <xYieldPending>:
8780d88c:	00000000 	andeq	r0, r0, r0

8780d890 <ulTotalRunTime>:
8780d890:	00000000 	andeq	r0, r0, r0

8780d894 <ulTaskSwitchedInTime>:
8780d894:	00000000 	andeq	r0, r0, r0

8780d898 <uxDeletedTasksWaitingCleanUp>:
8780d898:	00000000 	andeq	r0, r0, r0

8780d89c <uxSchedulerSuspended>:
8780d89c:	00000000 	andeq	r0, r0, r0

8780d8a0 <xIdleTaskHandle>:
8780d8a0:	00000000 	andeq	r0, r0, r0

8780d8a4 <xNumOfOverflows>:
8780d8a4:	00000000 	andeq	r0, r0, r0

8780d8a8 <uxPendedTicks>:
8780d8a8:	00000000 	andeq	r0, r0, r0

8780d8ac <xTimerQueue>:
8780d8ac:	00000000 	andeq	r0, r0, r0

8780d8b0 <xActiveTimerList1>:
	...

8780d8c4 <xActiveTimerList2>:
	...

8780d8d8 <pxCurrentTimerList>:
8780d8d8:	00000000 	andeq	r0, r0, r0

8780d8dc <pxOverflowTimerList>:
8780d8dc:	00000000 	andeq	r0, r0, r0

8780d8e0 <xStaticTimerQueue.9534>:
	...

8780d934 <ucStaticTimerQueueStorage.9535>:
	...

8780d984 <xTimerTaskHandle>:
8780d984:	00000000 	andeq	r0, r0, r0

8780d988 <xLastTime.9488>:
8780d988:	00000000 	andeq	r0, r0, r0

8780d98c <xStart>:
	...

8780d994 <pxEnd>:
8780d994:	00000000 	andeq	r0, r0, r0

8780d998 <xBlockAllocatedBit>:
8780d998:	00000000 	andeq	r0, r0, r0

8780d99c <ucHeap>:
	...

87823de4 <.LANCHOR1>:
	...

8782419c <xMinimumEverFreeBytesRemaining>:
8782419c:	00000000 	andeq	r0, r0, r0

878241a0 <xFreeBytesRemaining>:
878241a0:	00000000 	andeq	r0, r0, r0

878241a4 <ulPortYieldRequired>:
878241a4:	00000000 	andeq	r0, r0, r0

878241a8 <ulPortTaskHasFPUContext>:
878241a8:	00000000 	andeq	r0, r0, r0

878241ac <ulPortInterruptNesting>:
878241ac:	00000000 	andeq	r0, r0, r0

878241b0 <FreeRTOSRunTimeTicks>:
	...

878241b8 <___strtok>:
878241b8:	00000000 	andeq	r0, r0, r0

878241bc <tftlcd_dev>:
	...

878241dc <xQueueRegistry>:
	...

Disassembly of section .ARM.attributes:

00000000 <.ARM.attributes>:
   0:	00003241 	andeq	r3, r0, r1, asr #4
   4:	61656100 	cmnvs	r5, r0, lsl #2
   8:	01006962 	tsteq	r0, r2, ror #18
   c:	00000028 	andeq	r0, r0, r8, lsr #32
  10:	412d3705 	teqmi	sp, r5, lsl #14
  14:	070a0600 	streq	r0, [sl, -r0, lsl #12]
  18:	09010841 	stmdbeq	r1, {r0, r6, fp}
  1c:	0c050a02 	stceq	10, cr0, [r5], {2}
  20:	14041202 	strne	r1, [r4], #-514	; 0x202
  24:	17011501 	strne	r1, [r1, -r1, lsl #10]
  28:	1a011803 	bne	4603c <SYS_MODE+0x4601d>
  2c:	1c031b02 	stcne	11, cr1, [r3], {2}
  30:	地址 0x0000000000000030 越界。


Disassembly of section .comment:

00000000 <.comment>:
   0:	3a434347 	bcc	10d0d24 <SYS_MODE+0x10d0d05>
   4:	694c2820 	stmdbvs	ip, {r5, fp, sp}^
   8:	6f72616e 	svcvs	0x0072616e
   c:	43434720 	movtmi	r4, #14112	; 0x3720
  10:	392e3420 	stmdbcc	lr!, {r5, sl, ip, sp}
  14:	3130322d 	teqcc	r0, sp, lsr #4
  18:	31302e37 	teqcc	r0, r7, lsr lr
  1c:	2e342029 	cdpcs	0, 3, cr2, cr4, cr9, {1}
  20:	00342e39 	eorseq	r2, r4, r9, lsr lr

Disassembly of section .debug_frame:

00000000 <.debug_frame>:
   0:	0000000c 	andeq	r0, r0, ip
   4:	ffffffff 			; <UNDEFINED> instruction: 0xffffffff
   8:	7c010001 	stcvc	0, cr0, [r1], {1}
   c:	000d0c0e 	andeq	r0, sp, lr, lsl #24
  10:	0000000c 	andeq	r0, r0, ip
  14:	00000000 	andeq	r0, r0, r0
  18:	87807151 			; <UNDEFINED> instruction: 0x87807151
  1c:	0000025c 	andeq	r0, r0, ip, asr r2

Disassembly of section .debug_line:

00000000 <.debug_line>:
   0:	00000100 	andeq	r0, r0, r0, lsl #2
   4:	00c70002 	sbceq	r0, r7, r2
   8:	01020000 	mrseq	r0, (UNDEF: 2)
   c:	000d0efb 	strdeq	r0, [sp], -fp
  10:	01010101 	tsteq	r1, r1, lsl #2
  14:	01000000 	mrseq	r0, (UNDEF: 0)
  18:	2f010000 	svccs	0x00010000
  1c:	656d6f68 	strbvs	r6, [sp, #-3944]!	; 0xf68
  20:	7763742f 	strbvc	r7, [r3, -pc, lsr #8]!
  24:	75622d67 	strbvc	r2, [r2, #-3431]!	; 0xd67
  28:	73646c69 	cmnvc	r4, #26880	; 0x6900
  2c:	6576616c 	ldrbvs	r6, [r6, #-364]!	; 0x16c
  30:	726f772f 	rsbvc	r7, pc, #12320768	; 0xbc0000
  34:	6170736b 	cmnvs	r0, fp, ror #6
  38:	742f6563 	strtvc	r6, [pc], #-1379	; 40 <SYS_MODE+0x21>
  3c:	2d677763 	stclcs	7, cr7, [r7, #-396]!	; 0xfffffe74
  40:	656b616d 	strbvs	r6, [fp, #-365]!	; 0x16d
  44:	6c65722d 	sfmvs	f7, 2, [r5], #-180	; 0xffffff4c
  48:	65736165 	ldrbvs	r6, [r3, #-357]!	; 0x165
  4c:	62616c2f 	rsbvs	r6, r1, #12032	; 0x2f00
  50:	642f6c65 	strtvs	r6, [pc], #-3173	; 58 <SYS_MODE+0x39>
  54:	656b636f 	strbvs	r6, [fp, #-879]!	; 0x36f
  58:	72742d72 	rsbsvc	r2, r4, #7296	; 0x1c80
  5c:	79747375 	ldmdbvc	r4!, {r0, r2, r4, r5, r6, r8, r9, ip, sp, lr}^
  60:	646d612d 	strbtvs	r6, [sp], #-301	; 0x12d
  64:	742d3436 	strtvc	r3, [sp], #-1078	; 0x436
  68:	2d677763 	stclcs	7, cr7, [r7, #-396]!	; 0xfffffe74
  6c:	6c697562 	cfstr64vs	mvdx7, [r9], #-392	; 0xfffffe78
  70:	61742f64 	cmnvs	r4, r4, ror #30
  74:	74656772 	strbtvc	r6, [r5], #-1906	; 0x772
  78:	6d72612f 	ldfvse	f6, [r2, #-188]!	; 0xffffff44
  7c:	6e696c2d 	cdpvs	12, 6, cr6, cr9, cr13, {1}
  80:	672d7875 			; <UNDEFINED> instruction: 0x672d7875
  84:	6165756e 	cmnvs	r5, lr, ror #10
  88:	66686962 	strbtvs	r6, [r8], -r2, ror #18
  8c:	616e732f 	cmnvs	lr, pc, lsr #6
  90:	6f687370 	svcvs	0x00687370
  94:	672f7374 			; <UNDEFINED> instruction: 0x672f7374
  98:	6c2d6363 	stcvs	3, cr6, [sp], #-396	; 0xfffffe74
  9c:	72616e69 	rsbvc	r6, r1, #1680	; 0x690
  a0:	2e342d6f 	cdpcs	13, 3, cr2, cr4, cr15, {3}
  a4:	30322d39 	eorscc	r2, r2, r9, lsr sp
  a8:	302e3731 	eorcc	r3, lr, r1, lsr r7
  ac:	696c2f31 	stmdbvs	ip!, {r0, r4, r5, r8, r9, sl, fp, sp}^
  b0:	63636762 	cmnvs	r3, #25690112	; 0x1880000
  b4:	6e6f632f 	cdpvs	3, 6, cr6, cr15, cr15, {1}
  b8:	2f676966 	svccs	0x00676966
  bc:	006d7261 	rsbeq	r7, sp, r1, ror #4
  c0:	62696c00 	rsbvs	r6, r9, #0, 24
  c4:	6e756631 	mrcvs	6, 3, r6, cr5, cr1, {1}
  c8:	532e7363 	teqpl	lr, #-1946157055	; 0x8c000001
  cc:	00000100 	andeq	r0, r0, r0, lsl #2
  d0:	02050000 	andeq	r0, r5, #0
  d4:	87807150 			; <UNDEFINED> instruction: 0x87807150
  d8:	0107cf03 	tsteq	r7, r3, lsl #30
  dc:	2f212121 	svccs	0x00212121
  e0:	30212f21 	eorcc	r2, r1, r1, lsr #30
  e4:	14029102 	strne	r9, [r2], #-258	; 0x102
  e8:	21212221 	teqcs	r1, r1, lsr #4
  ec:	2f4c2221 	svccs	0x004c2221
  f0:	207aeb03 	rsbscs	lr, sl, r3, lsl #22
  f4:	5805af03 	stmdapl	r5, {r0, r1, r8, r9, sl, fp, sp, pc}
  f8:	2f2f2121 	svccs	0x002f2121
  fc:	022f2f2f 	eoreq	r2, pc, #47, 30	; 0xbc
 100:	01010001 	tsteq	r1, r1
 104:	000000e3 	andeq	r0, r0, r3, ror #1
 108:	00c70002 	sbceq	r0, r7, r2
 10c:	01020000 	mrseq	r0, (UNDEF: 2)
 110:	000d0efb 	strdeq	r0, [sp], -fp
 114:	01010101 	tsteq	r1, r1, lsl #2
 118:	01000000 	mrseq	r0, (UNDEF: 0)
 11c:	2f010000 	svccs	0x00010000
 120:	656d6f68 	strbvs	r6, [sp, #-3944]!	; 0xf68
 124:	7763742f 	strbvc	r7, [r3, -pc, lsr #8]!
 128:	75622d67 	strbvc	r2, [r2, #-3431]!	; 0xd67
 12c:	73646c69 	cmnvc	r4, #26880	; 0x6900
 130:	6576616c 	ldrbvs	r6, [r6, #-364]!	; 0x16c
 134:	726f772f 	rsbvc	r7, pc, #12320768	; 0xbc0000
 138:	6170736b 	cmnvs	r0, fp, ror #6
 13c:	742f6563 	strtvc	r6, [pc], #-1379	; 144 <SYS_MODE+0x125>
 140:	2d677763 	stclcs	7, cr7, [r7, #-396]!	; 0xfffffe74
 144:	656b616d 	strbvs	r6, [fp, #-365]!	; 0x16d
 148:	6c65722d 	sfmvs	f7, 2, [r5], #-180	; 0xffffff4c
 14c:	65736165 	ldrbvs	r6, [r3, #-357]!	; 0x165
 150:	62616c2f 	rsbvs	r6, r1, #12032	; 0x2f00
 154:	642f6c65 	strtvs	r6, [pc], #-3173	; 15c <SYS_MODE+0x13d>
 158:	656b636f 	strbvs	r6, [fp, #-879]!	; 0x36f
 15c:	72742d72 	rsbsvc	r2, r4, #7296	; 0x1c80
 160:	79747375 	ldmdbvc	r4!, {r0, r2, r4, r5, r6, r8, r9, ip, sp, lr}^
 164:	646d612d 	strbtvs	r6, [sp], #-301	; 0x12d
 168:	742d3436 	strtvc	r3, [sp], #-1078	; 0x436
 16c:	2d677763 	stclcs	7, cr7, [r7, #-396]!	; 0xfffffe74
 170:	6c697562 	cfstr64vs	mvdx7, [r9], #-392	; 0xfffffe78
 174:	61742f64 	cmnvs	r4, r4, ror #30
 178:	74656772 	strbtvc	r6, [r5], #-1906	; 0x772
 17c:	6d72612f 	ldfvse	f6, [r2, #-188]!	; 0xffffff44
 180:	6e696c2d 	cdpvs	12, 6, cr6, cr9, cr13, {1}
 184:	672d7875 			; <UNDEFINED> instruction: 0x672d7875
 188:	6165756e 	cmnvs	r5, lr, ror #10
 18c:	66686962 	strbtvs	r6, [r8], -r2, ror #18
 190:	616e732f 	cmnvs	lr, pc, lsr #6
 194:	6f687370 	svcvs	0x00687370
 198:	672f7374 			; <UNDEFINED> instruction: 0x672f7374
 19c:	6c2d6363 	stcvs	3, cr6, [sp], #-396	; 0xfffffe74
 1a0:	72616e69 	rsbvc	r6, r1, #1680	; 0x690
 1a4:	2e342d6f 	cdpcs	13, 3, cr2, cr4, cr15, {3}
 1a8:	30322d39 	eorscc	r2, r2, r9, lsr sp
 1ac:	302e3731 	eorcc	r3, lr, r1, lsr r7
 1b0:	696c2f31 	stmdbvs	ip!, {r0, r4, r5, r8, r9, sl, fp, sp}^
 1b4:	63636762 	cmnvs	r3, #25690112	; 0x1880000
 1b8:	6e6f632f 	cdpvs	3, 6, cr6, cr15, cr15, {1}
 1bc:	2f676966 	svccs	0x00676966
 1c0:	006d7261 	rsbeq	r7, sp, r1, ror #4
 1c4:	62696c00 	rsbvs	r6, r9, #0, 24
 1c8:	6e756631 	mrcvs	6, 3, r6, cr5, cr1, {1}
 1cc:	532e7363 	teqpl	lr, #-1946157055	; 0x8c000001
 1d0:	00000100 	andeq	r0, r0, r0, lsl #2
 1d4:	02050000 	andeq	r0, r5, #0
 1d8:	878073c8 	strhi	r7, [r0, r8, asr #7]
 1dc:	010ab003 	tsteq	sl, r3
 1e0:	bb032f21 	bllt	cbe6c <SYS_MODE+0xcbe4d>
 1e4:	01022e77 	tsteq	r2, r7, ror lr
 1e8:	地址 0x00000000000001e8 越界。


Disassembly of section .debug_info:

00000000 <.debug_info>:
   0:	000001bb 			; <UNDEFINED> instruction: 0x000001bb
   4:	00000002 	andeq	r0, r0, r2
   8:	01040000 	mrseq	r0, (UNDEF: 4)
   c:	00000000 	andeq	r0, r0, r0
  10:	87807150 			; <UNDEFINED> instruction: 0x87807150
  14:	878073c6 	strhi	r7, [r0, r6, asr #7]
  18:	6d6f682f 	stclvs	8, cr6, [pc, #-188]!	; ffffff64 <__bss_end+0x787dbd48>
  1c:	63742f65 	cmnvs	r4, #404	; 0x194
  20:	622d6777 	eorvs	r6, sp, #31195136	; 0x1dc0000
  24:	646c6975 	strbtvs	r6, [ip], #-2421	; 0x975
  28:	76616c73 			; <UNDEFINED> instruction: 0x76616c73
  2c:	6f772f65 	svcvs	0x00772f65
  30:	70736b72 	rsbsvc	r6, r3, r2, ror fp
  34:	2f656361 	svccs	0x00656361
  38:	67776374 			; <UNDEFINED> instruction: 0x67776374
  3c:	6b616d2d 	blvs	185b4f8 <SYS_MODE+0x185b4d9>
  40:	65722d65 	ldrbvs	r2, [r2, #-3429]!	; 0xd65
  44:	7361656c 	cmnvc	r1, #108, 10	; 0x1b000000
  48:	616c2f65 	cmnvs	ip, r5, ror #30
  4c:	2f6c6562 	svccs	0x006c6562
  50:	6b636f64 	blvs	18dbde8 <SYS_MODE+0x18dbdc9>
  54:	742d7265 	strtvc	r7, [sp], #-613	; 0x265
  58:	74737572 	ldrbtvc	r7, [r3], #-1394	; 0x572
  5c:	6d612d79 	stclvs	13, cr2, [r1, #-484]!	; 0xfffffe1c
  60:	2d343664 	ldccs	6, cr3, [r4, #-400]!	; 0xfffffe70
  64:	67776374 			; <UNDEFINED> instruction: 0x67776374
  68:	6975622d 	ldmdbvs	r5!, {r0, r2, r3, r5, r9, sp, lr}^
  6c:	742f646c 	strtvc	r6, [pc], #-1132	; 74 <SYS_MODE+0x55>
  70:	65677261 	strbvs	r7, [r7, #-609]!	; 0x261
  74:	72612f74 	rsbvc	r2, r1, #116, 30	; 0x1d0
  78:	696c2d6d 	stmdbvs	ip!, {r0, r2, r3, r5, r6, r8, sl, fp, sp}^
  7c:	2d78756e 	cfldr64cs	mvdx7, [r8, #-440]!	; 0xfffffe48
  80:	65756e67 	ldrbvs	r6, [r5, #-3687]!	; 0xe67
  84:	68696261 	stmdavs	r9!, {r0, r5, r6, r9, sp, lr}^
  88:	6e732f66 	cdpvs	15, 7, cr2, cr3, cr6, {3}
  8c:	68737061 	ldmdavs	r3!, {r0, r5, r6, ip, sp, lr}^
  90:	2f73746f 	svccs	0x0073746f
  94:	2d636367 	stclcs	3, cr6, [r3, #-412]!	; 0xfffffe64
  98:	616e696c 	cmnvs	lr, ip, ror #18
  9c:	342d6f72 	strtcc	r6, [sp], #-3954	; 0xf72
  a0:	322d392e 	eorcc	r3, sp, #753664	; 0xb8000
  a4:	2e373130 	mrccs	1, 1, r3, cr7, cr0, {1}
  a8:	6c2f3130 	stfvss	f3, [pc], #-192	; fffffff0 <__bss_end+0x787dbdd4>
  ac:	63676269 	cmnvs	r7, #-1879048186	; 0x90000006
  b0:	6f632f63 	svcvs	0x00632f63
  b4:	6769666e 	strbvs	r6, [r9, -lr, ror #12]!
  b8:	6d72612f 	ldfvse	f6, [r2, #-188]!	; 0xffffff44
  bc:	62696c2f 	rsbvs	r6, r9, #12032	; 0x2f00
  c0:	6e756631 	mrcvs	6, 3, r6, cr5, cr1, {1}
  c4:	532e7363 	teqpl	lr, #-1946157055	; 0x8c000001
  c8:	6f682f00 	svcvs	0x00682f00
  cc:	742f656d 	strtvc	r6, [pc], #-1389	; d4 <SYS_MODE+0xb5>
  d0:	2d677763 	stclcs	7, cr7, [r7, #-396]!	; 0xfffffe74
  d4:	6c697562 	cfstr64vs	mvdx7, [r9], #-392	; 0xfffffe78
  d8:	616c7364 	cmnvs	ip, r4, ror #6
  dc:	772f6576 			; <UNDEFINED> instruction: 0x772f6576
  e0:	736b726f 	cmnvc	fp, #-268435450	; 0xf0000006
  e4:	65636170 	strbvs	r6, [r3, #-368]!	; 0x170
  e8:	7763742f 	strbvc	r7, [r3, -pc, lsr #8]!
  ec:	616d2d67 	cmnvs	sp, r7, ror #26
  f0:	722d656b 	eorvc	r6, sp, #448790528	; 0x1ac00000
  f4:	61656c65 	cmnvs	r5, r5, ror #24
  f8:	6c2f6573 	cfstr32vs	mvfx6, [pc], #-460	; ffffff34 <__bss_end+0x787dbd18>
  fc:	6c656261 	sfmvs	f6, 2, [r5], #-388	; 0xfffffe7c
 100:	636f642f 	cmnvs	pc, #788529152	; 0x2f000000
 104:	2d72656b 	cfldr64cs	mvdx6, [r2, #-428]!	; 0xfffffe54
 108:	73757274 	cmnvc	r5, #116, 4	; 0x40000007
 10c:	612d7974 	teqvs	sp, r4, ror r9
 110:	3436646d 	ldrtcc	r6, [r6], #-1133	; 0x46d
 114:	7763742d 	strbvc	r7, [r3, -sp, lsr #8]!
 118:	75622d67 	strbvc	r2, [r2, #-3431]!	; 0xd67
 11c:	2f646c69 	svccs	0x00646c69
 120:	67726174 			; <UNDEFINED> instruction: 0x67726174
 124:	612f7465 	teqvs	pc, r5, ror #8
 128:	6c2d6d72 	stcvs	13, cr6, [sp], #-456	; 0xfffffe38
 12c:	78756e69 	ldmdavc	r5!, {r0, r3, r5, r6, r9, sl, fp, sp, lr}^
 130:	756e672d 	strbvc	r6, [lr, #-1837]!	; 0x72d
 134:	69626165 	stmdbvs	r2!, {r0, r2, r5, r6, r8, sp, lr}^
 138:	5f2f6668 	svcpl	0x002f6668
 13c:	6c697562 	cfstr64vs	mvdx7, [r9], #-392	; 0xfffffe78
 140:	75622f64 	strbvc	r2, [r2, #-3940]!	; 0xf64
 144:	73646c69 	cmnvc	r4, #26880	; 0x6900
 148:	3638782f 	ldrtcc	r7, [r8], -pc, lsr #16
 14c:	2d34365f 	ldccs	6, cr3, [r4, #-380]!	; 0xfffffe84
 150:	6e6b6e75 	mcrvs	14, 3, r6, cr11, cr5, {3}
 154:	2d6e776f 	stclcs	7, cr7, [lr, #-444]!	; 0xfffffe44
 158:	756e696c 	strbvc	r6, [lr, #-2412]!	; 0x96c
 15c:	6e672d78 	mcrvs	13, 3, r2, cr7, cr8, {3}
 160:	72612f75 	rsbvc	r2, r1, #468	; 0x1d4
 164:	696c2d6d 	stmdbvs	ip!, {r0, r2, r3, r5, r6, r8, sl, fp, sp}^
 168:	2d78756e 	cfldr64cs	mvdx7, [r8, #-440]!	; 0xfffffe48
 16c:	65756e67 	ldrbvs	r6, [r5, #-3687]!	; 0xe67
 170:	68696261 	stmdavs	r9!, {r0, r5, r6, r9, sp, lr}^
 174:	63672f66 	cmnvs	r7, #408	; 0x198
 178:	696c2d63 	stmdbvs	ip!, {r0, r1, r5, r6, r8, sl, fp, sp}^
 17c:	6f72616e 	svcvs	0x0072616e
 180:	392e342d 	stmdbcc	lr!, {r0, r2, r3, r5, sl, ip, sp}
 184:	3130322d 	teqcc	r0, sp, lsr #4
 188:	31302e37 	teqcc	r0, r7, lsr lr
 18c:	6174732d 	cmnvs	r4, sp, lsr #6
 190:	2f326567 	svccs	0x00326567
 194:	2d6d7261 	sfmcs	f7, 2, [sp, #-388]!	; 0xfffffe7c
 198:	756e696c 	strbvc	r6, [lr, #-2412]!	; 0x96c
 19c:	6e672d78 	mcrvs	13, 3, r2, cr7, cr8, {3}
 1a0:	62616575 	rsbvs	r6, r1, #490733568	; 0x1d400000
 1a4:	2f666869 	svccs	0x00666869
 1a8:	6762696c 	strbvs	r6, [r2, -ip, ror #18]!
 1ac:	47006363 	strmi	r6, [r0, -r3, ror #6]
 1b0:	4120554e 	teqmi	r0, lr, asr #10
 1b4:	2e322053 	mrccs	0, 1, r2, cr2, cr3, {2}
 1b8:	302e3432 	eorcc	r3, lr, r2, lsr r4
 1bc:	bb800100 	bllt	fe0005c4 <__bss_end+0x767dc3a8>
 1c0:	02000001 	andeq	r0, r0, #1
 1c4:	00001400 	andeq	r1, r0, r0, lsl #8
 1c8:	04010400 	streq	r0, [r1], #-1024	; 0x400
 1cc:	c8000001 	stmdagt	r0, {r0}
 1d0:	d4878073 	strle	r8, [r7], #115	; 0x73
 1d4:	2f878073 	svccs	0x00878073
 1d8:	656d6f68 	strbvs	r6, [sp, #-3944]!	; 0xf68
 1dc:	7763742f 	strbvc	r7, [r3, -pc, lsr #8]!
 1e0:	75622d67 	strbvc	r2, [r2, #-3431]!	; 0xd67
 1e4:	73646c69 	cmnvc	r4, #26880	; 0x6900
 1e8:	6576616c 	ldrbvs	r6, [r6, #-364]!	; 0x16c
 1ec:	726f772f 	rsbvc	r7, pc, #12320768	; 0xbc0000
 1f0:	6170736b 	cmnvs	r0, fp, ror #6
 1f4:	742f6563 	strtvc	r6, [pc], #-1379	; 1fc <SYS_MODE+0x1dd>
 1f8:	2d677763 	stclcs	7, cr7, [r7, #-396]!	; 0xfffffe74
 1fc:	656b616d 	strbvs	r6, [fp, #-365]!	; 0x16d
 200:	6c65722d 	sfmvs	f7, 2, [r5], #-180	; 0xffffff4c
 204:	65736165 	ldrbvs	r6, [r3, #-357]!	; 0x165
 208:	62616c2f 	rsbvs	r6, r1, #12032	; 0x2f00
 20c:	642f6c65 	strtvs	r6, [pc], #-3173	; 214 <SYS_MODE+0x1f5>
 210:	656b636f 	strbvs	r6, [fp, #-879]!	; 0x36f
 214:	72742d72 	rsbsvc	r2, r4, #7296	; 0x1c80
 218:	79747375 	ldmdbvc	r4!, {r0, r2, r4, r5, r6, r8, r9, ip, sp, lr}^
 21c:	646d612d 	strbtvs	r6, [sp], #-301	; 0x12d
 220:	742d3436 	strtvc	r3, [sp], #-1078	; 0x436
 224:	2d677763 	stclcs	7, cr7, [r7, #-396]!	; 0xfffffe74
 228:	6c697562 	cfstr64vs	mvdx7, [r9], #-392	; 0xfffffe78
 22c:	61742f64 	cmnvs	r4, r4, ror #30
 230:	74656772 	strbtvc	r6, [r5], #-1906	; 0x772
 234:	6d72612f 	ldfvse	f6, [r2, #-188]!	; 0xffffff44
 238:	6e696c2d 	cdpvs	12, 6, cr6, cr9, cr13, {1}
 23c:	672d7875 			; <UNDEFINED> instruction: 0x672d7875
 240:	6165756e 	cmnvs	r5, lr, ror #10
 244:	66686962 	strbtvs	r6, [r8], -r2, ror #18
 248:	616e732f 	cmnvs	lr, pc, lsr #6
 24c:	6f687370 	svcvs	0x00687370
 250:	672f7374 			; <UNDEFINED> instruction: 0x672f7374
 254:	6c2d6363 	stcvs	3, cr6, [sp], #-396	; 0xfffffe74
 258:	72616e69 	rsbvc	r6, r1, #1680	; 0x690
 25c:	2e342d6f 	cdpcs	13, 3, cr2, cr4, cr15, {3}
 260:	30322d39 	eorscc	r2, r2, r9, lsr sp
 264:	302e3731 	eorcc	r3, lr, r1, lsr r7
 268:	696c2f31 	stmdbvs	ip!, {r0, r4, r5, r8, r9, sl, fp, sp}^
 26c:	63636762 	cmnvs	r3, #25690112	; 0x1880000
 270:	6e6f632f 	cdpvs	3, 6, cr6, cr15, cr15, {1}
 274:	2f676966 	svccs	0x00676966
 278:	2f6d7261 	svccs	0x006d7261
 27c:	3162696c 	cmncc	r2, ip, ror #18
 280:	636e7566 	cmnvs	lr, #427819008	; 0x19800000
 284:	00532e73 	subseq	r2, r3, r3, ror lr
 288:	6d6f682f 	stclvs	8, cr6, [pc, #-188]!	; 1d4 <SYS_MODE+0x1b5>
 28c:	63742f65 	cmnvs	r4, #404	; 0x194
 290:	622d6777 	eorvs	r6, sp, #31195136	; 0x1dc0000
 294:	646c6975 	strbtvs	r6, [ip], #-2421	; 0x975
 298:	76616c73 			; <UNDEFINED> instruction: 0x76616c73
 29c:	6f772f65 	svcvs	0x00772f65
 2a0:	70736b72 	rsbsvc	r6, r3, r2, ror fp
 2a4:	2f656361 	svccs	0x00656361
 2a8:	67776374 			; <UNDEFINED> instruction: 0x67776374
 2ac:	6b616d2d 	blvs	185b768 <SYS_MODE+0x185b749>
 2b0:	65722d65 	ldrbvs	r2, [r2, #-3429]!	; 0xd65
 2b4:	7361656c 	cmnvc	r1, #108, 10	; 0x1b000000
 2b8:	616c2f65 	cmnvs	ip, r5, ror #30
 2bc:	2f6c6562 	svccs	0x006c6562
 2c0:	6b636f64 	blvs	18dc058 <SYS_MODE+0x18dc039>
 2c4:	742d7265 	strtvc	r7, [sp], #-613	; 0x265
 2c8:	74737572 	ldrbtvc	r7, [r3], #-1394	; 0x572
 2cc:	6d612d79 	stclvs	13, cr2, [r1, #-484]!	; 0xfffffe1c
 2d0:	2d343664 	ldccs	6, cr3, [r4, #-400]!	; 0xfffffe70
 2d4:	67776374 			; <UNDEFINED> instruction: 0x67776374
 2d8:	6975622d 	ldmdbvs	r5!, {r0, r2, r3, r5, r9, sp, lr}^
 2dc:	742f646c 	strtvc	r6, [pc], #-1132	; 2e4 <SYS_MODE+0x2c5>
 2e0:	65677261 	strbvs	r7, [r7, #-609]!	; 0x261
 2e4:	72612f74 	rsbvc	r2, r1, #116, 30	; 0x1d0
 2e8:	696c2d6d 	stmdbvs	ip!, {r0, r2, r3, r5, r6, r8, sl, fp, sp}^
 2ec:	2d78756e 	cfldr64cs	mvdx7, [r8, #-440]!	; 0xfffffe48
 2f0:	65756e67 	ldrbvs	r6, [r5, #-3687]!	; 0xe67
 2f4:	68696261 	stmdavs	r9!, {r0, r5, r6, r9, sp, lr}^
 2f8:	625f2f66 	subsvs	r2, pc, #408	; 0x198
 2fc:	646c6975 	strbtvs	r6, [ip], #-2421	; 0x975
 300:	6975622f 	ldmdbvs	r5!, {r0, r1, r2, r3, r5, r9, sp, lr}^
 304:	2f73646c 	svccs	0x0073646c
 308:	5f363878 	svcpl	0x00363878
 30c:	752d3436 	strvc	r3, [sp, #-1078]!	; 0x436
 310:	6f6e6b6e 	svcvs	0x006e6b6e
 314:	6c2d6e77 	stcvs	14, cr6, [sp], #-476	; 0xfffffe24
 318:	78756e69 	ldmdavc	r5!, {r0, r3, r5, r6, r9, sl, fp, sp, lr}^
 31c:	756e672d 	strbvc	r6, [lr, #-1837]!	; 0x72d
 320:	6d72612f 	ldfvse	f6, [r2, #-188]!	; 0xffffff44
 324:	6e696c2d 	cdpvs	12, 6, cr6, cr9, cr13, {1}
 328:	672d7875 			; <UNDEFINED> instruction: 0x672d7875
 32c:	6165756e 	cmnvs	r5, lr, ror #10
 330:	66686962 	strbtvs	r6, [r8], -r2, ror #18
 334:	6363672f 	cmnvs	r3, #12320768	; 0xbc0000
 338:	6e696c2d 	cdpvs	12, 6, cr6, cr9, cr13, {1}
 33c:	2d6f7261 	sfmcs	f7, 2, [pc, #-388]!	; 1c0 <SYS_MODE+0x1a1>
 340:	2d392e34 	ldccs	14, cr2, [r9, #-208]!	; 0xffffff30
 344:	37313032 			; <UNDEFINED> instruction: 0x37313032
 348:	2d31302e 	ldccs	0, cr3, [r1, #-184]!	; 0xffffff48
 34c:	67617473 			; <UNDEFINED> instruction: 0x67617473
 350:	612f3265 	teqvs	pc, r5, ror #4
 354:	6c2d6d72 	stcvs	13, cr6, [sp], #-456	; 0xfffffe38
 358:	78756e69 	ldmdavc	r5!, {r0, r3, r5, r6, r9, sl, fp, sp, lr}^
 35c:	756e672d 	strbvc	r6, [lr, #-1837]!	; 0x72d
 360:	69626165 	stmdbvs	r2!, {r0, r2, r5, r6, r8, sp, lr}^
 364:	6c2f6668 	stcvs	6, cr6, [pc], #-416	; 1cc <SYS_MODE+0x1ad>
 368:	63676269 	cmnvs	r7, #-1879048186	; 0x90000006
 36c:	4e470063 	cdpmi	0, 4, cr0, cr7, cr3, {3}
 370:	53412055 	movtpl	r2, #4181	; 0x1055
 374:	322e3220 	eorcc	r3, lr, #32, 4
 378:	00302e34 	eorseq	r2, r0, r4, lsr lr
 37c:	地址 0x000000000000037c 越界。


Disassembly of section .debug_abbrev:

00000000 <.debug_abbrev>:
   0:	10001101 	andne	r1, r0, r1, lsl #2
   4:	12011106 	andne	r1, r1, #-2147483647	; 0x80000001
   8:	1b080301 	blne	200c14 <SYS_MODE+0x200bf5>
   c:	13082508 	movwne	r2, #34056	; 0x8508
  10:	00000005 	andeq	r0, r0, r5
  14:	10001101 	andne	r1, r0, r1, lsl #2
  18:	12011106 	andne	r1, r1, #-2147483647	; 0x80000001
  1c:	1b080301 	blne	200c28 <SYS_MODE+0x200c09>
  20:	13082508 	movwne	r2, #34056	; 0x8508
  24:	00000005 	andeq	r0, r0, r5

Disassembly of section .debug_aranges:

00000000 <.debug_aranges>:
   0:	0000001c 	andeq	r0, r0, ip, lsl r0
   4:	00000002 	andeq	r0, r0, r2
   8:	00040000 	andeq	r0, r4, r0
   c:	00000000 	andeq	r0, r0, r0
  10:	87807150 			; <UNDEFINED> instruction: 0x87807150
  14:	00000276 	andeq	r0, r0, r6, ror r2
	...
  20:	0000001c 	andeq	r0, r0, ip, lsl r0
  24:	01bf0002 			; <UNDEFINED> instruction: 0x01bf0002
  28:	00040000 	andeq	r0, r4, r0
  2c:	00000000 	andeq	r0, r0, r0
  30:	878073c8 	strhi	r7, [r0, r8, asr #7]
  34:	0000000c 	andeq	r0, r0, ip
	...
